 º—º—œÛ∆Â

 Timestamp is 5edc95ed (Sun Jun  7 15:23:25 2020)

 Preferred load address is 0000000140000000

 Start         Length     Name                   Class
 0001:00000000 00000600H .text$di                CODE
 0001:00000600 000d34d0H .text$mn                CODE
 0001:000d3ad0 00000040H .text$mn$00             CODE
 0001:000d3b10 0000aeb0H .text$x                 CODE
 0001:000de9c0 000002deH .text$yd                CODE
 0002:00000000 00004db0H .idata$5                DATA
 0002:00004db0 00000028H .00cfg                  DATA
 0002:00004dd8 00000008H .CRT$XCA                DATA
 0002:00004de0 00000008H .CRT$XCAA               DATA
 0002:00004de8 00000240H .CRT$XCU                DATA
 0002:00005028 00000008H .CRT$XCZ                DATA
 0002:00005030 00000008H .CRT$XIA                DATA
 0002:00005038 00000008H .CRT$XIAA               DATA
 0002:00005040 00000008H .CRT$XIAC               DATA
 0002:00005048 00000008H .CRT$XIC                DATA
 0002:00005050 00000008H .CRT$XIZ                DATA
 0002:00005058 00000008H .CRT$XLA                DATA
 0002:00005060 00000008H .CRT$XLZ                DATA
 0002:00005068 00000008H .CRT$XPA                DATA
 0002:00005070 00000008H .CRT$XPZ                DATA
 0002:00005078 00000008H .CRT$XTA                DATA
 0002:00005080 00000010H .CRT$XTZ                DATA
 0002:00005088 00000000H .gehcont$y              DATA
 0002:00005088 00000000H .gfids$y                DATA
 0002:00005090 0015c8e0H .rdata                  DATA
 0002:00161970 00000030H .rdata$T                DATA
 0002:001619a0 0000769cH .rdata$r                DATA
 0002:0016903c 00000364H .rdata$zzzdbg           DATA
 0002:001693a0 00000008H .rtc$IAA                DATA
 0002:001693a8 00000008H .rtc$IZZ                DATA
 0002:001693b0 00000008H .rtc$TAA                DATA
 0002:001693b8 00000008H .rtc$TZZ                DATA
 0002:001693c0 00000004H .tls                    DATA
 0002:001693c4 00000004H .tls$                   DATA
 0002:001693c8 00000008H .tls$ZZZ                DATA
 0002:001693d0 00015de8H .xdata                  DATA
 0002:0017f1b8 000000ecH .xdata$x                DATA
 0002:0017f2a4 00000000H .edata                  DATA
 0002:0017f2a4 00000190H .idata$2                DATA
 0002:0017f434 00000014H .idata$3                DATA
 0002:0017f448 00004db0H .idata$4                DATA
 0002:001841f8 0001cdb0H .idata$6                DATA
 0003:00000000 00000c60H .data                   DATA
 0003:00000c60 00002150H .data$r                 DATA
 0003:00002db0 00057290H .bss                    DATA
 0004:00000000 00008c34H .pdata                  DATA
 0005:00000000 000001f0H .rsrc$01                DATA
 0005:000001f0 0005a810H .rsrc$02                DATA

  Address         Publics by Value              Rva+Base               Lib:Object

 0000:00000000       __guard_eh_cont_count      0000000000000000     <absolute>
 0000:00000000       __guard_iat_count          0000000000000000     <absolute>
 0000:00000000       __hybrid_code_map          0000000000000000     <absolute>
 0000:00000000       __arm64x_native_entrypoint 0000000000000000     <absolute>
 0000:00000000       __volatile_metadata        0000000000000000     <absolute>
 0000:00000000       __guard_eh_cont_table      0000000000000000     <absolute>
 0000:00000000       __x64_code_ranges_to_entry_points 0000000000000000     <absolute>
 0000:00000000       ___safe_se_handler_table   0000000000000000     <absolute>
 0000:00000000       __hybrid_code_map_count    0000000000000000     <absolute>
 0000:00000000       __guard_fids_count         0000000000000000     <absolute>
 0000:00000000       __guard_iat_table          0000000000000000     <absolute>
 0000:00000000       __enclave_config           0000000000000000     <absolute>
 0000:00000000       __guard_longjmp_table      0000000000000000     <absolute>
 0000:00000000       __arm64x_redirection_metadata 0000000000000000     <absolute>
 0000:00000000       __guard_longjmp_count      0000000000000000     <absolute>
 0000:00000000       __arm64x_redirection_metadata_count 0000000000000000     <absolute>
 0000:00000000       __x64_code_ranges_to_entry_points_count 0000000000000000     <absolute>
 0000:00000000       ___safe_se_handler_count   0000000000000000     <absolute>
 0000:00000000       __arm64x_extra_rfe_table   0000000000000000     <absolute>
 0000:00000000       __dynamic_value_reloc_table 0000000000000000     <absolute>
 0000:00000000       __AbsoluteZero             0000000000000000     <absolute>
 0000:00000000       __arm64x_extra_rfe_table_size 0000000000000000     <absolute>
 0000:00000000       __guard_fids_table         0000000000000000     <absolute>
 0000:00000000       __hybrid_auxiliary_iat     0000000000000000     <absolute>
 0000:00000100       __guard_flags              0000000000000100     <absolute>
 0000:00000000       __ImageBase                0000000140000000     <linker-defined>
 0001:00000600       ??8@YA_NAEBVQByteArray@@0@Z 0000000140001600 f i modeltest.obj
 0001:00000670       ??1QStringList@@QEAA@XZ    0000000140001670 f i modeltest.obj
 0001:00000680       ??$toString@VQModelIndex@@@QTest@@YAPEADAEBVQModelIndex@@@Z 0000000140001680 f i modeltest.obj
 0001:000006f0       ??0ModelTest@@QEAA@PEAVQAbstractItemModel@@PEAVQObject@@@Z 00000001400016f0 f   modeltest.obj
 0001:00000cf0       ??_GModelTest@@UEAAPEAXI@Z 0000000140001cf0 f i modeltest.obj
 0001:00000cf0       ??_EModelTest@@UEAAPEAXI@Z 0000000140001cf0 f i * CIL library *:* CIL module *
 0001:00000d90       ??1?$QStack@UChanging@ModelTest@@@@QEAA@XZ 0000000140001d90 f i modeltest.obj
 0001:00000dc0       ?runAllTests@ModelTest@@IEAAXXZ 0000000140001dc0 f   modeltest.obj
 0001:00000e10       ?nonDestructiveBasicTest@ModelTest@@AEAAXXZ 0000000140001e10 f   modeltest.obj
 0001:00001460       ?rowCount@ModelTest@@AEAAXXZ 0000000140002460 f   modeltest.obj
 0001:000015f0       ?columnCount@ModelTest@@AEAAXXZ 00000001400025f0 f   modeltest.obj
 0001:000016e0       ?hasIndex@ModelTest@@AEAAXXZ 00000001400026e0 f   modeltest.obj
 0001:00001950       ?index@ModelTest@@AEAAXXZ  0000000140002950 f   modeltest.obj
 0001:00001cd0       ?parent@ModelTest@@AEAAXXZ 0000000140002cd0 f   modeltest.obj
 0001:00001fb0       ?checkChildren@ModelTest@@AEAAXAEBVQModelIndex@@H@Z 0000000140002fb0 f   modeltest.obj
 0001:00002650       ?data@ModelTest@@AEAAXXZ   0000000140003650 f   modeltest.obj
 0001:00002e40       ??1Changing@ModelTest@@QEAA@XZ 0000000140003e40 f i modeltest.obj
 0001:00002e70       ?rowsInserted@ModelTest@@IEAAXAEBVQModelIndex@@HH@Z 0000000140003e70 f   modeltest.obj
 0001:00003070       ?layoutChanged@ModelTest@@IEAAXXZ 0000000140004070 f   modeltest.obj
 0001:000032a0       ?rowsRemoved@ModelTest@@IEAAXAEBVQModelIndex@@HH@Z 00000001400042a0 f   modeltest.obj
 0001:000034a0       ??1?$QMap@HVQVariant@@@@QEAA@XZ 00000001400044a0 f i modeltest.obj
 0001:00003520       ?push@?$QStack@UChanging@ModelTest@@@@QEAAXAEBUChanging@ModelTest@@@Z 0000000140004520 f i modeltest.obj
 0001:00003660       ?destroySubTree@?$QMapNode@HVQVariant@@@@QEAAXXZ 0000000140004660 f i modeltest.obj
 0001:000036a0       ??1?$QList@VQString@@@@QEAA@XZ 00000001400046a0 f i modeltest.obj
 0001:00003720       ??1?$QList@VQModelIndex@@@@QEAA@XZ 0000000140004720 f i modeltest.obj
 0001:00003750       ??1?$QList@VQPersistentModelIndex@@@@QEAA@XZ 0000000140004750 f i modeltest.obj
 0001:000037d0       ?append@?$QList@VQPersistentModelIndex@@@@QEAAXAEBVQPersistentModelIndex@@@Z 00000001400047d0 f i modeltest.obj
 0001:00003840       ?pop@?$QStack@UChanging@ModelTest@@@@QEAA?AUChanging@ModelTest@@XZ 0000000140004840 f i modeltest.obj
 0001:00003a40       ?freeData@?$QVector@UChanging@ModelTest@@@@AEAAXPEAU?$QTypedArrayData@UChanging@ModelTest@@@@@Z 0000000140004a40 f i modeltest.obj
 0001:00003ad0       ??0Changing@ModelTest@@QEAA@AEBU01@@Z 0000000140004ad0 f i modeltest.obj
 0001:00003b30       ??_GQVariant@@QEAAPEAXI@Z  0000000140004b30 f i modeltest.obj
 0001:00003b70       ??_GQString@@QEAAPEAXI@Z   0000000140004b70 f i modeltest.obj
 0001:00003b90       ?deallocate@?$QTypedArrayData@UChanging@ModelTest@@@@SAXPEAUQArrayData@@@Z 0000000140004b90 f i modeltest.obj
 0001:00003ba0       ?begin@?$QTypedArrayData@UChanging@ModelTest@@@@QEAAPEAUChanging@ModelTest@@PEAU23@@Z 0000000140004ba0 f i modeltest.obj
 0001:00003bb0       ?dealloc@?$QList@VQModelIndex@@@@AEAAXPEAUData@QListData@@@Z 0000000140004bb0 f i modeltest.obj
 0001:00003c10       ?detach_helper_grow@?$QList@VQPersistentModelIndex@@@@AEAAPEAUNode@1@HH@Z 0000000140004c10 f i modeltest.obj
 0001:00003d20       ?node_destruct@?$QList@VQPersistentModelIndex@@@@AEAAXPEAUNode@1@@Z 0000000140004d20 f i modeltest.obj
 0001:00003d30       ?detach@?$QVector@UChanging@ModelTest@@@@QEAAXXZ 0000000140004d30 f i modeltest.obj
 0001:00003db0       ?realloc@?$QVector@UChanging@ModelTest@@@@AEAAXHV?$QFlags@W4AllocationOption@QArrayData@@@@@Z 0000000140004db0 f i modeltest.obj
 0001:000040b0       ?destruct@?$QVector@UChanging@ModelTest@@@@AEAAXPEAUChanging@ModelTest@@0@Z 00000001400050b0 f i modeltest.obj
 0001:00004100       ??_GQPersistentModelIndex@@QEAAPEAXI@Z 0000000140005100 f i modeltest.obj
 0001:00004120       ?qt_metatype_id@?$QMetaTypeId2@V?$QFlags@W4AlignmentFlag@Qt@@@@@@SAHXZ 0000000140005120 f i modeltest.obj
 0001:00004290       ?node_destruct@?$QList@VQString@@@@AEAAXPEAUNode@1@0@Z 0000000140005290 f i modeltest.obj
 0001:000042d0       ?detach_helper@?$QList@VQPersistentModelIndex@@@@AEAAXH@Z 00000001400052d0 f i modeltest.obj
 0001:00004390       ?node_destruct@?$QList@VQPersistentModelIndex@@@@AEAAXPEAUNode@1@0@Z 0000000140005390 f i modeltest.obj
 0001:000043d0       ?node_copy@?$QList@VQPersistentModelIndex@@@@AEAAXPEAUNode@1@00@Z 00000001400053d0 f i modeltest.obj
 0001:00004430       ?Construct@?$QMetaTypeFunctionHelper@V?$QFlags@W4AlignmentFlag@Qt@@@@$00@QtMetaTypePrivate@@SAPEAXPEAXPEBX@Z 0000000140005430 f i modeltest.obj
 0001:00004430       ?Construct@?$QMetaTypeFunctionHelper@VMove@Chess@@$00@QtMetaTypePrivate@@SAPEAXPEAXPEBX@Z 0000000140005430 f i main.obj
 0001:00004450       ?Destruct@?$QMetaTypeFunctionHelper@PEAVQCPLayerable@@$00@QtMetaTypePrivate@@SAXPEAX@Z 0000000140005450 f i moc_qcustomplot.obj
 0001:00004450       ?Destruct@?$QMetaTypeFunctionHelper@PEAVQCPLegend@@$00@QtMetaTypePrivate@@SAXPEAX@Z 0000000140005450 f i moc_qcustomplot.obj
 0001:00004450       ?destroy@?$IteratorOwner@PEBVQString@@@QtMetaTypePrivate@@SAXPEAPEAX@Z 0000000140005450 f i moc_qcustomplot.obj
 0001:00004450       ?node_destruct@?$QList@N@@AEAAXPEAUNode@1@0@Z 0000000140005450 f i qcustomplot.obj
 0001:00004450       _initialize_invalid_parameter_handler 0000000140005450 f i MSVCRT:invalid_parameter_handler.obj
 0001:00004450       ?startPondering@ChessPlayer@@UEAAXXZ 0000000140005450 f i cutechess:chessplayer.obj
 0001:00004450       ?node_destruct@?$QList@PEAVGameThread@@@@AEAAXPEAUNode@1@0@Z 0000000140005450 f i cutechess:gamemanager.obj
 0001:00004450       ?deleteNode2@?$QHash@PEBVOpeningBook@@UQHashDummyValue@@@@CAXPEAUNode@QHashData@@@Z 0000000140005450 f i cutechess:tournament.obj
 0001:00004450       ?parentPlotInitialized@QCPLayerable@@MEAAXPEAVQCustomPlot@@@Z 0000000140005450 f i qcustomplot.obj
 0001:00004450       ?Destruct@?$QMetaTypeFunctionHelper@PEAVQCPAxis@@$00@QtMetaTypePrivate@@SAXPEAX@Z 0000000140005450 f i moc_qcustomplot.obj
 0001:00004450       ?node_destruct@?$QList@PEAVQCPLayer@@@@AEAAXPEAUNode@1@0@Z 0000000140005450 f i qcustomplot.obj
 0001:00004450       ?node_destruct@?$QList@PEAVQCPLayoutElement@@@@AEAAXPEAUNode@1@@Z 0000000140005450 f i qcustomplot.obj
 0001:00004450       ?Destruct@?$QMetaTypeFunctionHelper@PEAVChessGame@@$00@QtMetaTypePrivate@@SAXPEAX@Z 0000000140005450 f i mainwindow.obj
 0001:00004450       ?node_destruct@?$QList@PEAVQCPAbstractPlottable@@@@AEAAXPEAUNode@1@@Z 0000000140005450 f i qcustomplot.obj
 0001:00004450       ?qt_static_metacall@PyramidTournament@@CAXPEAVQObject@@W4Call@QMetaObject@@HPEAPEAX@Z 0000000140005450 f i cutechess:moc_pyramidtournament.obj
 0001:00004450       ?qt_static_metacall@BookExportTask@@CAXPEAVQObject@@W4Call@QMetaObject@@HPEAPEAX@Z 0000000140005450 f i gamedatabasedlg.obj
 0001:00004450       ?node_destruct@?$QList@PEAVEngineOption@@@@AEAAXPEAUNode@1@@Z 0000000140005450 f i engineconfigurationdlg.obj
 0001:00004450       ?simplify@QCPLayoutInset@@UEAAXXZ 0000000140005450 f i qcustomplot.obj
 0001:00004450       ?qt_static_metacall@QCPPlottableLegendItem@@CAXPEAVQObject@@W4Call@QMetaObject@@HPEAPEAX@Z 0000000140005450 f i moc_qcustomplot.obj
 0001:00004450       ?deselectEvent@QCPLayerable@@MEAAXPEA_N@Z 0000000140005450 f i qcustomplot.obj
 0001:00004450       ?destroy@?$IteratorOwner@PEBN@QtMetaTypePrivate@@SAXPEAPEAX@Z 0000000140005450 f i moc_qcustomplot.obj
 0001:00004450       ?Destruct@?$QMetaTypeFunctionHelper@W4SelectablePart@QCPAxis@@$00@QtMetaTypePrivate@@SAXPEAX@Z 0000000140005450 f i qcustomplot.obj
 0001:00004450       ?selectEvent@QCPLayerable@@MEAAXPEAVQMouseEvent@@_NAEBVQVariant@@PEA_N@Z 0000000140005450 f i qcustomplot.obj
 0001:00004450       ?node_destruct@?$QList@PEAVQCPAxis@@@@AEAAXPEAUNode@1@@Z 0000000140005450 f i qcustomplot.obj
 0001:00004450       ?node_destruct@?$QList@PEAVQCPAbstractPlottable@@@@AEAAXPEAUNode@1@0@Z 0000000140005450 f i qcustomplot.obj
 0001:00004450       ?node_destruct@?$QList@VQCPDataRange@@@@AEAAXPEAUNode@1@0@Z 0000000140005450 f i qcustomplot.obj
 0001:00004450       ?node_destruct@?$QList@PEAVQCPGraph@@@@AEAAXPEAUNode@1@0@Z 0000000140005450 f i qcustomplot.obj
 0001:00004450       ?qt_static_metacall@EngineConfigurationProxyModel@@CAXPEAVQObject@@W4Call@QMetaObject@@HPEAPEAX@Z 0000000140005450 f i moc_engineconfigproxymodel.obj
 0001:00004450       ?node_destruct@?$QList@PEAVGameWallWidget@@@@AEAAXPEAUNode@1@0@Z 0000000140005450 f i gamewall.obj
 0001:00004450       ?node_destruct@?$QList@PEAVQLayoutItem@@@@AEAAXPEAUNode@1@0@Z 0000000140005450 f i tilelayout.obj
 0001:00004450       ?Destruct@?$QMetaTypeFunctionHelper@PEAVQCPLayer@@$00@QtMetaTypePrivate@@SAXPEAX@Z 0000000140005450 f i moc_qcustomplot.obj
 0001:00004450       ?node_destruct@?$QList@H@@AEAAXPEAUNode@1@@Z 0000000140005450 f i qcustomplot.obj
 0001:00004450       ?Destruct@?$QMetaTypeFunctionHelper@PEAVQCPLayoutGrid@@$00@QtMetaTypePrivate@@SAXPEAX@Z 0000000140005450 f i moc_qcustomplot.obj
 0001:00004450       ?node_destruct@?$QList@PEAVQCPLayerable@@@@AEAAXPEAUNode@1@0@Z 0000000140005450 f i qcustomplot.obj
 0001:00004450       ?qt_static_metacall@KnockoutTournament@@CAXPEAVQObject@@W4Call@QMetaObject@@HPEAPEAX@Z 0000000140005450 f i cutechess:moc_knockouttournament.obj
 0001:00004450       ?onGameAboutToStart@Tournament@@MEAAXPEAVChessGame@@PEBVPlayerBuilder@@1@Z 0000000140005450 f i cutechess:tournament.obj
 0001:00004450       ?layoutChanged@QCPLayoutElement@@MEAAXXZ 0000000140005450 f i qcustomplot.obj
 0001:00004450       ?qt_static_metacall@QCPMarginGroup@@CAXPEAVQObject@@W4Call@QMetaObject@@HPEAPEAX@Z 0000000140005450 f i moc_qcustomplot.obj
 0001:00004450       ?node_destruct@?$QList@PEAVMainWindow@@@@AEAAXPEAUNode@1@@Z 0000000140005450 f i cutechessapp.obj
 0001:00004450       ?node_destruct@?$QList@PEAVQCPAxis@@@@AEAAXPEAUNode@1@0@Z 0000000140005450 f i qcustomplot.obj
 0001:00004450       ?node_destruct@?$QList@PEAVQCPLayoutElement@@@@AEAAXPEAUNode@1@0@Z 0000000140005450 f i qcustomplot.obj
 0001:00004450       ?node_destruct@?$QList@PEAVTournamentPair@@@@AEAAXPEAUNode@1@0@Z 0000000140005450 f i cutechess:knockouttournament.obj
 0001:00004450       ?node_destruct@?$QList@PEAVGameWallWidget@@@@AEAAXPEAUNode@1@@Z 0000000140005450 f i gamewall.obj
 0001:00004450       ?Destruct@?$QMetaTypeFunctionHelper@VQSequentialIterableImpl@QtMetaTypePrivate@@$00@QtMetaTypePrivate@@SAXPEAX@Z 0000000140005450 f i moc_qcustomplot.obj
 0001:00004450       ?node_destruct@?$QList@PEAVQCPLayer@@@@AEAAXPEAUNode@1@@Z 0000000140005450 f i qcustomplot.obj
 0001:00004450       ?Destruct@?$QMetaTypeFunctionHelper@PEAVQCPAbstractLegendItem@@$00@QtMetaTypePrivate@@SAXPEAX@Z 0000000140005450 f i moc_qcustomplot.obj
 0001:00004450       ?node_destruct@?$QList@PEBVPgnGameEntry@@@@AEAAXPEAUNode@1@@Z 0000000140005450 f i gamedatabasemanager.obj
 0001:00004450       ?node_destruct@?$QList@PEAVQCPGraph@@@@AEAAXPEAUNode@1@@Z 0000000140005450 f i qcustomplot.obj
 0001:00004450       ?Destruct@?$QMetaTypeFunctionHelper@PEAVQCPAxisRect@@$00@QtMetaTypePrivate@@SAXPEAX@Z 0000000140005450 f i moc_qcustomplot.obj
 0001:00004450       ?qt_static_metacall@PgnExportTask@@CAXPEAVQObject@@W4Call@QMetaObject@@HPEAPEAX@Z 0000000140005450 f i gamedatabasedlg.obj
 0001:00004450       ?node_destruct@?$QList@N@@AEAAXPEAUNode@1@@Z 0000000140005450 f i qcustomplot.obj
 0001:00004450       ?Destruct@?$QMetaTypeFunctionHelper@W4AxisType@QCPAxis@@$00@QtMetaTypePrivate@@SAXPEAX@Z 0000000140005450 f i moc_qcustomplot.obj
 0001:00004450       ?deleteNode2@?$QHash@W4MarginSide@QCP@@PEAVQCPMarginGroup@@@@CAXPEAUNode@QHashData@@@Z 0000000140005450 f i qcustomplot.obj
 0001:00004450       ?Destruct@?$QMetaTypeFunctionHelper@PEAVQCPSelectionDecorator@@$00@QtMetaTypePrivate@@SAXPEAX@Z 0000000140005450 f i moc_qcustomplot.obj
 0001:00004450       ?node_destruct@?$QList@PEAVChessGame@@@@AEAAXPEAUNode@1@0@Z 0000000140005450 f i gamewall.obj
 0001:00004450       ?Destruct@?$QMetaTypeFunctionHelper@PEAVQCPBarsGroup@@$00@QtMetaTypePrivate@@SAXPEAX@Z 0000000140005450 f i moc_qcustomplot.obj
 0001:00004450       ?node_destruct@?$QList@PEAVPgnDatabase@@@@AEAAXPEAUNode@1@@Z 0000000140005450 f i gamedatabasemanager.obj
 0001:00004450       ?qt_static_metacall@PgnDatabase@@CAXPEAVQObject@@W4Call@QMetaObject@@HPEAPEAX@Z 0000000140005450 f i moc_pgndatabase.obj
 0001:00004450       ?Destruct@?$QMetaTypeFunctionHelper@PEAVQCPGrid@@$00@QtMetaTypePrivate@@SAXPEAX@Z 0000000140005450 f i moc_qcustomplot.obj
 0001:00004450       ?node_destruct@?$QList@PEAVQCPAxisRect@@@@AEAAXPEAUNode@1@0@Z 0000000140005450 f i qcustomplot.obj
 0001:00004450       ?qt_static_metacall@TileLayout@@CAXPEAVQObject@@W4Call@QMetaObject@@HPEAPEAX@Z 0000000140005450 f i moc_tilelayout.obj
 0001:00004450       ?qt_static_metacall@EngineOptionModel@@CAXPEAVQObject@@W4Call@QMetaObject@@HPEAPEAX@Z 0000000140005450 f i moc_engineoptionmodel.obj
 0001:00004450       ?qt_static_metacall@TournamentSettingsWidget@@CAXPEAVQObject@@W4Call@QMetaObject@@HPEAPEAX@Z 0000000140005450 f i moc_tournamentsettingswidget.obj
 0001:00004450       ?node_destruct@?$QList@PEAVEngineOption@@@@AEAAXPEAUNode@1@0@Z 0000000140005450 f i engineconfigurationdlg.obj
 0001:00004450       ?qt_static_metacall@RoundRobinTournament@@CAXPEAVQObject@@W4Call@QMetaObject@@HPEAPEAX@Z 0000000140005450 f i cutechess:moc_roundrobintournament.obj
 0001:00004450       ?node_destruct@?$QList@PEAVPgnDatabase@@@@AEAAXPEAUNode@1@0@Z 0000000140005450 f i gamedatabasemanager.obj
 0001:00004450       ?node_destruct@?$QList@PEAVQCPLayerable@@@@AEAAXPEAUNode@1@@Z 0000000140005450 f i qcustomplot.obj
 0001:00004450       ?Destruct@?$QMetaTypeFunctionHelper@W4ScaleType@QCPAxis@@$00@QtMetaTypePrivate@@SAXPEAX@Z 0000000140005450 f i moc_qcustomplot.obj
 0001:00004450       ?Destruct@?$QMetaTypeFunctionHelper@PEAVQCPAbstractPlottable@@$00@QtMetaTypePrivate@@SAXPEAX@Z 0000000140005450 f i moc_qcustomplot.obj
 0001:00004450       ?node_destruct@?$QList@PEAVQCPBars@@@@AEAAXPEAUNode@1@0@Z 0000000140005450 f i qcustomplot.obj
 0001:00004450       ?node_destruct@?$QList@PEBVPgnGameEntry@@@@AEAAXPEAUNode@1@0@Z 0000000140005450 f i gamedatabasemanager.obj
 0001:00004450       ?node_destruct@?$QList@H@@AEAAXPEAUNode@1@0@Z 0000000140005450 f i qcustomplot.obj
 0001:00004450       ?node_destruct@?$QList@PEAVTournamentPair@@@@AEAAXPEAUNode@1@@Z 0000000140005450 f i cutechess:knockouttournament.obj
 0001:00004450       ?Destruct@?$QMetaTypeFunctionHelper@PEAVQCPGraph@@$00@QtMetaTypePrivate@@SAXPEAX@Z 0000000140005450 f i moc_qcustomplot.obj
 0001:00004450       ?node_destruct@?$QList@PEAVQLayoutItem@@@@AEAAXPEAUNode@1@@Z 0000000140005450 f i tilelayout.obj
 0001:00004450       ?qt_static_metacall@QCPLayoutInset@@CAXPEAVQObject@@W4Call@QMetaObject@@HPEAPEAX@Z 0000000140005450 f i moc_qcustomplot.obj
 0001:00004450       ?qt_static_metacall@GauntletTournament@@CAXPEAVQObject@@W4Call@QMetaObject@@HPEAPEAX@Z 0000000140005450 f i cutechess:moc_gauntlettournament.obj
 0001:00004450       ?node_destruct@?$QList@PEAVGameThread@@@@AEAAXPEAUNode@1@@Z 0000000140005450 f i cutechess:gamemanager.obj
 0001:00004450       ?node_destruct@?$QList@PEAVQCPAxisRect@@@@AEAAXPEAUNode@1@@Z 0000000140005450 f i qcustomplot.obj
 0001:00004450       ?qt_static_metacall@GameWallWidget@@CAXPEAVQObject@@W4Call@QMetaObject@@HPEAPEAX@Z 0000000140005450 f i gamewall.obj
 0001:00004450       ?Destruct@?$QMetaTypeFunctionHelper@V?$QFlags@W4AlignmentFlag@Qt@@@@$00@QtMetaTypePrivate@@SAXPEAX@Z 0000000140005450 f i modeltest.obj
 0001:00004450       _initialize_denormal_control 0000000140005450 f i MSVCRT:denormal_control.obj
 0001:00004450       ?Destruct@?$QMetaTypeFunctionHelper@W4RefreshPriority@QCustomPlot@@$00@QtMetaTypePrivate@@SAXPEAX@Z 0000000140005450 f i moc_qcustomplot.obj
 0001:00004450       ?Destruct@?$QMetaTypeFunctionHelper@W4SelectionType@QCP@@$00@QtMetaTypePrivate@@SAXPEAX@Z 0000000140005450 f i moc_qcustomplot.obj
 0001:00004450       ?node_destruct@?$QList@V?$QFlags@W4AlignmentFlag@Qt@@@@@@AEAAXPEAUNode@1@0@Z 0000000140005450 f i qcustomplot.obj
 0001:00004450       ?donePainting@QCPAbstractPaintBuffer@@UEAAXXZ 0000000140005450 f i qcustomplot.obj
 0001:00004450       ?node_destruct@?$QList@VQCPDataRange@@@@AEAAXPEAUNode@1@@Z 0000000140005450 f i qcustomplot.obj
 0001:00004450       ?node_destruct@?$QList@PEAVMainWindow@@@@AEAAXPEAUNode@1@0@Z 0000000140005450 f i cutechessapp.obj
 0001:00004450       ?qt_static_metacall@UciEngine@@CAXPEAVQObject@@W4Call@QMetaObject@@HPEAPEAX@Z 0000000140005450 f i cutechess:moc_uciengine.obj
 0001:00004450       ?Destruct@?$QMetaTypeFunctionHelper@PEAVQCPLayout@@$00@QtMetaTypePrivate@@SAXPEAX@Z 0000000140005450 f i moc_qcustomplot.obj
 0001:00004450       ?applyDefaultAntialiasingHint@QCPLayoutElement@@MEBAXPEAVQCPPainter@@@Z 0000000140005450 f i qcustomplot.obj
 0001:00004450       ?Destruct@?$QMetaTypeFunctionHelper@W4SelectablePart@QCPLegend@@$00@QtMetaTypePrivate@@SAXPEAX@Z 0000000140005450 f i qcustomplot.obj
 0001:00004450       ?Destruct@?$QMetaTypeFunctionHelper@PEAVQCPAbstractItem@@$00@QtMetaTypePrivate@@SAXPEAX@Z 0000000140005450 f i moc_qcustomplot.obj
 0001:00004450       ?qt_static_metacall@StringValidator@@CAXPEAVQObject@@W4Call@QMetaObject@@HPEAPEAX@Z 0000000140005450 f i moc_stringvalidator.obj
 0001:00004450       ?qt_static_metacall@QCPLayout@@CAXPEAVQObject@@W4Call@QMetaObject@@HPEAPEAX@Z 0000000140005450 f i moc_qcustomplot.obj
 0001:00004450       ?draw@QCPLayoutElement@@MEAAXPEAVQCPPainter@@@Z 0000000140005450 f i qcustomplot.obj
 0001:00004450       ?node_destruct@?$QList@V?$QFlags@W4AlignmentFlag@Qt@@@@@@AEAAXPEAUNode@1@@Z 0000000140005450 f i qcustomplot.obj
 0001:00004450       ?Destruct@?$QMetaTypeFunctionHelper@PEAVQCustomPlot@@$00@QtMetaTypePrivate@@SAXPEAX@Z 0000000140005450 f i moc_qcustomplot.obj
 0001:00004450       ?Destruct@?$QMetaTypeFunctionHelper@PEAVQCPBars@@$00@QtMetaTypePrivate@@SAXPEAX@Z 0000000140005450 f i moc_qcustomplot.obj
 0001:00004450       ?node_destruct@?$QList@PEAVQCPBars@@@@AEAAXPEAUNode@1@@Z 0000000140005450 f i qcustomplot.obj
 0001:00004450       _guard_check_icall_nop     0000000140005450 f i MSVCRT:guard_support.obj
 0001:00004450       ?Destruct@?$QMetaTypeFunctionHelper@VSide@Chess@@$00@QtMetaTypePrivate@@SAXPEAX@Z 0000000140005450 f i main.obj
 0001:00004450       ?qt_static_metacall@EngineSelectionDialog@@CAXPEAVQObject@@W4Call@QMetaObject@@HPEAPEAX@Z 0000000140005450 f i moc_engineselectiondlg.obj
 0001:00004450       ?node_destruct@?$QList@PEAVChessGame@@@@AEAAXPEAUNode@1@@Z 0000000140005450 f i cutechess:gamemanager.obj
 0001:00004450       ?Destruct@?$QMetaTypeFunctionHelper@PEAVQCPColorScale@@$00@QtMetaTypePrivate@@SAXPEAX@Z 0000000140005450 f i moc_qcustomplot.obj
 0001:00004450       ?Destruct@?$QMetaTypeFunctionHelper@VMove@Chess@@$00@QtMetaTypePrivate@@SAXPEAX@Z 0000000140005450 f i main.obj
 0001:00004450       ?clearPonderState@ChessPlayer@@UEAAXXZ 0000000140005450 f i cutechess:chessplayer.obj
 0001:00004450       ?Destruct@?$QMetaTypeFunctionHelper@VGenericMove@Chess@@$00@QtMetaTypePrivate@@SAXPEAX@Z 0000000140005450 f i main.obj
 0001:00004460       ?setupUi@Ui_BoardEditorDialog@@QEAAXPEAVQDialog@@@Z 0000000140005460 f i BoardEditor.obj
 0001:00004b40       ?retranslateUi@Ui_BoardEditorDialog@@QEAAXPEAVQDialog@@@Z 0000000140005b40 f i BoardEditor.obj
 0001:00004db0       ??_EQVBoxLayout@@UEAAPEAXI@Z 0000000140005db0 f i * CIL library *:* CIL module *
 0001:00004db0       ??_GQVBoxLayout@@UEAAPEAXI@Z 0000000140005db0 f i BoardEditor.obj
 0001:00004df0       ??_EQGraphicsView@@UEAAPEAXI@Z 0000000140005df0 f i * CIL library *:* CIL module *
 0001:00004df0       ??_GQGraphicsView@@UEAAPEAXI@Z 0000000140005df0 f i BoardEditor.obj
 0001:00004e30       ??_GQHBoxLayout@@UEAAPEAXI@Z 0000000140005e30 f i BoardEditor.obj
 0001:00004e30       ??_EQHBoxLayout@@UEAAPEAXI@Z 0000000140005e30 f i * CIL library *:* CIL module *
 0001:00004e70       ??_GQComboBox@@UEAAPEAXI@Z 0000000140005e70 f i BoardEditor.obj
 0001:00004e70       ??_EQComboBox@@UEAAPEAXI@Z 0000000140005e70 f i * CIL library *:* CIL module *
 0001:00004eb0       ??_GQLabel@@UEAAPEAXI@Z    0000000140005eb0 f i BoardEditor.obj
 0001:00004eb0       ??_EQLabel@@UEAAPEAXI@Z    0000000140005eb0 f i * CIL library *:* CIL module *
 0001:00004ef0       ??_GQDialogButtonBox@@UEAAPEAXI@Z 0000000140005ef0 f i BoardEditor.obj
 0001:00004ef0       ??_EQDialogButtonBox@@UEAAPEAXI@Z 0000000140005ef0 f i * CIL library *:* CIL module *
 0001:00004f30       ??0BoardEditorDlg@@QEAA@PEAVBoard@Chess@@PEAVQWidget@@@Z 0000000140005f30 f   BoardEditor.obj
 0001:00005230       ??_GBoardEditorDlg@@UEAAPEAXI@Z 0000000140006230 f i BoardEditor.obj
 0001:00005230       ??_EBoardEditorDlg@@UEAAPEAXI@Z 0000000140006230 f i * CIL library *:* CIL module *
 0001:00005290       ??1BoardEditorDlg@@UEAA@XZ 0000000140006290 f   BoardEditor.obj
 0001:000052cc       ??_EQLabel@@WBA@EAAPEAXI@Z 00000001400062cc f i BoardEditor.obj
 0001:000052d8       ??_EQComboBox@@WBA@EAAPEAXI@Z 00000001400062d8 f i BoardEditor.obj
 0001:000052e4       ??_EBoardEditorDlg@@WBA@EAAPEAXI@Z 00000001400062e4 f i BoardEditor.obj
 0001:000052f0       ??_EQGraphicsView@@WBA@EAAPEAXI@Z 00000001400062f0 f i BoardEditor.obj
 0001:000052fc       ??_EQVBoxLayout@@WBA@EAAPEAXI@Z 00000001400062fc f i BoardEditor.obj
 0001:00005308       ??_EQDialogButtonBox@@WBA@EAAPEAXI@Z 0000000140006308 f i BoardEditor.obj
 0001:00005314       ??_EQHBoxLayout@@WBA@EAAPEAXI@Z 0000000140006314 f i BoardEditor.obj
 0001:00005320       ??H@YA?BVQString@@AEBV0@PEBD@Z 0000000140006320 f i BasicBoardScene.obj
 0001:00005390       ?setSquare@Board@Chess@@QEAAXHVPiece@2@@Z 0000000140006390 f i BasicBoardScene.obj
 0001:00005460       ??0BasicBoardScene@@QEAA@PEAVQObject@@@Z 0000000140006460 f   BasicBoardScene.obj
 0001:000056e0       ??_GQSvgRenderer@@UEAAPEAXI@Z 00000001400066e0 f i BasicBoardScene.obj
 0001:000056e0       ??_EQSvgRenderer@@UEAAPEAXI@Z 00000001400066e0 f i * CIL library *:* CIL module *
 0001:00005720       ??_GBasicBoardScene@@UEAAPEAXI@Z 0000000140006720 f i BasicBoardScene.obj
 0001:00005720       ??_EBasicBoardScene@@UEAAPEAXI@Z 0000000140006720 f i * CIL library *:* CIL module *
 0001:00005790       ??1PgnGame@@QEAA@XZ        0000000140006790 f i BasicBoardScene.obj
 0001:00005810       ?fenString@BasicBoardScene@@QEBA?AVQString@@XZ 0000000140006810 f   BasicBoardScene.obj
 0001:00005b20       ?populate@BasicBoardScene@@QEAAXH@Z 0000000140006b20 f   BasicBoardScene.obj
 0001:000060d0       ?flip@BasicBoardScene@@QEAAXXZ 00000001400070d0 f   BasicBoardScene.obj
 0001:000062c0       ??_EQParallelAnimationGroup@@UEAAPEAXI@Z 00000001400072c0 f i * CIL library *:* CIL module *
 0001:000062c0       ??_GQParallelAnimationGroup@@UEAAPEAXI@Z 00000001400072c0 f i BasicBoardScene.obj
 0001:00006300       ?mousePressEvent@BasicBoardScene@@MEAAXPEAVQGraphicsSceneMouseEvent@@@Z 0000000140007300 f   BasicBoardScene.obj
 0001:00006410       ?mouseReleaseEvent@BasicBoardScene@@MEAAXPEAVQGraphicsSceneMouseEvent@@@Z 0000000140007410 f   BasicBoardScene.obj
 0001:000068a0       ?pieceAt@BoardScene@@AEBAPEAVGraphicsPiece@@AEBVQPointF@@@Z 00000001400078a0 f   boardscene.obj
 0001:000068a0       ?pieceAt@BasicBoardScene@@AEBAPEAVGraphicsPiece@@AEBVQPointF@@@Z 00000001400078a0 f   BasicBoardScene.obj
 0001:000069a0       ??1?$unique_ptr@VBoard@Chess@@U?$default_delete@VBoard@Chess@@@std@@@std@@QEAA@XZ 00000001400079a0 f i BasicBoardScene.obj
 0001:000069c0       ??1?$QVector@UMoveData@PgnGame@@@@QEAA@XZ 00000001400079c0 f i BasicBoardScene.obj
 0001:000069f0       ??1?$QMap@VQString@@V1@@@QEAA@XZ 00000001400079f0 f i BasicBoardScene.obj
 0001:00006a20       ?destroy@?$QMapData@VQString@@V1@@@QEAAXXZ 0000000140007a20 f i BasicBoardScene.obj
 0001:00006a90       ?destroySubTree@?$QMapNode@VQString@@V1@@@QEAAXXZ 0000000140007a90 f i BasicBoardScene.obj
 0001:00006ae0       ??1?$QList@PEAVGameWallWidget@@@@QEAA@XZ 0000000140007ae0 f i gamewall.obj
 0001:00006ae0       ??1?$QList@H@@QEAA@XZ      0000000140007ae0 f i qcustomplot.obj
 0001:00006ae0       ??1?$QList@PEAVEngineOption@@@@QEAA@XZ 0000000140007ae0 f i engineconfigurationdlg.obj
 0001:00006ae0       ??1?$QList@PEAVQGraphicsItem@@@@QEAA@XZ 0000000140007ae0 f i BasicBoardScene.obj
 0001:00006ae0       ??1?$QList@PEAVQCPGraph@@@@QEAA@XZ 0000000140007ae0 f i qcustomplot.obj
 0001:00006ae0       ??1?$QList@PEAVMainWindow@@@@QEAA@XZ 0000000140007ae0 f i cutechessapp.obj
 0001:00006ae0       ??1?$QList@PEAVQCPLayer@@@@QEAA@XZ 0000000140007ae0 f i qcustomplot.obj
 0001:00006ae0       ??1?$QList@PEAVQCPLayoutElement@@@@QEAA@XZ 0000000140007ae0 f i qcustomplot.obj
 0001:00006ae0       ??1?$QList@PEAVQCPAxisRect@@@@QEAA@XZ 0000000140007ae0 f i qcustomplot.obj
 0001:00006ae0       ??1?$QList@PEAVQLayoutItem@@@@QEAA@XZ 0000000140007ae0 f i tilelayout.obj
 0001:00006ae0       ??1?$QList@PEAVQCPAxis@@@@QEAA@XZ 0000000140007ae0 f i qcustomplot.obj
 0001:00006ae0       ??1?$QList@PEAVQCPAbstractPlottable@@@@QEAA@XZ 0000000140007ae0 f i qcustomplot.obj
 0001:00006ae0       ??1?$QList@PEAVChessGame@@@@QEAA@XZ 0000000140007ae0 f i gamewall.obj
 0001:00006ae0       ??1?$QList@PEAVTournamentPair@@@@QEAA@XZ 0000000140007ae0 f i cutechess:knockouttournament.obj
 0001:00006ae0       ??1?$QList@PEAVPgnDatabase@@@@QEAA@XZ 0000000140007ae0 f i gamedatabasemanager.obj
 0001:00006ae0       ??1?$QList@VQCPDataRange@@@@QEAA@XZ 0000000140007ae0 f i qcustomplot.obj
 0001:00006ae0       ??1?$QList@PEAVQCPLayerable@@@@QEAA@XZ 0000000140007ae0 f i qcustomplot.obj
 0001:00006ae0       ??1?$QList@PEAVQCPAbstractItem@@@@QEAA@XZ 0000000140007ae0 f i qcustomplot.obj
 0001:00006ae0       ??1?$QList@PEBVPgnGameEntry@@@@QEAA@XZ 0000000140007ae0 f i gamedatabasemanager.obj
 0001:00006b10       ?freeData@?$QVector@UMoveData@PgnGame@@@@AEAAXPEAU?$QTypedArrayData@UMoveData@PgnGame@@@@@Z 0000000140007b10 f i BasicBoardScene.obj
 0001:00006ba0       ?deallocate@?$QTypedArrayData@UMoveData@PgnGame@@@@SAXPEAUQArrayData@@@Z 0000000140007ba0 f i BasicBoardScene.obj
 0001:00006bb0       ?detach_helper@?$QList@PEAVPgnDatabase@@@@AEAAXH@Z 0000000140007bb0 f i gamedatabasemanager.obj
 0001:00006bb0       ?detach_helper@?$QList@PEAVTournamentPair@@@@AEAAXH@Z 0000000140007bb0 f i cutechess:knockouttournament.obj
 0001:00006bb0       ?detach_helper@?$QList@PEAVQCPGraph@@@@AEAAXH@Z 0000000140007bb0 f i qcustomplot.obj
 0001:00006bb0       ?detach_helper@?$QList@PEAVQCPAxis@@@@AEAAXH@Z 0000000140007bb0 f i qcustomplot.obj
 0001:00006bb0       ?detach_helper@?$QList@PEAVGameWallWidget@@@@AEAAXH@Z 0000000140007bb0 f i gamewall.obj
 0001:00006bb0       ?detach_helper@?$QList@PEAVQCPBars@@@@AEAAXH@Z 0000000140007bb0 f i qcustomplot.obj
 0001:00006bb0       ?detach_helper@?$QList@PEAVQCPLayerable@@@@AEAAXH@Z 0000000140007bb0 f i qcustomplot.obj
 0001:00006bb0       ?detach_helper@?$QList@PEAVQCPLayoutElement@@@@AEAAXH@Z 0000000140007bb0 f i qcustomplot.obj
 0001:00006bb0       ?detach_helper@?$QList@N@@AEAAXH@Z 0000000140007bb0 f i qcustomplot.obj
 0001:00006bb0       ?detach_helper@?$QList@V?$QFlags@W4AlignmentFlag@Qt@@@@@@AEAAXH@Z 0000000140007bb0 f i qcustomplot.obj
 0001:00006bb0       ?detach_helper@?$QList@PEAVQCPAbstractItem@@@@AEAAXH@Z 0000000140007bb0 f i qcustomplot.obj
 0001:00006bb0       ?detach_helper@?$QList@PEAVGameThread@@@@AEAAXH@Z 0000000140007bb0 f i cutechess:gamemanager.obj
 0001:00006bb0       ?detach_helper@?$QList@PEAVQGraphicsItem@@@@AEAAXH@Z 0000000140007bb0 f i BasicBoardScene.obj
 0001:00006bb0       ?detach_helper@?$QList@H@@AEAAXH@Z 0000000140007bb0 f i qcustomplot.obj
 0001:00006bb0       ?detach_helper@?$QList@PEAVQLayoutItem@@@@AEAAXH@Z 0000000140007bb0 f i tilelayout.obj
 0001:00006bb0       ?detach_helper@?$QList@PEAVQCPAbstractPlottable@@@@AEAAXH@Z 0000000140007bb0 f i qcustomplot.obj
 0001:00006bb0       ?detach_helper@?$QList@PEAVChessGame@@@@AEAAXH@Z 0000000140007bb0 f i cutechess:gamemanager.obj
 0001:00006c40       ?Destruct@?$QMetaTypeFunctionHelper@UstCaptureMsg@@$00@QtMetaTypePrivate@@SAXPEAX@Z 0000000140007c40 f i main.obj
 0001:00006c40       ??1stCaptureMsg@@QEAA@XZ   0000000140007c40 f i capture.obj
 0001:00006c40       ??1MoveData@PgnGame@@QEAA@XZ 0000000140007c40 f i BasicBoardScene.obj
 0001:00006c40       ??1JsonParser@@QEAA@XZ     0000000140007c40 f i cutechess:enginemanager.obj
 0001:00006c70       ?node_copy@?$QList@PEAVQCPAbstractItem@@@@AEAAXPEAUNode@1@00@Z 0000000140007c70 f i qcustomplot.obj
 0001:00006c70       ?node_copy@?$QList@PEAVEngineOption@@@@AEAAXPEAUNode@1@00@Z 0000000140007c70 f i engineconfigurationdlg.obj
 0001:00006c70       ?node_copy@?$QList@PEAVChessGame@@@@AEAAXPEAUNode@1@00@Z 0000000140007c70 f i cutechess:gamemanager.obj
 0001:00006c70       ?node_copy@?$QList@PEAVQLayoutItem@@@@AEAAXPEAUNode@1@00@Z 0000000140007c70 f i tilelayout.obj
 0001:00006c70       ?node_copy@?$QList@PEAVQCPAxis@@@@AEAAXPEAUNode@1@00@Z 0000000140007c70 f i qcustomplot.obj
 0001:00006c70       ?node_copy@?$QList@PEAVGameThread@@@@AEAAXPEAUNode@1@00@Z 0000000140007c70 f i cutechess:gamemanager.obj
 0001:00006c70       ?node_copy@?$QList@PEAVQCPGraph@@@@AEAAXPEAUNode@1@00@Z 0000000140007c70 f i qcustomplot.obj
 0001:00006c70       ?node_copy@?$QList@PEAVMainWindow@@@@AEAAXPEAUNode@1@00@Z 0000000140007c70 f i cutechessapp.obj
 0001:00006c70       ?node_copy@?$QList@PEBVPgnGameEntry@@@@AEAAXPEAUNode@1@00@Z 0000000140007c70 f i gamedatabasemanager.obj
 0001:00006c70       ?node_copy@?$QList@H@@AEAAXPEAUNode@1@00@Z 0000000140007c70 f i qcustomplot.obj
 0001:00006c70       ?node_copy@?$QList@PEAVQCPAxisRect@@@@AEAAXPEAUNode@1@00@Z 0000000140007c70 f i qcustomplot.obj
 0001:00006c70       ?node_copy@?$QList@PEAVQCPLayoutElement@@@@AEAAXPEAUNode@1@00@Z 0000000140007c70 f i qcustomplot.obj
 0001:00006c70       ?node_copy@?$QList@PEAVTournamentPair@@@@AEAAXPEAUNode@1@00@Z 0000000140007c70 f i cutechess:knockouttournament.obj
 0001:00006c70       ?node_copy@?$QList@PEAVQCPLayer@@@@AEAAXPEAUNode@1@00@Z 0000000140007c70 f i qcustomplot.obj
 0001:00006c70       ?node_copy@?$QList@PEAVQCPAbstractPlottable@@@@AEAAXPEAUNode@1@00@Z 0000000140007c70 f i qcustomplot.obj
 0001:00006c70       ?node_copy@?$QList@N@@AEAAXPEAUNode@1@00@Z 0000000140007c70 f i qcustomplot.obj
 0001:00006c70       ?node_copy@?$QList@PEAVQCPLayerable@@@@AEAAXPEAUNode@1@00@Z 0000000140007c70 f i qcustomplot.obj
 0001:00006c70       ?node_copy@?$QList@V?$QFlags@W4AlignmentFlag@Qt@@@@@@AEAAXPEAUNode@1@00@Z 0000000140007c70 f i qcustomplot.obj
 0001:00006c70       ?node_copy@?$QList@PEAVQGraphicsItem@@@@AEAAXPEAUNode@1@00@Z 0000000140007c70 f i BasicBoardScene.obj
 0001:00006c70       ?node_copy@?$QList@PEAVGameWallWidget@@@@AEAAXPEAUNode@1@00@Z 0000000140007c70 f i gamewall.obj
 0001:00006c70       ?node_copy@?$QList@PEAVQCPBars@@@@AEAAXPEAUNode@1@00@Z 0000000140007c70 f i qcustomplot.obj
 0001:00006c70       ?node_copy@?$QList@PEAVPgnDatabase@@@@AEAAXPEAUNode@1@00@Z 0000000140007c70 f i gamedatabasemanager.obj
 0001:00006ca0       ??0BoardScene@@QEAA@PEAVQObject@@@Z 0000000140007ca0 f   boardscene.obj
 0001:00006de0       ??_GBoardScene@@UEAAPEAXI@Z 0000000140007de0 f i boardscene.obj
 0001:00006de0       ??_EBoardScene@@UEAAPEAXI@Z 0000000140007de0 f i * CIL library *:* CIL module *
 0001:00006e20       ??1BoardTransition@Chess@@QEAA@XZ 0000000140007e20 f i boardscene.obj
 0001:00006e80       ??1?$QPointer@VQCPGraph@@@@QEAA@XZ 0000000140007e80 f i qcustomplot.obj
 0001:00006e80       ??1?$QPointer@VMainWindow@@@@QEAA@XZ 0000000140007e80 f i cutechessapp.obj
 0001:00006e80       ??1?$QPointer@VQAbstractAnimation@@@@QEAA@XZ 0000000140007e80 f i boardscene.obj
 0001:00006e80       ??1?$QPointer@VChessPlayer@@@@QEAA@XZ 0000000140007e80 f i evalwidget.obj
 0001:00006e80       ??1?$QPointer@VQCPAxis@@@@QEAA@XZ 0000000140007e80 f i qcustomplot.obj
 0001:00006e80       ??1?$QPointer@VPieceChooser@@@@QEAA@XZ 0000000140007e80 f i boardscene.obj
 0001:00006e80       ??1?$QPointer@VGameWall@@@@QEAA@XZ 0000000140007e80 f i cutechessapp.obj
 0001:00006e80       ??1?$QPointer@VChessGame@@@@QEAA@XZ 0000000140007e80 f i evalhistory.obj
 0001:00006e80       ??1?$QPointer@VQCPLayerable@@@@QEAA@XZ 0000000140007e80 f i qcustomplot.obj
 0001:00006e80       ??1?$QPointer@VGameThread@@@@QEAA@XZ 0000000140007e80 f i cutechess:gamemanager.obj
 0001:00006eb0       ??1BoardScene@@UEAA@XZ     0000000140007eb0 f   boardscene.obj
 0001:00006fe0       ?setBoard@BoardScene@@QEAAXPEAVBoard@Chess@@@Z 0000000140007fe0 f   boardscene.obj
 0001:00007140       ?populate@BoardScene@@QEAAXXZ 0000000140008140 f   boardscene.obj
 0001:00007360       ?setFenString@BoardScene@@QEAAXAEBVQString@@@Z 0000000140008360 f   boardscene.obj
 0001:000073d0       ?makeMove@BoardScene@@QEAAXAEBVMove@Chess@@@Z 00000001400083d0 f   boardscene.obj
 0001:00007540       ??_GQGraphicsItemGroup@@UEAAPEAXI@Z 0000000140008540 f i boardscene.obj
 0001:00007540       ??_EQGraphicsItemGroup@@UEAAPEAXI@Z 0000000140008540 f i * CIL library *:* CIL module *
 0001:00007580       ?undoMove@BoardScene@@QEAAXXZ 0000000140008580 f   boardscene.obj
 0001:00007640       ?flip@BoardScene@@QEAAXXZ  0000000140008640 f   boardscene.obj
 0001:000078c0       ?mouseMoveEvent@BoardScene@@MEAAXPEAVQGraphicsSceneMouseEvent@@@Z 00000001400088c0 f   boardscene.obj
 0001:00007b60       ?mousePressEvent@BoardScene@@MEAAXPEAVQGraphicsSceneMouseEvent@@@Z 0000000140008b60 f   boardscene.obj
 0001:00007cf0       ?mouseReleaseEvent@BoardScene@@MEAAXPEAVQGraphicsSceneMouseEvent@@@Z 0000000140008cf0 f   boardscene.obj
 0001:00007d90       ?onTransitionFinished@BoardScene@@AEAAXXZ 0000000140008d90 f   boardscene.obj
 0001:00008020       ?onGameFinished@BoardScene@@QEAAXPEAVChessGame@@VResult@Chess@@@Z 0000000140009020 f   boardscene.obj
 0001:00008540       ??1Result@Chess@@QEAA@XZ   0000000140009540 f i boardscene.obj
 0001:00008540       ?Destruct@?$QMetaTypeFunctionHelper@VResult@Chess@@$00@QtMetaTypePrivate@@SAXPEAX@Z 0000000140009540 f i main.obj
 0001:00008550       ??_GQGraphicsTextItem@@UEAAPEAXI@Z 0000000140009550 f i boardscene.obj
 0001:00008550       ??_EQGraphicsTextItem@@UEAAPEAXI@Z 0000000140009550 f i * CIL library *:* CIL module *
 0001:00008590       ??_EQSequentialAnimationGroup@@UEAAPEAXI@Z 0000000140009590 f i * CIL library *:* CIL module *
 0001:00008590       ??_GQSequentialAnimationGroup@@UEAAPEAXI@Z 0000000140009590 f i boardscene.obj
 0001:000085d0       ??_EQPropertyAnimation@@UEAAPEAXI@Z 00000001400095d0 f i * CIL library *:* CIL module *
 0001:000085d0       ??_GQPropertyAnimation@@UEAAPEAXI@Z 00000001400095d0 f i boardscene.obj
 0001:00008610       ?createPiece@BoardScene@@AEAAPEAVGraphicsPiece@@AEBVPiece@Chess@@@Z 0000000140009610 f   boardscene.obj
 0001:00008790       ?pieceAnimation@BoardScene@@AEBAPEAVQPropertyAnimation@@PEAVGraphicsPiece@@AEBVQPointF@@@Z 0000000140009790 f   boardscene.obj
 0001:00008980       ?stopAnimation@BoardScene@@AEAAXXZ 0000000140009980 f   boardscene.obj
 0001:00008a20       ?tryMove@BoardScene@@AEAAXPEAVGraphicsPiece@@AEBVQPointF@@@Z 0000000140009a20 f   boardscene.obj
 0001:00008ca0       ?addMoveArrow@BoardScene@@AEAAXAEBVQPointF@@0@Z 0000000140009ca0 f   boardscene.obj
 0001:00008eb0       ??_EQGraphicsPolygonItem@@UEAAPEAXI@Z 0000000140009eb0 f i * CIL library *:* CIL module *
 0001:00008eb0       ??_GQGraphicsPolygonItem@@UEAAPEAXI@Z 0000000140009eb0 f i boardscene.obj
 0001:00008ef0       ?applyTransition@BoardScene@@AEAAXAEBVBoardTransition@Chess@@W4MoveDirection@1@@Z 0000000140009ef0 f   boardscene.obj
 0001:00009540       ?updateMoves@BoardScene@@AEAAXXZ 000000014000a540 f   boardscene.obj
 0001:00009a10       ??1?$QVector@H@@QEAA@XZ    000000014000aa10 f i engineconfigurationmodel.obj
 0001:00009a10       ??1?$QVector@W4MarginSide@QCP@@@@QEAA@XZ 000000014000aa10 f i qcustomplot.obj
 0001:00009a10       ??1?$QVector@VMove@Chess@@@@QEAA@XZ 000000014000aa10 f i boardscene.obj
 0001:00009a70       ??_GExternalRefCountData@QtSharedPointer@@QEAAPEAXI@Z 000000014000aa70 f i boardscene.obj
 0001:00009ad0       ??1?$QList@UMove@BoardTransition@Chess@@@@QEAA@XZ 000000014000aad0 f i boardscene.obj
 0001:00009ad0       ??1?$QList@VGenericMove@Chess@@@@QEAA@XZ 000000014000aad0 f i boardscene.obj
 0001:00009ad0       ??1?$QList@VQCPRange@@@@QEAA@XZ 000000014000aad0 f i qcustomplot.obj
 0001:00009b00       ??1?$QList@VSquare@Chess@@@@QEAA@XZ 000000014000ab00 f i boardscene.obj
 0001:00009b30       ??1?$QList@VBoardTransition@Chess@@@@QEAA@XZ 000000014000ab30 f i boardscene.obj
 0001:00009b60       ?clear@?$QList@VBoardTransition@Chess@@@@QEAAXXZ 000000014000ab60 f i boardscene.obj
 0001:00009c70       ?append@?$QList@VBoardTransition@Chess@@@@QEAAXAEBVBoardTransition@Chess@@@Z 000000014000ac70 f i boardscene.obj
 0001:00009cf0       ?takeLast@?$QList@VBoardTransition@Chess@@@@QEAA?AVBoardTransition@Chess@@XZ 000000014000acf0 f i boardscene.obj
 0001:00009eb0       ??0?$QList@VGenericMove@Chess@@@@QEAA@AEBV0@@Z 000000014000aeb0 f i boardscene.obj
 0001:00009eb0       ??0?$QList@UMove@BoardTransition@Chess@@@@QEAA@AEBV0@@Z 000000014000aeb0 f i boardscene.obj
 0001:00009f40       ?append@?$QList@VQCPRange@@@@QEAAXAEBVQCPRange@@@Z 000000014000af40 f i qcustomplot.obj
 0001:00009f40       ?append@?$QList@VGenericMove@Chess@@@@QEAAXAEBVGenericMove@Chess@@@Z 000000014000af40 f i boardscene.obj
 0001:00009f40       ?append@?$QList@UMove@BoardTransition@Chess@@@@QEAAXAEBUMove@BoardTransition@Chess@@@Z 000000014000af40 f i cutechess:boardtransition.obj
 0001:00009fb0       ?createNode@?$QMapData@U?$QPair@HH@@PEAVTournamentPair@@@@QEAAPEAU?$QMapNode@U?$QPair@HH@@PEAVTournamentPair@@@@AEBU?$QPair@HH@@AEBQEAVTournamentPair@@PEAU2@_N@Z 000000014000afb0 f i cutechess:tournament.obj
 0001:00009fb0       ?createNode@?$QMapData@PEAVChessGame@@PEAUGameData@Tournament@@@@QEAAPEAU?$QMapNode@PEAVChessGame@@PEAUGameData@Tournament@@@@AEBQEAVChessGame@@AEBQEAUGameData@Tournament@@PEAU2@_N@Z 000000014000afb0 f i cutechess:tournament.obj
 0001:00009fb0       ?createNode@?$QMapData@PEAVGraphicsPiece@@VSquare@Chess@@@@QEAAPEAU?$QMapNode@PEAVGraphicsPiece@@VSquare@Chess@@@@AEBQEAVGraphicsPiece@@AEBVSquare@Chess@@PEAU2@_N@Z 000000014000afb0 f i boardscene.obj
 0001:00009fb0       ?createNode@?$QMapData@PEAVChessGame@@PEAVGameWallWidget@@@@QEAAPEAU?$QMapNode@PEAVChessGame@@PEAVGameWallWidget@@@@AEBQEAVChessGame@@AEBQEAVGameWallWidget@@PEAU2@_N@Z 000000014000afb0 f i gamewall.obj
 0001:0000a000       ?deallocate@?$QTypedArrayData@H@@SAXPEAUQArrayData@@@Z 000000014000b000 f i engineconfigurationmodel.obj
 0001:0000a000       ?deallocate@?$QTypedArrayData@VMove@Chess@@@@SAXPEAUQArrayData@@@Z 000000014000b000 f i boardscene.obj
 0001:0000a000       ?deallocate@?$QTypedArrayData@W4MarginSide@QCP@@@@SAXPEAUQArrayData@@@Z 000000014000b000 f i qcustomplot.obj
 0001:0000a010       ?dealloc@?$QList@VGenericMove@Chess@@@@AEAAXPEAUData@QListData@@@Z 000000014000b010 f i boardscene.obj
 0001:0000a010       ?dealloc@?$QList@VQCPRange@@@@AEAAXPEAUData@QListData@@@Z 000000014000b010 f i qcustomplot.obj
 0001:0000a010       ?dealloc@?$QList@UMove@BoardTransition@Chess@@@@AEAAXPEAUData@QListData@@@Z 000000014000b010 f i boardscene.obj
 0001:0000a070       ??0?$QList@VSquare@Chess@@@@QEAA@AEBV0@@Z 000000014000b070 f i boardscene.obj
 0001:0000a100       ?append@?$QList@VSquare@Chess@@@@QEAAXAEBVSquare@Chess@@@Z 000000014000b100 f i boardscene.obj
 0001:0000a170       ?dealloc@?$QList@VSquare@Chess@@@@AEAAXPEAUData@QListData@@@Z 000000014000b170 f i boardscene.obj
 0001:0000a1d0       ?detach_helper_grow@?$QList@VBoardTransition@Chess@@@@AEAAPEAUNode@1@HH@Z 000000014000b1d0 f i boardscene.obj
 0001:0000a2b0       ?dealloc@?$QList@VBoardTransition@Chess@@@@AEAAXPEAUData@QListData@@@Z 000000014000b2b0 f i boardscene.obj
 0001:0000a340       ?node_construct@?$QList@VBoardTransition@Chess@@@@AEAAXPEAUNode@1@AEBVBoardTransition@Chess@@@Z 000000014000b340 f i boardscene.obj
 0001:0000a3a0       ?detach_helper_grow@?$QList@VQCPRange@@@@AEAAPEAUNode@1@HH@Z 000000014000b3a0 f i qcustomplot.obj
 0001:0000a3a0       ?detach_helper_grow@?$QList@VGenericMove@Chess@@@@AEAAPEAUNode@1@HH@Z 000000014000b3a0 f i boardscene.obj
 0001:0000a3a0       ?detach_helper_grow@?$QList@UMove@BoardTransition@Chess@@@@AEAAPEAUNode@1@HH@Z 000000014000b3a0 f i cutechess:boardtransition.obj
 0001:0000a480       ?node_copy@?$QList@UMove@BoardTransition@Chess@@@@AEAAXPEAUNode@1@00@Z 000000014000b480 f i boardscene.obj
 0001:0000a480       ?node_copy@?$QList@VQCPRange@@@@AEAAXPEAUNode@1@00@Z 000000014000b480 f i qcustomplot.obj
 0001:0000a480       ?node_copy@?$QList@VGenericMove@Chess@@@@AEAAXPEAUNode@1@00@Z 000000014000b480 f i boardscene.obj
 0001:0000a4f0       ??_GBoardTransition@Chess@@QEAAPEAXI@Z 000000014000b4f0 f i boardscene.obj
 0001:0000a520       ?node_destruct@?$QList@VQCPRange@@@@AEAAXPEAUNode@1@0@Z 000000014000b520 f i qcustomplot.obj
 0001:0000a520       ?node_destruct@?$QList@VGenericMove@Chess@@@@AEAAXPEAUNode@1@0@Z 000000014000b520 f i boardscene.obj
 0001:0000a520       ?node_destruct@?$QList@UMove@BoardTransition@Chess@@@@AEAAXPEAUNode@1@0@Z 000000014000b520 f i boardscene.obj
 0001:0000a570       ?detach_helper_grow@?$QList@VSquare@Chess@@@@AEAAPEAUNode@1@HH@Z 000000014000b570 f i boardscene.obj
 0001:0000a650       ?node_destruct@?$QList@VSquare@Chess@@@@AEAAXPEAUNode@1@0@Z 000000014000b650 f i boardscene.obj
 0001:0000a6a0       ?node_copy@?$QList@VSquare@Chess@@@@AEAAXPEAUNode@1@00@Z 000000014000b6a0 f i boardscene.obj
 0001:0000a710       ?detach_helper@?$QList@VBoardTransition@Chess@@@@AEAAXH@Z 000000014000b710 f i boardscene.obj
 0001:0000a7a0       ?node_destruct@?$QList@VBoardTransition@Chess@@@@AEAAXPEAUNode@1@0@Z 000000014000b7a0 f i boardscene.obj
 0001:0000a800       ?node_copy@?$QList@VBoardTransition@Chess@@@@AEAAXPEAUNode@1@00@Z 000000014000b800 f i boardscene.obj
 0001:0000a880       ?copy@?$QMapNode@PEAVChessGame@@PEAVGameWallWidget@@@@QEBAPEAU1@PEAU?$QMapData@PEAVChessGame@@PEAVGameWallWidget@@@@@Z 000000014000b880 f i gamewall.obj
 0001:0000a880       ?copy@?$QMapNode@U?$QPair@HH@@PEAVTournamentPair@@@@QEBAPEAU1@PEAU?$QMapData@U?$QPair@HH@@PEAVTournamentPair@@@@@Z 000000014000b880 f i cutechess:tournament.obj
 0001:0000a880       ?copy@?$QMapNode@PEAVGraphicsPiece@@VSquare@Chess@@@@QEBAPEAU1@PEAU?$QMapData@PEAVGraphicsPiece@@VSquare@Chess@@@@@Z 000000014000b880 f i boardscene.obj
 0001:0000a880       ?copy@?$QMapNode@PEAVChessGame@@PEAUGameData@Tournament@@@@QEBAPEAU1@PEAU?$QMapData@PEAVChessGame@@PEAUGameData@Tournament@@@@@Z 000000014000b880 f i cutechess:tournament.obj
 0001:0000a93c       ??_EQGraphicsTextItem@@WBA@EAAPEAXI@Z 000000014000b93c f i boardscene.obj
 0001:0000a950       ??0BoardView@@QEAA@PEAVQGraphicsScene@@PEAVQWidget@@@Z 000000014000b950 f   boardview.obj
 0001:0000aae0       ??_GQTimer@@UEAAPEAXI@Z    000000014000bae0 f i boardview.obj
 0001:0000aae0       ??_EQTimer@@UEAAPEAXI@Z    000000014000bae0 f i * CIL library *:* CIL module *
 0001:0000ab20       ??_EBoardView@@UEAAPEAXI@Z 000000014000bb20 f i * CIL library *:* CIL module *
 0001:0000ab20       ??_GBoardView@@UEAAPEAXI@Z 000000014000bb20 f i boardview.obj
 0001:0000ab70       ?sizeHint@BoardView@@UEBA?AVQSize@@XZ 000000014000bb70 f   boardview.obj
 0001:0000abe0       ?heightForWidth@BoardView@@UEBAHH@Z 000000014000bbe0 f   boardview.obj
 0001:0000ac40       ?paintEvent@BoardView@@MEAAXPEAVQPaintEvent@@@Z 000000014000bc40 f   boardview.obj
 0001:0000adb0       ?resizeEvent@BoardView@@MEAAXPEAVQResizeEvent@@@Z 000000014000bdb0 f   boardview.obj
 0001:0000af20       ?fitToRect@BoardView@@AEAAXXZ 000000014000bf20 f   boardview.obj
 0001:0000af78       ??_EBoardView@@WBA@EAAPEAXI@Z 000000014000bf78 f i boardview.obj
 0001:0000af90       ??0exception@std@@QEAA@AEBV01@@Z 000000014000bf90 f i capture.obj
 0001:0000afd0       ?what@exception@std@@UEBAPEBDXZ 000000014000bfd0 f i capture.obj
 0001:0000aff0       ??_Gbad_alloc@std@@UEAAPEAXI@Z 000000014000bff0 f i capture.obj
 0001:0000aff0       ??_Ebad_array_new_length@std@@UEAAPEAXI@Z 000000014000bff0 f i * CIL library *:* CIL module *
 0001:0000aff0       ??_Eexception@std@@UEAAPEAXI@Z 000000014000bff0 f i * CIL library *:* CIL module *
 0001:0000aff0       ??_Gbad_array_new_length@std@@UEAAPEAXI@Z 000000014000bff0 f i capture.obj
 0001:0000aff0       ??_Ebad_alloc@std@@UEAAPEAXI@Z 000000014000bff0 f i * CIL library *:* CIL module *
 0001:0000aff0       ??_Gexception@std@@UEAAPEAXI@Z 000000014000bff0 f i capture.obj
 0001:0000b040       ??1bad_alloc@std@@UEAA@XZ  000000014000c040 f i capture.obj
 0001:0000b040       ??1bad_array_new_length@std@@UEAA@XZ 000000014000c040 f i capture.obj
 0001:0000b060       ??0bad_array_new_length@std@@QEAA@XZ 000000014000c060 f i capture.obj
 0001:0000b090       ?_Throw_bad_array_new_length@std@@YAXXZ 000000014000c090 f i capture.obj
 0001:0000b090       ?__scrt_throw_std_bad_array_new_length@@YAXXZ 000000014000c090 f i MSVCRT:throw_bad_alloc.obj
 0001:0000b0b0       ??0bad_array_new_length@std@@QEAA@AEBV01@@Z 000000014000c0b0 f i capture.obj
 0001:0000b0f0       ??0bad_alloc@std@@QEAA@AEBV01@@Z 000000014000c0f0 f i capture.obj
 0001:0000b130       ?_Xlen_string@std@@YAXXZ   000000014000c130 f i capture.obj
 0001:0000b150       ??H@YA?BVQString@@AEBV0@0@Z 000000014000c150 f i capture.obj
 0001:0000b1a0       ??0Mat@cv@@QEAA@AEBV01@@Z  000000014000c1a0 f i capture.obj
 0001:0000b270       ??0Mat@cv@@QEAA@HHHPEAX_K@Z 000000014000c270 f i capture.obj
 0001:0000b410       ??1Mat@cv@@QEAA@XZ         000000014000c410 f i capture.obj
 0001:0000b440       ??4Mat@cv@@QEAAAEAV01@AEBV01@@Z 000000014000c440 f i capture.obj
 0001:0000b500       ?clone@Mat@cv@@QEBA?AV12@XZ 000000014000c500 f i capture.obj
 0001:0000b590       ?release@Mat@cv@@QEAAXXZ   000000014000c590 f i capture.obj
 0001:0000b600       ?total@Mat@cv@@QEBA_KXZ    000000014000c600 f i capture.obj
 0001:0000b650       ??0Mat@cv@@QEAA@$$QEAV01@@Z 000000014000c650 f i capture.obj
 0001:0000b730       ??4Mat@cv@@QEAAAEAV01@$$QEAV01@@Z 000000014000c730 f i capture.obj
 0001:0000b850       ?wait@Capture@Chess@@AEAAXH@Z 000000014000c850 f i capture.obj
 0001:0000b8c0       ??0Capture@Chess@@QEAA@PEAVQObject@@_N@Z 000000014000c8c0 f   capture.obj
 0001:0000bd90       ??_ECapture@Chess@@UEAAPEAXI@Z 000000014000cd90 f i * CIL library *:* CIL module *
 0001:0000bd90       ??_GCapture@Chess@@UEAAPEAXI@Z 000000014000cd90 f i capture.obj
 0001:0000bdd0       ??1cLXinfo@Capture@Chess@@QEAA@XZ 000000014000cdd0 f i capture.obj
 0001:0000be10       ??0stLxBoard@Capture@Chess@@QEAA@XZ 000000014000ce10 f i capture.obj
 0001:0000bed0       ??1stLxBoard@Capture@Chess@@QEAA@XZ 000000014000ced0 f i capture.obj
 0001:0000c2a0       ?QImageToCvMat@Capture@Chess@@AEAA?AVMat@cv@@AEBVQImage@@_N@Z 000000014000d2a0 f   capture.obj
 0001:0000c870       ?ProcessBoardMove@Capture@Chess@@QEAAXAEBVGenericMove@2@@Z 000000014000d870 f   capture.obj
 0001:0000caa0       ?GetLxInfo@Capture@Chess@@AEAA_NVQString@@@Z 000000014000daa0 f   capture.obj
 0001:0000cde0       ?searchImage@Capture@Chess@@AEAA_NVQString@@_N0AEAH2M@Z 000000014000dde0 f   capture.obj
 0001:0000db20       ?SendMessageToMain@Capture@Chess@@AEAAXVQString@@0@Z 000000014000eb20 f   capture.obj
 0001:0000dc00       ??0stCaptureMsg@@QEAA@AEBU0@@Z 000000014000ec00 f i capture.obj
 0001:0000dc50       ?fillB90@Capture@Chess@@AEAA_NQEAW4ChinesePieceType@2@AEAV?$QVector@V?$Point_@H@cv@@@@W432@@Z 000000014000ec50 f   capture.obj
 0001:0000dd50       ?GetFen@Capture@Chess@@AEAA_NPEAUstLxBoard@12@@Z 000000014000ed50 f   capture.obj
 0001:0000e050       ?Board2Move@Capture@Chess@@AEAA_NAEAVGenericMove@2@@Z 000000014000f050 f   capture.obj
 0001:0000e2a0       ?run@Capture@Chess@@EEAAXXZ 000000014000f2a0 f   capture.obj
 0001:0000e2e0       ?runAutoClip@Capture@Chess@@AEAAXXZ 000000014000f2e0 f   capture.obj
 0001:0000e9d0       ?runAutoChess@Capture@Chess@@AEAAXXZ 000000014000f9d0 f   capture.obj
 0001:0000ef90       ?GetLxBoardChess@Capture@Chess@@AEAA_NH@Z 000000014000ff90 f   capture.obj
 0001:0000f340       ?SaveAllPiecePicture@Capture@Chess@@AEAA_NXZ 0000000140010340 f   capture.obj
 0001:0000f550       ?SaveOnePiecePic@Capture@Chess@@AEAA_NHHVQString@@@Z 0000000140010550 f   capture.obj
 0001:0000f750       ??1Capture@Chess@@UEAA@XZ  0000000140010750 f   capture.obj
 0001:0000f8d0       ?searchChess@Capture@Chess@@AEAA_NPEAUHWND__@@VQString@@AEAV?$QVector@V?$Point_@H@cv@@@@W4SearchWhichCap@2@_NM4@Z 00000001400108d0 f   capture.obj
 0001:00011af0       ?CaptureOneNotry@Capture@Chess@@AEAA_NPEAUHWND__@@H_N@Z 0000000140012af0 f   capture.obj
 0001:000122c0       ?getChessboardHwnd@Capture@Chess@@AEAA_N_N@Z 00000001400132c0 f   capture.obj
 0001:00012520       ?check_window_valid@Capture@Chess@@AEAA_NPEAUHWND__@@HHW4window_search_mode@12@@Z 0000000140013520 f   capture.obj
 0001:000125b0       ?next_window@Capture@Chess@@AEAAPEAUHWND__@@PEAU3@W4window_search_mode@12@@Z 00000001400135b0 f i capture.obj
 0001:00012660       ?get_window_class@Capture@Chess@@AEAA?AVQString@@PEAUHWND__@@@Z 0000000140013660 f   capture.obj
 0001:00012720       ?SearchOnChessList@Capture@Chess@@AEAA_NPEAUHWND__@@VQString@@AEAV?$QVector@V?$Point_@H@cv@@@@W4SearchWhichCap@2@_N@Z 0000000140013720 f   capture.obj
 0001:00012840       ??1?$QHash@VQString@@VMat@cv@@@@QEAA@XZ 0000000140013840 f i capture.obj
 0001:00012880       ??1?$basic_string@DU?$char_traits@D@std@@V?$allocator@D@2@@std@@QEAA@XZ 0000000140013880 f i capture.obj
 0001:000128e0       ??0?$basic_string@DU?$char_traits@D@std@@V?$allocator@D@2@@std@@QEAA@QEBD@Z 00000001400138e0 f i capture.obj
 0001:00012920       ?assign@?$basic_string@DU?$char_traits@D@std@@V?$allocator@D@2@@std@@QEAAAEAV12@QEBD_K@Z 0000000140013920 f i capture.obj
 0001:00012a80       ?append@?$QList@VQString@@@@QEAAXAEBVQString@@@Z 0000000140013a80 f i capture.obj
 0001:00012af0       ?detach@?$QVector@V?$Point_@H@cv@@@@QEAAXXZ 0000000140013af0 f i capture.obj
 0001:00012b70       ?value@?$QHash@VQString@@VMat@cv@@@@QEBA?BVMat@cv@@AEBVQString@@@Z 0000000140013b70 f i capture.obj
 0001:00012c30       ?insert@?$QHash@VQString@@VMat@cv@@@@QEAA?AViterator@1@AEBVQString@@AEBVMat@cv@@@Z 0000000140013c30 f i capture.obj
 0001:00012d80       ?deallocate@?$QTypedArrayData@VQString@@@@SAXPEAUQArrayData@@@Z 0000000140013d80 f i qcustomplot.obj
 0001:00012d80       ?deallocate@?$QTypedArrayData@N@@SAXPEAUQArrayData@@@Z 0000000140013d80 f i qcustomplot.obj
 0001:00012d80       ?deallocate@?$QTypedArrayData@UMoveData@WesternBoard@Chess@@@@SAXPEAUQArrayData@@@Z 0000000140013d80 f i cutechess:standardboard.obj
 0001:00012d80       ?deallocate@?$QTypedArrayData@PEAVGraphicsPiece@@@@SAXPEAUQArrayData@@@Z 0000000140013d80 f i graphicsboard.obj
 0001:00012d80       ?deallocate@?$QTypedArrayData@PEAVQCPLayoutElement@@@@SAXPEAUQArrayData@@@Z 0000000140013d80 f i qcustomplot.obj
 0001:00012d80       ?deallocate@?$QTypedArrayData@VQCPDataRange@@@@SAXPEAUQArrayData@@@Z 0000000140013d80 f i qcustomplot.obj
 0001:00012d80       ?deallocate@?$QTypedArrayData@V?$Point_@H@cv@@@@SAXPEAUQArrayData@@@Z 0000000140013d80 f i capture.obj
 0001:00012d80       ?deallocate@?$QTypedArrayData@PEAVQTableWidgetItem@@@@SAXPEAUQArrayData@@@Z 0000000140013d80 f i evalwidget.obj
 0001:00012d90       ?detach_helper_grow@?$QList@VQString@@@@AEAAPEAUNode@1@HH@Z 0000000140013d90 f i capture.obj
 0001:00012ea0       ?detach_helper@?$QList@VQString@@@@AEAAXH@Z 0000000140013ea0 f i capture.obj
 0001:00012f60       ?node_destruct@?$QList@VQString@@@@AEAAXPEAUNode@1@@Z 0000000140013f60 f i capture.obj
 0001:00012f70       ?node_copy@?$QList@VQString@@@@AEAAXPEAUNode@1@00@Z 0000000140013f70 f i capture.obj
 0001:00012fc0       ?realloc@?$QVector@V?$Point_@H@cv@@@@AEAAXHV?$QFlags@W4AllocationOption@QArrayData@@@@@Z 0000000140013fc0 f i capture.obj
 0001:00013270       ?findNode@?$QHash@VQString@@VMat@cv@@@@AEBAPEAPEAU?$QHashNode@VQString@@VMat@cv@@@@AEBVQString@@I@Z 0000000140014270 f i capture.obj
 0001:00013270       ?findNode@?$QHash@VQString@@UNode@?$QCache@VQString@@UCachedLabel@QCPAxisPainterPrivate@@@@@@AEBAPEAPEAU?$QHashNode@VQString@@UNode@?$QCache@VQString@@UCachedLabel@QCPAxisPainterPrivate@@@@@@AEBVQString@@I@Z 0000000140014270 f i qcustomplot.obj
 0001:00013270       ?findNode@?$QHash@VQString@@UQHashDummyValue@@@@AEBAPEAPEAU?$QHashNode@VQString@@UQHashDummyValue@@@@AEBVQString@@I@Z 0000000140014270 f i engineconfigurationdlg.obj
 0001:00013330       ?deleteNode2@?$QHash@VQString@@VMat@cv@@@@CAXPEAUNode@QHashData@@@Z 0000000140014330 f i capture.obj
 0001:00013370       ?duplicateNode@?$QHash@VQString@@VMat@cv@@@@CAXPEAUNode@QHashData@@PEAX@Z 0000000140014370 f i capture.obj
 0001:000133c0       ??0ChessClock@@QEAA@PEAVQWidget@@@Z 00000001400143c0 f   chessclock.obj
 0001:00013560       ??_EChessClock@@UEAAPEAXI@Z 0000000140014560 f i * CIL library *:* CIL module *
 0001:00013560       ??_GChessClock@@UEAAPEAXI@Z 0000000140014560 f i chessclock.obj
 0001:000135b0       ?setPlayerName@ChessClock@@QEAAXAEBVQString@@@Z 00000001400145b0 f   chessclock.obj
 0001:00013650       ?setInfiniteTime@ChessClock@@QEAAX_N@Z 0000000140014650 f   chessclock.obj
 0001:000136b0       ?setTime@ChessClock@@QEAAXH@Z 00000001400146b0 f   chessclock.obj
 0001:00013830       ?start@ChessClock@@QEAAXH@Z 0000000140014830 f   chessclock.obj
 0001:00013900       ?stop@ChessClock@@QEAAXXZ  0000000140014900 f   chessclock.obj
 0001:00013960       ?timerEvent@ChessClock@@MEAAXPEAVQTimerEvent@@@Z 0000000140014960 f   chessclock.obj
 0001:00013994       ??_EChessClock@@WBA@EAAPEAXI@Z 0000000140014994 f i chessclock.obj
 0001:000139a0       ??0CuteChessApplication@@QEAA@AEAHQEAPEAD@Z 00000001400149a0 f   cutechessapp.obj
 0001:00013e10       ??_GCuteChessApplication@@UEAAPEAXI@Z 0000000140014e10 f i cutechessapp.obj
 0001:00013e10       ??_ECuteChessApplication@@UEAAPEAXI@Z 0000000140014e10 f i * CIL library *:* CIL module *
 0001:00013e50       ??1CuteChessApplication@@UEAA@XZ 0000000140014e50 f   cutechessapp.obj
 0001:00013f50       ?configPath@CuteChessApplication@@QEAA?AVQString@@XZ 0000000140014f50 f   cutechessapp.obj
 0001:00014040       ?engineManager@CuteChessApplication@@QEAAPEAVEngineManager@@XZ 0000000140015040 f   cutechessapp.obj
 0001:000140a0       ?gameManager@CuteChessApplication@@QEAAPEAVGameManager@@XZ 00000001400150a0 f   cutechessapp.obj
 0001:000141c0       ?gameWindows@CuteChessApplication@@QEAA?AV?$QList@PEAVMainWindow@@@@XZ 00000001400151c0 f   cutechessapp.obj
 0001:00014350       ?newDefaultGame@CuteChessApplication@@QEAAXXZ 0000000140015350 f   cutechessapp.obj
 0001:000146a0       ?gameDatabaseManager@CuteChessApplication@@QEAAPEAVGameDatabaseManager@@XZ 00000001400156a0 f   cutechessapp.obj
 0001:00014700       ?showGameWall@CuteChessApplication@@QEAAXXZ 0000000140015700 f   cutechessapp.obj
 0001:000148c0       ?onQuitAction@CuteChessApplication@@QEAAXXZ 00000001400158c0 f   cutechessapp.obj
 0001:000148e0       ?closeDialogs@CuteChessApplication@@QEAAXXZ 00000001400158e0 f   cutechessapp.obj
 0001:00014970       ?append@?$QList@PEAVPgnDatabase@@@@QEAAXAEBQEAVPgnDatabase@@@Z 0000000140015970 f i gamedatabasemanager.obj
 0001:00014970       ?append@?$QList@PEAVTournamentPair@@@@QEAAXAEBQEAVTournamentPair@@@Z 0000000140015970 f i cutechess:knockouttournament.obj
 0001:00014970       ?append@?$QList@PEAVQCPBars@@@@QEAAXAEBQEAVQCPBars@@@Z 0000000140015970 f i qcustomplot.obj
 0001:00014970       ?append@?$QList@PEAVEngineOption@@@@QEAAXAEBQEAVEngineOption@@@Z 0000000140015970 f i engineconfigurationdlg.obj
 0001:00014970       ?append@?$QList@PEAVMainWindow@@@@QEAAXAEBQEAVMainWindow@@@Z 0000000140015970 f i cutechessapp.obj
 0001:00014970       ?append@?$QList@PEAVQLayoutItem@@@@QEAAXAEBQEAVQLayoutItem@@@Z 0000000140015970 f i tilelayout.obj
 0001:00014970       ?append@?$QList@PEAVQCPAbstractPlottable@@@@QEAAXAEBQEAVQCPAbstractPlottable@@@Z 0000000140015970 f i qcustomplot.obj
 0001:00014970       ?append@?$QList@PEAVGameThread@@@@QEAAXAEBQEAVGameThread@@@Z 0000000140015970 f i cutechess:gamemanager.obj
 0001:00014970       ?append@?$QList@PEAVChessGame@@@@QEAAXAEBQEAVChessGame@@@Z 0000000140015970 f i cutechess:gamemanager.obj
 0001:00014970       ?append@?$QList@N@@QEAAXAEBN@Z 0000000140015970 f i qcustomplot.obj
 0001:00014970       ?append@?$QList@PEAVQCPLayer@@@@QEAAXAEBQEAVQCPLayer@@@Z 0000000140015970 f i qcustomplot.obj
 0001:00014970       ?append@?$QList@PEAVGameWallWidget@@@@QEAAXAEBQEAVGameWallWidget@@@Z 0000000140015970 f i gamewall.obj
 0001:00014970       ?append@?$QList@PEAVQCPAxisRect@@@@QEAAXAEBQEAVQCPAxisRect@@@Z 0000000140015970 f i qcustomplot.obj
 0001:00014970       ?append@?$QList@PEAVQCPGraph@@@@QEAAXAEBQEAVQCPGraph@@@Z 0000000140015970 f i qcustomplot.obj
 0001:000149c0       ??0?$QList@V?$QPointer@VMainWindow@@@@@@QEAA@AEBV0@@Z 00000001400159c0 f i cutechessapp.obj
 0001:00014a50       ??1?$QList@V?$QPointer@VQCPAxis@@@@@@QEAA@XZ 0000000140015a50 f i qcustomplot.obj
 0001:00014a50       ??1?$QList@V?$QPointer@VMainWindow@@@@@@QEAA@XZ 0000000140015a50 f i cutechessapp.obj
 0001:00014ab0       ?prepend@?$QList@V?$QPointer@VMainWindow@@@@@@QEAAXAEBV?$QPointer@VMainWindow@@@@@Z 0000000140015ab0 f i cutechessapp.obj
 0001:00014b40       ?removeAll@?$QList@V?$QPointer@VMainWindow@@@@@@QEAAHAEBV?$QPointer@VMainWindow@@@@@Z 0000000140015b40 f i cutechessapp.obj
 0001:00014d60       ?detach_helper_grow@?$QList@PEAVQCPBars@@@@AEAAPEAUNode@1@HH@Z 0000000140015d60 f i qcustomplot.obj
 0001:00014d60       ?detach_helper_grow@?$QList@PEAVEngineOption@@@@AEAAPEAUNode@1@HH@Z 0000000140015d60 f i engineconfigurationdlg.obj
 0001:00014d60       ?detach_helper_grow@?$QList@V?$QFlags@W4AlignmentFlag@Qt@@@@@@AEAAPEAUNode@1@HH@Z 0000000140015d60 f i qcustomplot.obj
 0001:00014d60       ?detach_helper_grow@?$QList@PEAVQCPGraph@@@@AEAAPEAUNode@1@HH@Z 0000000140015d60 f i qcustomplot.obj
 0001:00014d60       ?detach_helper_grow@?$QList@PEAVGameWallWidget@@@@AEAAPEAUNode@1@HH@Z 0000000140015d60 f i gamewall.obj
 0001:00014d60       ?detach_helper_grow@?$QList@N@@AEAAPEAUNode@1@HH@Z 0000000140015d60 f i qcustomplot.obj
 0001:00014d60       ?detach_helper_grow@?$QList@PEAVChessGame@@@@AEAAPEAUNode@1@HH@Z 0000000140015d60 f i cutechess:gamemanager.obj
 0001:00014d60       ?detach_helper_grow@?$QList@PEAVQCPLayer@@@@AEAAPEAUNode@1@HH@Z 0000000140015d60 f i qcustomplot.obj
 0001:00014d60       ?detach_helper_grow@?$QList@PEAVPgnDatabase@@@@AEAAPEAUNode@1@HH@Z 0000000140015d60 f i gamedatabasemanager.obj
 0001:00014d60       ?detach_helper_grow@?$QList@PEAVTournamentPair@@@@AEAAPEAUNode@1@HH@Z 0000000140015d60 f i cutechess:knockouttournament.obj
 0001:00014d60       ?detach_helper_grow@?$QList@PEAVGameThread@@@@AEAAPEAUNode@1@HH@Z 0000000140015d60 f i cutechess:gamemanager.obj
 0001:00014d60       ?detach_helper_grow@?$QList@PEAVQCPAxisRect@@@@AEAAPEAUNode@1@HH@Z 0000000140015d60 f i qcustomplot.obj
 0001:00014d60       ?detach_helper_grow@?$QList@PEAVQCPAbstractPlottable@@@@AEAAPEAUNode@1@HH@Z 0000000140015d60 f i qcustomplot.obj
 0001:00014d60       ?detach_helper_grow@?$QList@PEAVMainWindow@@@@AEAAPEAUNode@1@HH@Z 0000000140015d60 f i cutechessapp.obj
 0001:00014d60       ?detach_helper_grow@?$QList@PEAVQLayoutItem@@@@AEAAPEAUNode@1@HH@Z 0000000140015d60 f i tilelayout.obj
 0001:00014e40       ?detach_helper_grow@?$QList@V?$QPointer@VMainWindow@@@@@@AEAAPEAUNode@1@HH@Z 0000000140015e40 f i cutechessapp.obj
 0001:00014f30       ?node_copy@?$QList@V?$QPointer@VMainWindow@@@@@@AEAAXPEAUNode@1@00@Z 0000000140015f30 f i cutechessapp.obj
 0001:00014f30       ?node_copy@?$QList@V?$QPointer@VGameThread@@@@@@AEAAXPEAUNode@1@00@Z 0000000140015f30 f i cutechess:gamemanager.obj
 0001:00014f30       ?node_copy@?$QList@V?$QPointer@VQCPAxis@@@@@@AEAAXPEAUNode@1@00@Z 0000000140015f30 f i qcustomplot.obj
 0001:00014fb0       ??_G?$QPointer@VMainWindow@@@@QEAAPEAXI@Z 0000000140015fb0 f i cutechessapp.obj
 0001:00014fb0       ??_G?$QPointer@VGameThread@@@@QEAAPEAXI@Z 0000000140015fb0 f i cutechess:gamemanager.obj
 0001:00014fb0       ??_G?$QPointer@VQCPAxis@@@@QEAAPEAXI@Z 0000000140015fb0 f i qcustomplot.obj
 0001:00015000       ?detach_helper@?$QList@V?$QPointer@VGameThread@@@@@@AEAAXH@Z 0000000140016000 f i cutechess:gamemanager.obj
 0001:00015000       ?detach_helper@?$QList@V?$QPointer@VMainWindow@@@@@@AEAAXH@Z 0000000140016000 f i cutechessapp.obj
 0001:00015000       ?detach_helper@?$QList@V?$QPointer@VQCPAxis@@@@@@AEAAXH@Z 0000000140016000 f i qcustomplot.obj
 0001:000150b0       ?node_destruct@?$QList@V?$QPointer@VQCPAxis@@@@@@AEAAXPEAUNode@1@0@Z 00000001400160b0 f i qcustomplot.obj
 0001:000150b0       ?node_destruct@?$QList@V?$QPointer@VMainWindow@@@@@@AEAAXPEAUNode@1@0@Z 00000001400160b0 f i cutechessapp.obj
 0001:000150b0       ?node_destruct@?$QList@V?$QPointer@VGameThread@@@@@@AEAAXPEAUNode@1@0@Z 00000001400160b0 f i cutechess:gamemanager.obj
 0001:00015130       ??_EEngineConfigurationProxyModel@@UEAAPEAXI@Z 0000000140016130 f i * CIL library *:* CIL module *
 0001:00015130       ??_GEngineConfigurationProxyModel@@UEAAPEAXI@Z 0000000140016130 f i engineconfigproxymodel.obj
 0001:00015180       ?filterAcceptsRow@EngineConfigurationProxyModel@@MEBA_NHAEBVQModelIndex@@@Z 0000000140016180 f   engineconfigproxymodel.obj
 0001:000152c0       ??_GQSpacerItem@@UEAAPEAXI@Z 00000001400162c0 f i engineconfigurationdlg.obj
 0001:000152c0       ??_EQSpacerItem@@UEAAPEAXI@Z 00000001400162c0 f i * CIL library *:* CIL module *
 0001:00015300       ?setupUi@Ui_EngineConfigurationDialog@@QEAAXPEAVQDialog@@@Z 0000000140016300 f i engineconfigurationdlg.obj
 0001:00016280       ?retranslateUi@Ui_EngineConfigurationDialog@@QEAAXPEAVQDialog@@@Z 0000000140017280 f i engineconfigurationdlg.obj
 0001:00016730       ??_GQTabWidget@@UEAAPEAXI@Z 0000000140017730 f i engineconfigurationdlg.obj
 0001:00016730       ??_EQTabWidget@@UEAAPEAXI@Z 0000000140017730 f i * CIL library *:* CIL module *
 0001:00016770       ??_GQWidget@@UEAAPEAXI@Z   0000000140017770 f i engineconfigurationdlg.obj
 0001:00016770       ??_EQWidget@@UEAAPEAXI@Z   0000000140017770 f i * CIL library *:* CIL module *
 0001:000167b0       ??_GQFormLayout@@UEAAPEAXI@Z 00000001400177b0 f i engineconfigurationdlg.obj
 0001:000167b0       ??_EQFormLayout@@UEAAPEAXI@Z 00000001400177b0 f i * CIL library *:* CIL module *
 0001:000167f0       ??_GQLineEdit@@UEAAPEAXI@Z 00000001400177f0 f i engineconfigurationdlg.obj
 0001:000167f0       ??_EQLineEdit@@UEAAPEAXI@Z 00000001400177f0 f i * CIL library *:* CIL module *
 0001:00016830       ??_EQPushButton@@UEAAPEAXI@Z 0000000140017830 f i * CIL library *:* CIL module *
 0001:00016830       ??_GQPushButton@@UEAAPEAXI@Z 0000000140017830 f i engineconfigurationdlg.obj
 0001:00016870       ??_GQPlainTextEdit@@UEAAPEAXI@Z 0000000140017870 f i engineconfigurationdlg.obj
 0001:00016870       ??_GPlainTextLog@@UEAAPEAXI@Z 0000000140017870 f i plaintextlog.obj
 0001:00016870       ??_EQPlainTextEdit@@UEAAPEAXI@Z 0000000140017870 f i * CIL library *:* CIL module *
 0001:00016870       ??_EPlainTextLog@@UEAAPEAXI@Z 0000000140017870 f i * CIL library *:* CIL module *
 0001:000168b0       ??_EQCheckBox@@UEAAPEAXI@Z 00000001400178b0 f i * CIL library *:* CIL module *
 0001:000168b0       ??_GQCheckBox@@UEAAPEAXI@Z 00000001400178b0 f i engineconfigurationdlg.obj
 0001:000168f0       ??_EQTreeView@@UEAAPEAXI@Z 00000001400178f0 f i * CIL library *:* CIL module *
 0001:000168f0       ??_GQTreeView@@UEAAPEAXI@Z 00000001400178f0 f i engineconfigurationdlg.obj
 0001:00016930       ??_EQProgressBar@@UEAAPEAXI@Z 0000000140017930 f i * CIL library *:* CIL module *
 0001:00016930       ??_GQProgressBar@@UEAAPEAXI@Z 0000000140017930 f i engineconfigurationdlg.obj
 0001:00016970       ??0EngineConfigurationDialog@@QEAA@W4DialogMode@0@PEAVQWidget@@@Z 0000000140017970 f   engineconfigurationdlg.obj
 0001:00016f80       ??_GEngineConfigurationDialog@@UEAAPEAXI@Z 0000000140017f80 f i engineconfigurationdlg.obj
 0001:00016f80       ??_EEngineConfigurationDialog@@UEAAPEAXI@Z 0000000140017f80 f i * CIL library *:* CIL module *
 0001:00016fc0       ??1?$QSet@VQString@@@@QEAA@XZ 0000000140017fc0 f i engineconfigurationdlg.obj
 0001:00017000       ??1EngineConfigurationDialog@@UEAA@XZ 0000000140018000 f   engineconfigurationdlg.obj
 0001:00017110       ?applyEngineInformation@EngineConfigurationDialog@@QEAAXAEBVEngineConfiguration@@@Z 0000000140018110 f   engineconfigurationdlg.obj
 0001:000174e0       ?engineConfiguration@EngineConfigurationDialog@@QEAA?AVEngineConfiguration@@XZ 00000001400184e0 f   engineconfigurationdlg.obj
 0001:000177d0       ?setReservedNames@EngineConfigurationDialog@@QEAAXAEBV?$QSet@VQString@@@@@Z 00000001400187d0 f   engineconfigurationdlg.obj
 0001:00017840       ?browseCommand@EngineConfigurationDialog@@AEAAXXZ 0000000140018840 f   engineconfigurationdlg.obj
 0001:00017bb0       ??_EQFileDialog@@UEAAPEAXI@Z 0000000140018bb0 f i * CIL library *:* CIL module *
 0001:00017bb0       ??_GQFileDialog@@UEAAPEAXI@Z 0000000140018bb0 f i engineconfigurationdlg.obj
 0001:00017bf0       ?setExecutable@EngineConfigurationDialog@@AEAAXAEBVQString@@@Z 0000000140018bf0 f   engineconfigurationdlg.obj
 0001:00017f40       ?detectEngineOptions@EngineConfigurationDialog@@AEAAXXZ 0000000140018f40 f   engineconfigurationdlg.obj
 0001:000183b0       ??1EngineBuilder@@UEAA@XZ  00000001400193b0 f i engineconfigurationdlg.obj
 0001:000183e0       ?onEngineReady@EngineConfigurationDialog@@AEAAXXZ 00000001400193e0 f   engineconfigurationdlg.obj
 0001:00018620       ??4?$QList@VQString@@@@QEAAAEAV0@$$QEAV0@@Z 0000000140019620 f i engineconfigurationdlg.obj
 0001:000186c0       ?clear@?$QList@VQCPDataRange@@@@QEAAXXZ 00000001400196c0 f i qcustomplot.obj
 0001:000186c0       ?clear@?$QList@H@@QEAAXXZ  00000001400196c0 f i qcustomplot.obj
 0001:000186c0       ?clear@?$QList@PEAVEngineOption@@@@QEAAXXZ 00000001400196c0 f i engineconfigurationdlg.obj
 0001:00018730       ??$qDeleteAll@V?$QList@PEAVEngineOption@@@@@@YAXAEBV?$QList@PEAVEngineOption@@@@@Z 0000000140019730 f i engineconfigurationdlg.obj
 0001:00018790       ?impl@?$QSlotObject@P8GameSettingsWidget@@EAAXAEBVQString@@@ZU?$List@AEBVQString@@@QtPrivate@@X@QtPrivate@@CAXHPEAVQSlotObjectBase@2@PEAVQObject@@PEAPEAXPEA_N@Z 0000000140019790 f i gamesettingswidget.obj
 0001:00018790       ?impl@?$QSlotObject@P8PathLineEdit@@EAAXAEBVQString@@@ZU?$List@AEBVQString@@@QtPrivate@@X@QtPrivate@@CAXHPEAVQSlotObjectBase@2@PEAVQObject@@PEAPEAXPEA_N@Z 0000000140019790 f i pathlineedit.obj
 0001:00018790       ?impl@?$QSlotObject@P8PlainTextLog@@EAAXAEBVQString@@@ZU?$List@AEBVQString@@@QtPrivate@@X@QtPrivate@@CAXHPEAVQSlotObjectBase@2@PEAVQObject@@PEAPEAXPEA_N@Z 0000000140019790 f i plaintextlog.obj
 0001:00018790       ?impl@?$QSlotObject@P8GameDatabaseDialog@@EAAXAEBVQString@@@ZU?$List@AEBVQString@@@QtPrivate@@X@QtPrivate@@CAXHPEAVQSlotObjectBase@2@PEAVQObject@@PEAPEAXPEA_N@Z 0000000140019790 f i gamedatabasedlg.obj
 0001:00018790       ?impl@?$QSlotObject@P8QLineEdit@@EAAXAEBVQString@@@ZU?$List@AEBVQString@@@QtPrivate@@X@QtPrivate@@CAXHPEAVQSlotObjectBase@2@PEAVQObject@@PEAPEAXPEA_N@Z 0000000140019790 f i gamesettingswidget.obj
 0001:00018790       ?impl@?$QSlotObject@P8EngineConfigurationDialog@@EAAXAEBVQString@@@ZU?$List@AEBVQString@@@QtPrivate@@X@QtPrivate@@CAXHPEAVQSlotObjectBase@2@PEAVQObject@@PEAPEAXPEA_N@Z 0000000140019790 f i engineconfigurationdlg.obj
 0001:00018810       ?detach_helper@?$QHash@VQString@@UQHashDummyValue@@@@AEAAXXZ 0000000140019810 f i engineconfigurationdlg.obj
 0001:00018890       ?deleteNode2@?$QHash@VQString@@UNode@?$QCache@VQString@@UCachedLabel@QCPAxisPainterPrivate@@@@@@CAXPEAUNode@QHashData@@@Z 0000000140019890 f i qcustomplot.obj
 0001:00018890       ?deleteNode2@?$QHash@VQString@@UQHashDummyValue@@@@CAXPEAUNode@QHashData@@@Z 0000000140019890 f i engineconfigurationdlg.obj
 0001:000189a0       ?duplicateNode@?$QHash@VQString@@UQHashDummyValue@@@@CAXPEAUNode@QHashData@@PEAX@Z 00000001400199a0 f i engineconfigurationdlg.obj
 0001:000189c0       ??_EEngineConfigurationDialog@@WBA@EAAPEAXI@Z 00000001400199c0 f i engineconfigurationdlg.obj
 0001:000189cc       ??_EQCheckBox@@WBA@EAAPEAXI@Z 00000001400199cc f i engineconfigurationdlg.obj
 0001:000189d8       ??_EQTabWidget@@WBA@EAAPEAXI@Z 00000001400199d8 f i engineconfigurationdlg.obj
 0001:000189e4       ??_EQFormLayout@@WBA@EAAPEAXI@Z 00000001400199e4 f i engineconfigurationdlg.obj
 0001:000189f0       ??_EPlainTextLog@@WBA@EAAPEAXI@Z 00000001400199f0 f i plaintextlog.obj
 0001:000189f0       ??_EQPlainTextEdit@@WBA@EAAPEAXI@Z 00000001400199f0 f i engineconfigurationdlg.obj
 0001:000189fc       ??_EQLineEdit@@WBA@EAAPEAXI@Z 00000001400199fc f i engineconfigurationdlg.obj
 0001:00018a08       ??_EQFileDialog@@WBA@EAAPEAXI@Z 0000000140019a08 f i engineconfigurationdlg.obj
 0001:00018a14       ??_EQProgressBar@@WBA@EAAPEAXI@Z 0000000140019a14 f i engineconfigurationdlg.obj
 0001:00018a20       ??_EQTreeView@@WBA@EAAPEAXI@Z 0000000140019a20 f i engineconfigurationdlg.obj
 0001:00018a2c       ??_EQPushButton@@WBA@EAAPEAXI@Z 0000000140019a2c f i engineconfigurationdlg.obj
 0001:00018a38       ??_EQWidget@@WBA@EAAPEAXI@Z 0000000140019a38 f i engineconfigurationdlg.obj
 0001:00018a50       ??0EngineConfigurationModel@@QEAA@PEAVEngineManager@@PEAVQObject@@@Z 0000000140019a50 f   engineconfigurationmodel.obj
 0001:00018be0       ??_GEngineConfigurationModel@@UEAAPEAXI@Z 0000000140019be0 f i engineconfigurationmodel.obj
 0001:00018be0       ??_EEngineConfigurationModel@@UEAAPEAXI@Z 0000000140019be0 f i * CIL library *:* CIL module *
 0001:00018c30       ?rowCount@EngineConfigurationModel@@UEBAHAEBVQModelIndex@@@Z 0000000140019c30 f   engineconfigurationmodel.obj
 0001:00018c40       ?columnCount@EngineConfigurationModel@@UEBAHAEBVQModelIndex@@@Z 0000000140019c40 f   engineconfigurationmodel.obj
 0001:00018c50       ?data@EngineConfigurationModel@@UEBA?AVQVariant@@AEBVQModelIndex@@H@Z 0000000140019c50 f   engineconfigurationmodel.obj
 0001:000190d0       ?headerData@EngineConfigurationModel@@UEBA?AVQVariant@@HW4Orientation@Qt@@H@Z 000000014001a0d0 f   engineconfigurationmodel.obj
 0001:000192a0       ??1?$QList@VEngineConfiguration@@@@QEAA@XZ 000000014001a2a0 f i engineconfigurationmodel.obj
 0001:000192d0       ?dealloc@?$QList@VEngineConfiguration@@@@AEAAXPEAUData@QListData@@@Z 000000014001a2d0 f i engineconfigurationmodel.obj
 0001:00019360       ?node_destruct@?$QList@VEngineConfiguration@@@@AEAAXPEAUNode@1@0@Z 000000014001a360 f i engineconfigurationmodel.obj
 0001:000193c0       ??_GEngineConfiguration@@QEAAPEAXI@Z 000000014001a3c0 f i engineconfigurationmodel.obj
 0001:000193f0       ?setupUi@Ui_EngineManagementWidget@@QEAAXPEAVQWidget@@@Z 000000014001a3f0 f i enginemanagementwidget.obj
 0001:00019d00       ?retranslateUi@Ui_EngineManagementWidget@@QEAAXPEAVQWidget@@@Z 000000014001ad00 f i enginemanagementwidget.obj
 0001:00019fe0       ??_EQListView@@UEAAPEAXI@Z 000000014001afe0 f i * CIL library *:* CIL module *
 0001:00019fe0       ??_GQListView@@UEAAPEAXI@Z 000000014001afe0 f i enginemanagementwidget.obj
 0001:0001a020       ??_EQToolButton@@UEAAPEAXI@Z 000000014001b020 f i * CIL library *:* CIL module *
 0001:0001a020       ??_GQToolButton@@UEAAPEAXI@Z 000000014001b020 f i enginemanagementwidget.obj
 0001:0001a060       ??0EngineManagementWidget@@QEAA@PEAVQWidget@@@Z 000000014001b060 f   enginemanagementwidget.obj
 0001:0001a460       ??_GQSortFilterProxyModel@@UEAAPEAXI@Z 000000014001b460 f i enginemanagementwidget.obj
 0001:0001a460       ??_EQSortFilterProxyModel@@UEAAPEAXI@Z 000000014001b460 f i * CIL library *:* CIL module *
 0001:0001a4a0       ??_EEngineManagementWidget@@UEAAPEAXI@Z 000000014001b4a0 f i * CIL library *:* CIL module *
 0001:0001a4a0       ??_GEngineManagementWidget@@UEAAPEAXI@Z 000000014001b4a0 f i enginemanagementwidget.obj
 0001:0001a500       ?updateEngineCount@EngineManagementWidget@@AEAAXXZ 000000014001b500 f   enginemanagementwidget.obj
 0001:0001a620       ?configureEngine@EngineManagementWidget@@AEAAXAEBVQModelIndex@@@Z 000000014001b620 f   enginemanagementwidget.obj
 0001:0001a870       ?removeEngine@EngineManagementWidget@@AEAAXXZ 000000014001b870 f   enginemanagementwidget.obj
 0001:0001aa20       ?remove@?$QSet@VQString@@@@QEAA_NAEBVQString@@@Z 000000014001ba20 f i enginemanagementwidget.obj
 0001:0001ab20       ?detach_helper@?$QList@VQModelIndex@@@@AEAAXH@Z 000000014001bb20 f i enginemanagementwidget.obj
 0001:0001b190       ?node_copy@?$QList@VQModelIndex@@@@AEAAXPEAUNode@1@00@Z 000000014001c190 f i enginemanagementwidget.obj
 0001:0001b790       ??_EQToolButton@@WBA@EAAPEAXI@Z 000000014001c790 f i enginemanagementwidget.obj
 0001:0001b79c       ??_EQListView@@WBA@EAAPEAXI@Z 000000014001c79c f i enginemanagementwidget.obj
 0001:0001b7a8       ??_EEngineManagementWidget@@WBA@EAAPEAXI@Z 000000014001c7a8 f i enginemanagementwidget.obj
 0001:0001b7c0       ??_EEngineOptionDelegate@@UEAAPEAXI@Z 000000014001c7c0 f i * CIL library *:* CIL module *
 0001:0001b7c0       ??_GEngineOptionDelegate@@UEAAPEAXI@Z 000000014001c7c0 f i engineoptiondelegate.obj
 0001:0001b810       ?eventFilter@EngineOptionDelegate@@MEAA_NPEAVQObject@@PEAVQEvent@@@Z 000000014001c810 f   engineoptiondelegate.obj
 0001:0001b880       ?createEditor@EngineOptionDelegate@@UEBAPEAVQWidget@@PEAV2@AEBVQStyleOptionViewItem@@AEBVQModelIndex@@@Z 000000014001c880 f   engineoptiondelegate.obj
 0001:0001beb0       ??_GQSpinBox@@UEAAPEAXI@Z  000000014001ceb0 f i engineoptiondelegate.obj
 0001:0001beb0       ??_EQSpinBox@@UEAAPEAXI@Z  000000014001ceb0 f i * CIL library *:* CIL module *
 0001:0001bef0       ?setEditorData@EngineOptionDelegate@@UEBAXPEAVQWidget@@AEBVQModelIndex@@@Z 000000014001cef0 f   engineoptiondelegate.obj
 0001:0001c650       ?setModelData@EngineOptionDelegate@@UEBAXPEAVQWidget@@PEAVQAbstractItemModel@@AEBVQModelIndex@@@Z 000000014001d650 f   engineoptiondelegate.obj
 0001:0001c8f0       ??1?$QMap@VQString@@VQVariant@@@@QEAA@XZ 000000014001d8f0 f i engineoptiondelegate.obj
 0001:0001c920       ?destroy@?$QMapData@VQString@@VQVariant@@@@QEAAXXZ 000000014001d920 f i engineoptiondelegate.obj
 0001:0001c990       ?destroySubTree@?$QMapNode@VQString@@VQVariant@@@@QEAAXXZ 000000014001d990 f i engineoptiondelegate.obj
 0001:0001c9e0       ?findNode@?$QMapData@VQString@@PEAVEcoNode@@@@QEBAPEAU?$QMapNode@VQString@@PEAVEcoNode@@@@AEBVQString@@@Z 000000014001d9e0 f i cutechess:econode.obj
 0001:0001c9e0       ?findNode@?$QMapData@VQString@@P6APEAVBoard@Chess@@XZ@@QEBAPEAU?$QMapNode@VQString@@P6APEAVBoard@Chess@@XZ@@AEBVQString@@@Z 000000014001d9e0 f i cutechess:boardfactory.obj
 0001:0001c9e0       ?findNode@?$QMapData@VQString@@V1@@@QEBAPEAU?$QMapNode@VQString@@V1@@@AEBVQString@@@Z 000000014001d9e0 f i cutechess:pgngame.obj
 0001:0001c9e0       ?findNode@?$QMapData@VQString@@VQVariant@@@@QEBAPEAU?$QMapNode@VQString@@VQVariant@@@@AEBVQString@@@Z 000000014001d9e0 f i engineoptiondelegate.obj
 0001:0001c9e0       ?findNode@?$QMapData@VQString@@P6APEAVChessEngine@@XZ@@QEBAPEAU?$QMapNode@VQString@@P6APEAVChessEngine@@XZ@@AEBVQString@@@Z 000000014001d9e0 f i cutechess:enginefactory.obj
 0001:0001ca60       ??_EQSpinBox@@WBA@EAAPEAXI@Z 000000014001da60 f i engineoptiondelegate.obj
 0001:0001ca70       ??_GEngineOptionModel@@UEAAPEAXI@Z 000000014001da70 f i engineoptionmodel.obj
 0001:0001ca70       ??_EEngineOptionModel@@UEAAPEAXI@Z 000000014001da70 f i * CIL library *:* CIL module *
 0001:0001cae0       ?index@PgnGameEntryModel@@UEBA?AVQModelIndex@@HHAEBV2@@Z 000000014001dae0 f   pgngameentrymodel.obj
 0001:0001cae0       ?index@EngineOptionModel@@UEBA?AVQModelIndex@@HHAEBV2@@Z 000000014001dae0 f   engineoptionmodel.obj
 0001:0001cae0       ?index@PgnDatabaseModel@@UEBA?AVQModelIndex@@HHAEBV2@@Z 000000014001dae0 f   pgndatabasemodel.obj
 0001:0001cae0       ?index@PgnTagsModel@@UEBA?AVQModelIndex@@HHAEBV2@@Z 000000014001dae0 f   pgntagsmodel.obj
 0001:0001cb60       ?parent@PgnDatabaseModel@@UEBA?AVQModelIndex@@AEBV2@@Z 000000014001db60 f   pgndatabasemodel.obj
 0001:0001cb60       ?parent@PgnTagsModel@@UEBA?AVQModelIndex@@AEBV2@@Z 000000014001db60 f   pgntagsmodel.obj
 0001:0001cb60       ?parent@EngineOptionModel@@UEBA?AVQModelIndex@@AEBV2@@Z 000000014001db60 f   engineoptionmodel.obj
 0001:0001cb60       ?parent@PgnGameEntryModel@@UEBA?AVQModelIndex@@AEBV2@@Z 000000014001db60 f   pgngameentrymodel.obj
 0001:0001cb80       ?rowCount@PgnTagsModel@@UEBAHAEBVQModelIndex@@@Z 000000014001db80 f   pgntagsmodel.obj
 0001:0001cb80       ?rowCount@EngineOptionModel@@UEBAHAEBVQModelIndex@@@Z 000000014001db80 f   engineoptionmodel.obj
 0001:0001cbb0       ?columnCount@EngineOptionModel@@UEBAHAEBVQModelIndex@@@Z 000000014001dbb0 f   engineoptionmodel.obj
 0001:0001cbd0       ?data@EngineOptionModel@@UEBA?AVQVariant@@AEBVQModelIndex@@H@Z 000000014001dbd0 f   engineoptionmodel.obj
 0001:0001ce20       ?headerData@EngineOptionModel@@UEBA?AVQVariant@@HW4Orientation@Qt@@H@Z 000000014001de20 f   engineoptionmodel.obj
 0001:0001cf40       ?flags@EngineOptionModel@@UEBA?AV?$QFlags@W4ItemFlag@Qt@@@@AEBVQModelIndex@@@Z 000000014001df40 f   engineoptionmodel.obj
 0001:0001d020       ?setData@EngineOptionModel@@UEAA_NAEBVQModelIndex@@AEBVQVariant@@H@Z 000000014001e020 f   engineoptionmodel.obj
 0001:0001d190       ??0?$QList@N@@QEAA@AEBV0@@Z 000000014001e190 f i qcustomplot.obj
 0001:0001d190       ??0?$QList@PEAVTournamentPair@@@@QEAA@AEBV0@@Z 000000014001e190 f i cutechess:knockouttournament.obj
 0001:0001d190       ??0?$QList@PEAVPgnDatabase@@@@QEAA@AEBV0@@Z 000000014001e190 f i gamedatabasemanager.obj
 0001:0001d190       ??0?$QList@PEAVQCPAxis@@@@QEAA@AEBV0@@Z 000000014001e190 f i qcustomplot.obj
 0001:0001d190       ??0?$QList@PEAVChessGame@@@@QEAA@AEBV0@@Z 000000014001e190 f i cutechess:gamemanager.obj
 0001:0001d190       ??0?$QList@PEAVQCPLayoutElement@@@@QEAA@AEBV0@@Z 000000014001e190 f i qcustomplot.obj
 0001:0001d190       ??0?$QList@PEAVQCPLayer@@@@QEAA@AEBV0@@Z 000000014001e190 f i qcustomplot.obj
 0001:0001d190       ??0?$QList@PEAVEngineOption@@@@QEAA@AEBV0@@Z 000000014001e190 f i engineoptionmodel.obj
 0001:0001d190       ??0?$QList@PEAVQCPLayerable@@@@QEAA@AEBV0@@Z 000000014001e190 f i qcustomplot.obj
 0001:0001d190       ??0?$QList@PEBVPgnGameEntry@@@@QEAA@AEBV0@@Z 000000014001e190 f i pgndatabase.obj
 0001:0001d220       ??4?$QList@PEAVEngineOption@@@@QEAAAEAV0@AEBV0@@Z 000000014001e220 f i engineoptionmodel.obj
 0001:0001d220       ??4?$QList@PEBVPgnGameEntry@@@@QEAAAEAV0@AEBV0@@Z 000000014001e220 f i pgndatabase.obj
 0001:0001d220       ??4?$QList@N@@QEAAAEAV0@AEBV0@@Z 000000014001e220 f i qcustomplot.obj
 0001:0001d220       ??4?$QList@PEAVQCPAxis@@@@QEAAAEAV0@AEBV0@@Z 000000014001e220 f i qcustomplot.obj
 0001:0001d220       ??4?$QList@PEAVQCPLayoutElement@@@@QEAAAEAV0@AEBV0@@Z 000000014001e220 f i qcustomplot.obj
 0001:0001d280       ?at@?$QList@PEAVQCPLayoutElement@@@@QEBAAEBQEAVQCPLayoutElement@@H@Z 000000014001e280 f i qcustomplot.obj
 0001:0001d280       ?at@?$QList@PEAVQCPGraph@@@@QEBAAEBQEAVQCPGraph@@H@Z 000000014001e280 f i qcustomplot.obj
 0001:0001d280       ?at@?$QList@V?$QList@PEAVQCPLayoutElement@@@@@@QEBAAEBV?$QList@PEAVQCPLayoutElement@@@@H@Z 000000014001e280 f i qcustomplot.obj
 0001:0001d280       ?at@?$QList@PEAVPgnDatabase@@@@QEBAAEBQEAVPgnDatabase@@H@Z 000000014001e280 f i gamedatabasemanager.obj
 0001:0001d280       ?at@?$QList@PEAVEngineOption@@@@QEBAAEBQEAVEngineOption@@H@Z 000000014001e280 f i engineoptionmodel.obj
 0001:0001d2f0       ?setupUi@Ui_EngineSelectionDialog@@QEAAXPEAVQDialog@@@Z 000000014001e2f0 f i engineselectiondlg.obj
 0001:0001d8c0       ??_GEngineSelectionDialog@@UEAAPEAXI@Z 000000014001e8c0 f i engineselectiondlg.obj
 0001:0001d8c0       ??_EEngineSelectionDialog@@UEAAPEAXI@Z 000000014001e8c0 f i * CIL library *:* CIL module *
 0001:0001d900       ??1EngineSelectionDialog@@UEAA@XZ 000000014001e900 f   engineselectiondlg.obj
 0001:0001d960       ??_EEngineSelectionDialog@@WBA@EAAPEAXI@Z 000000014001e960 f i engineselectiondlg.obj
 0001:0001d970       ?checkQObjectShared@ExternalRefCountData@QtSharedPointer@@QEAAXZZ 000000014001e970 f i evalhistory.obj
 0001:0001d970       ?enableSharedFromThis@?$QSharedPointer@VQCPAbstractPaintBuffer@@@@AEAAXZZ 000000014001e970 f i qcustomplot.obj
 0001:0001d970       ?enableSharedFromThis@?$QSharedPointer@VQCPAxisTicker@@@@AEAAXZZ 000000014001e970 f i evalhistory.obj
 0001:0001d970       ?setQObjectShared@ExternalRefCountData@QtSharedPointer@@QEAAXZZ 000000014001e970 f i evalhistory.obj
 0001:0001d970       ?enableSharedFromThis@?$QSharedPointer@VZobrist@Chess@@@@AEAAXZZ 000000014001e970 f i cutechess:board.obj
 0001:0001d970       ?enableSharedFromThis@?$QSharedPointer@V?$QCPDataContainer@VQCPGraphData@@@@@@AEAAXZZ 000000014001e970 f i qcustomplot.obj
 0001:0001d980       ??0EvalHistory@@QEAA@PEAVQWidget@@@Z 000000014001e980 f   evalhistory.obj
 0001:0001de80       ??_GEvalHistory@@UEAAPEAXI@Z 000000014001ee80 f i evalhistory.obj
 0001:0001de80       ??_EEvalHistory@@UEAAPEAXI@Z 000000014001ee80 f i * CIL library *:* CIL module *
 0001:0001dee0       ?setGame@EvalHistory@@QEAAXPEAVChessGame@@@Z 000000014001eee0 f   evalhistory.obj
 0001:0001e090       ?setScores@EvalHistory@@AEAAXAEBV?$QMap@HH@@@Z 000000014001f090 f   evalhistory.obj
 0001:0001e2f0       ?addData@EvalHistory@@AEAAXHH@Z 000000014001f2f0 f   evalhistory.obj
 0001:0001e3b0       ?replot@EvalHistory@@AEAAXH@Z 000000014001f3b0 f   evalhistory.obj
 0001:0001e650       ??1?$QSharedPointer@VZobrist@Chess@@@@QEAA@XZ 000000014001f650 f i cutechess:board.obj
 0001:0001e650       ??1?$QSharedPointer@VQCPAxisTicker@@@@QEAA@XZ 000000014001f650 f i evalhistory.obj
 0001:0001e650       ??1?$QSharedPointer@VQCPAxisTickerFixed@@@@QEAA@XZ 000000014001f650 f i evalhistory.obj
 0001:0001e650       ??1?$QSharedPointer@V?$QCPDataContainer@VQCPGraphData@@@@@@QEAA@XZ 000000014001f650 f i qcustomplot.obj
 0001:0001e650       ??1?$QSharedPointer@VQCPAbstractPaintBuffer@@@@QEAA@XZ 000000014001f650 f i qcustomplot.obj
 0001:0001e6a0       ??1?$QMap@HPEAVPgnDatabase@@@@QEAA@XZ 000000014001f6a0 f i gamedatabasedlg.obj
 0001:0001e6a0       ??1?$QMap@NVQColor@@@@QEAA@XZ 000000014001f6a0 f i qcustomplot.obj
 0001:0001e6a0       ??1?$QMap@PEAVChessGame@@PEAVGameWallWidget@@@@QEAA@XZ 000000014001f6a0 f i gamewall.obj
 0001:0001e6a0       ??1?$QMap@HH@@QEAA@XZ      000000014001f6a0 f i evalhistory.obj
 0001:0001e6f0       ??$qSharedPointerDynamicCast@VQCPAxisTickerFixed@@VQCPAxisTicker@@@@YA?AV?$QSharedPointer@VQCPAxisTickerFixed@@@@AEBV?$QSharedPointer@VQCPAxisTicker@@@@@Z 000000014001f6f0 f i evalhistory.obj
 0001:0001e7e0       ?deleter@?$ExternalRefCountWithCustomDeleter@VQCPAbstractPaintBuffer@@UNormalDeleter@QtSharedPointer@@@QtSharedPointer@@SAXPEAUExternalRefCountData@2@@Z 000000014001f7e0 f i qcustomplot.obj
 0001:0001e7e0       ?deleter@?$ExternalRefCountWithCustomDeleter@VZobrist@Chess@@UNormalDeleter@QtSharedPointer@@@QtSharedPointer@@SAXPEAUExternalRefCountData@2@@Z 000000014001f7e0 f i cutechess:board.obj
 0001:0001e7e0       ?deleter@?$ExternalRefCountWithCustomDeleter@VQCPAxisTickerFixed@@UNormalDeleter@QtSharedPointer@@@QtSharedPointer@@SAXPEAUExternalRefCountData@2@@Z 000000014001f7e0 f i evalhistory.obj
 0001:0001e7e0       ?deleter@?$ExternalRefCountWithCustomDeleter@VQCPAxisTicker@@UNormalDeleter@QtSharedPointer@@@QtSharedPointer@@SAXPEAUExternalRefCountData@2@@Z 000000014001f7e0 f i qcustomplot.obj
 0001:0001e7f8       ??_EEvalHistory@@WBA@EAAPEAXI@Z 000000014001f7f8 f i evalhistory.obj
 0001:0001e810       ??0EvalWidget@@QEAA@PEAVQWidget@@@Z 000000014001f810 f   evalwidget.obj
 0001:0001edf0       ??_EQTableWidget@@UEAAPEAXI@Z 000000014001fdf0 f i * CIL library *:* CIL module *
 0001:0001edf0       ??_GQTableWidget@@UEAAPEAXI@Z 000000014001fdf0 f i evalwidget.obj
 0001:0001ee30       ??_GEvalWidget@@UEAAPEAXI@Z 000000014001fe30 f i evalwidget.obj
 0001:0001ee30       ??_EEvalWidget@@UEAAPEAXI@Z 000000014001fe30 f i * CIL library *:* CIL module *
 0001:0001eea0       ??_EQTableWidgetItem@@UEAAPEAXI@Z 000000014001fea0 f i * CIL library *:* CIL module *
 0001:0001eea0       ??_GQTableWidgetItem@@UEAAPEAXI@Z 000000014001fea0 f i evalwidget.obj
 0001:0001eee0       ?clear@EvalWidget@@AEAAXXZ 000000014001fee0 f   evalwidget.obj
 0001:0001ef20       ?setPlayer@EvalWidget@@QEAAXPEAVChessPlayer@@@Z 000000014001ff20 f   evalwidget.obj
 0001:0001f0a0       ?onEval@EvalWidget@@AEAAXAEBVMoveEvaluation@@@Z 00000001400200a0 f   evalwidget.obj
 0001:0001fc90       ??1?$QVector@VQCPDataRange@@@@QEAA@XZ 0000000140020c90 f i qcustomplot.obj
 0001:0001fc90       ??1?$QVector@UMoveData@WesternBoard@Chess@@@@QEAA@XZ 0000000140020c90 f i cutechess:standardboard.obj
 0001:0001fc90       ??1?$QVector@PEAVGraphicsPiece@@@@QEAA@XZ 0000000140020c90 f i graphicsboard.obj
 0001:0001fc90       ??1?$QVector@PEAVQCPLayoutElement@@@@QEAA@XZ 0000000140020c90 f i qcustomplot.obj
 0001:0001fc90       ??1?$QVector@N@@QEAA@XZ    0000000140020c90 f i qcustomplot.obj
 0001:0001fc90       ??1?$QVector@PEAVQTableWidgetItem@@@@QEAA@XZ 0000000140020c90 f i evalwidget.obj
 0001:0001fcf0       ?realloc@?$QVector@N@@AEAAXHV?$QFlags@W4AllocationOption@QArrayData@@@@@Z 0000000140020cf0 f i qcustomplot.obj
 0001:0001fcf0       ?realloc@?$QVector@PEAVQCPLayoutElement@@@@AEAAXHV?$QFlags@W4AllocationOption@QArrayData@@@@@Z 0000000140020cf0 f i qcustomplot.obj
 0001:0001fcf0       ?realloc@?$QVector@PEAVGraphicsPiece@@@@AEAAXHV?$QFlags@W4AllocationOption@QArrayData@@@@@Z 0000000140020cf0 f i graphicsboard.obj
 0001:0001fcf0       ?realloc@?$QVector@PEAVQTableWidgetItem@@@@AEAAXHV?$QFlags@W4AllocationOption@QArrayData@@@@@Z 0000000140020cf0 f i evalwidget.obj
 0001:0001ff54       ??_EQTableWidget@@WBA@EAAPEAXI@Z 0000000140020f54 f i evalwidget.obj
 0001:0001ff60       ??_EEvalWidget@@WBA@EAAPEAXI@Z 0000000140020f60 f i evalwidget.obj
 0001:0001ff70       ??_GGameDatabaseManager@@UEAAPEAXI@Z 0000000140020f70 f i gamedatabasemanager.obj
 0001:0001ff70       ??_EGameDatabaseManager@@UEAAPEAXI@Z 0000000140020f70 f i * CIL library *:* CIL module *
 0001:00020030       ?writeState@GameDatabaseManager@@QEAA_NAEBVQString@@@Z 0000000140021030 f   gamedatabasemanager.obj
 0001:000202a0       ?readState@GameDatabaseManager@@QEAA_NAEBVQString@@@Z 00000001400212a0 f   gamedatabasemanager.obj
 0001:00020760       ?importPgnFile@GameDatabaseManager@@QEAAXAEBVQString@@@Z 0000000140021760 f   gamedatabasemanager.obj
 0001:00020900       ?removeDatabase@GameDatabaseManager@@QEAAXH@Z 0000000140021900 f   gamedatabasemanager.obj
 0001:00020990       ?importDatabaseAgain@GameDatabaseManager@@QEAAXH@Z 0000000140021990 f   gamedatabasemanager.obj
 0001:00020a30       ?append@?$QList@PEBVPgnGameEntry@@@@QEAAXAEBQEBVPgnGameEntry@@@Z 0000000140021a30 f i gamedatabasemanager.obj
 0001:00020a30       ?append@?$QList@PEAVQCPLayoutElement@@@@QEAAXAEBQEAVQCPLayoutElement@@@Z 0000000140021a30 f i qcustomplot.obj
 0001:00020a30       ?append@?$QList@PEAVQCPAxis@@@@QEAAXAEBQEAVQCPAxis@@@Z 0000000140021a30 f i qcustomplot.obj
 0001:00020a80       ?detach_helper_grow@?$QList@PEAVQCPAxis@@@@AEAAPEAUNode@1@HH@Z 0000000140021a80 f i qcustomplot.obj
 0001:00020a80       ?detach_helper_grow@?$QList@PEBVPgnGameEntry@@@@AEAAPEAUNode@1@HH@Z 0000000140021a80 f i gamedatabasemanager.obj
 0001:00020a80       ?detach_helper_grow@?$QList@PEAVQCPLayoutElement@@@@AEAAPEAUNode@1@HH@Z 0000000140021a80 f i qcustomplot.obj
 0001:00020b70       ?setupUi@Ui_GameDatabaseSearchDialog@@QEAAXPEAVQDialog@@@Z 0000000140021b70 f i gamedatabasesearchdlg.obj
 0001:00022070       ?retranslateUi@Ui_GameDatabaseSearchDialog@@QEAAXPEAVQDialog@@@Z 0000000140023070 f i gamedatabasesearchdlg.obj
 0001:00022aa0       ??_GQDateEdit@@UEAAPEAXI@Z 0000000140023aa0 f i gamedatabasesearchdlg.obj
 0001:00022aa0       ??_EQDateEdit@@UEAAPEAXI@Z 0000000140023aa0 f i * CIL library *:* CIL module *
 0001:00022ae0       ??_GGameDatabaseSearchDialog@@UEAAPEAXI@Z 0000000140023ae0 f i gamedatabasesearchdlg.obj
 0001:00022ae0       ??_EGameDatabaseSearchDialog@@UEAAPEAXI@Z 0000000140023ae0 f i * CIL library *:* CIL module *
 0001:00022b40       ??1GameDatabaseSearchDialog@@UEAA@XZ 0000000140023b40 f   gamedatabasesearchdlg.obj
 0001:00022b80       ?filter@GameDatabaseSearchDialog@@QEBA?AVPgnGameFilter@@XZ 0000000140023b80 f   gamedatabasesearchdlg.obj
 0001:00022da0       ??1PgnGameFilter@@QEAA@XZ  0000000140023da0 f i gamedatabasesearchdlg.obj
 0001:00022de4       ??_EQDateEdit@@WBA@EAAPEAXI@Z 0000000140023de4 f i gamedatabasesearchdlg.obj
 0001:00022df0       ??_EGameDatabaseSearchDialog@@WBA@EAAPEAXI@Z 0000000140023df0 f i gamedatabasesearchdlg.obj
 0001:00022e00       ?setupUi@Ui_GameSettingsWidget@@QEAAXPEAVQWidget@@@Z 0000000140023e00 f i gamesettingswidget.obj
 0001:00024e60       ?retranslateUi@Ui_GameSettingsWidget@@QEAAXPEAVQWidget@@@Z 0000000140025e60 f i gamesettingswidget.obj
 0001:00025af0       ??_EQGroupBox@@UEAAPEAXI@Z 0000000140026af0 f i * CIL library *:* CIL module *
 0001:00025af0       ??_GQGroupBox@@UEAAPEAXI@Z 0000000140026af0 f i gamesettingswidget.obj
 0001:00025b30       ??_GQRadioButton@@UEAAPEAXI@Z 0000000140026b30 f i gamesettingswidget.obj
 0001:00025b30       ??_EQRadioButton@@UEAAPEAXI@Z 0000000140026b30 f i * CIL library *:* CIL module *
 0001:00025b70       ??0GameSettingsWidget@@QEAA@PEAVQWidget@@@Z 0000000140026b70 f   gamesettingswidget.obj
 0001:00026250       ??_EGameSettingsWidget@@UEAAPEAXI@Z 0000000140027250 f i * CIL library *:* CIL module *
 0001:00026250       ??_GGameSettingsWidget@@UEAAPEAXI@Z 0000000140027250 f i gamesettingswidget.obj
 0001:000262d0       ?adjudicator@GameSettingsWidget@@QEBA?AVGameAdjudicator@@XZ 00000001400272d0 f   gamesettingswidget.obj
 0001:00026440       ??1GameAdjudicator@@QEAA@XZ 0000000140027440 f i gamesettingswidget.obj
 0001:00026450       ?openingSuite@GameSettingsWidget@@QEBAPEAVOpeningSuite@@XZ 0000000140027450 f   gamesettingswidget.obj
 0001:000265d0       ??_GOpeningSuite@@QEAAPEAXI@Z 00000001400275d0 f i gamesettingswidget.obj
 0001:000266c0       ?openingBook@GameSettingsWidget@@QEBAPEAVOpeningBook@@XZ 00000001400276c0 f   gamesettingswidget.obj
 0001:00026880       ?readSettings@GameSettingsWidget@@AEAAXXZ 0000000140027880 f   gamesettingswidget.obj
 0001:000273e0       ?enableSettingsUpdates@GameSettingsWidget@@QEAAXXZ 00000001400283e0 f   gamesettingswidget.obj
 0001:00027d80       ?onHumanCountChanged@GameSettingsWidget@@QEAAXH@Z 0000000140028d80 f   gamesettingswidget.obj
 0001:00027e60       ?validateFen@GameSettingsWidget@@AEAAXAEBVQString@@@Z 0000000140028e60 f   gamesettingswidget.obj
 0001:0002937c       ??_EGameSettingsWidget@@WBA@EAAPEAXI@Z 000000014002a37c f i gamesettingswidget.obj
 0001:00029388       ??_EQRadioButton@@WBA@EAAPEAXI@Z 000000014002a388 f i gamesettingswidget.obj
 0001:00029394       ??_EQGroupBox@@WBA@EAAPEAXI@Z 000000014002a394 f i gamesettingswidget.obj
 0001:000293a0       ??_GGameTabBar@@UEAAPEAXI@Z 000000014002a3a0 f i gametabbar.obj
 0001:000293a0       ??_EGameTabBar@@UEAAPEAXI@Z 000000014002a3a0 f i * CIL library *:* CIL module *
 0001:000293d8       ??_EGameTabBar@@WBA@EAAPEAXI@Z 000000014002a3d8 f i gametabbar.obj
 0001:000293f0       ??0GameViewer@@QEAA@W4Orientation@Qt@@PEAVQWidget@@_N@Z 000000014002a3f0 f   gameviewer.obj
 0001:00029b80       ??_EQSlider@@UEAAPEAXI@Z   000000014002ab80 f i * CIL library *:* CIL module *
 0001:00029b80       ??_GQSlider@@UEAAPEAXI@Z   000000014002ab80 f i gameviewer.obj
 0001:00029bc0       ??_GGameViewer@@UEAAPEAXI@Z 000000014002abc0 f i gameviewer.obj
 0001:00029bc0       ??_EGameViewer@@UEAAPEAXI@Z 000000014002abc0 f i * CIL library *:* CIL module *
 0001:00029c80       ?setGame@GameViewer@@QEAAXPEAVChessGame@@@Z 000000014002ac80 f   gameviewer.obj
 0001:00029f90       ?setGame@GameViewer@@QEAAXPEBVPgnGame@@@Z 000000014002af90 f   gameviewer.obj
 0001:0002a180       ?disconnectGame@GameViewer@@QEAAXXZ 000000014002b180 f   gameviewer.obj
 0001:0002a2c0       ?viewPreviousMove@GameViewer@@AEAAXXZ 000000014002b2c0 f   gameviewer.obj
 0001:0002a330       ?viewNextMove@GameViewer@@AEAAXXZ 000000014002b330 f   gameviewer.obj
 0001:0002a4a0       ?viewLastMove@GameViewer@@AEAAXXZ 000000014002b4a0 f   gameviewer.obj
 0001:0002a710       ?viewMove@GameViewer@@QEAAXH_N@Z 000000014002b710 f   gameviewer.obj
 0001:0002a850       ??1?$QVector@U?$QPair@VQCPDataRange@@V1@@@@@QEAA@XZ 000000014002b850 f i qcustomplot.obj
 0001:0002a850       ??1?$QVector@UMoveData@Board@Chess@@@@QEAA@XZ 000000014002b850 f i cutechess:board.obj
 0001:0002a850       ??1?$QVector@VQCPGraphData@@@@QEAA@XZ 000000014002b850 f i qcustomplot.obj
 0001:0002a850       ??1?$QVector@VGenericMove@Chess@@@@QEAA@XZ 000000014002b850 f i gameviewer.obj
 0001:0002a8b0       ?append@?$QVector@VGenericMove@Chess@@@@QEAAXAEBVGenericMove@Chess@@@Z 000000014002b8b0 f i gameviewer.obj
 0001:0002a960       ?deallocate@?$QTypedArrayData@U?$QPair@VQCPDataRange@@V1@@@@@SAXPEAUQArrayData@@@Z 000000014002b960 f i qcustomplot.obj
 0001:0002a960       ?deallocate@?$QTypedArrayData@UMoveData@Board@Chess@@@@SAXPEAUQArrayData@@@Z 000000014002b960 f i cutechess:board.obj
 0001:0002a960       ?deallocate@?$QTypedArrayData@VGenericMove@Chess@@@@SAXPEAUQArrayData@@@Z 000000014002b960 f i gameviewer.obj
 0001:0002a960       ?deallocate@?$QTypedArrayData@UFilePosition@OpeningSuite@@@@SAXPEAUQArrayData@@@Z 000000014002b960 f i cutechess:openingsuite.obj
 0001:0002a960       ?deallocate@?$QTypedArrayData@VQCPGraphData@@@@SAXPEAUQArrayData@@@Z 000000014002b960 f i qcustomplot.obj
 0001:0002a970       ?detach@?$QVector@UMoveData@Board@Chess@@@@QEAAXXZ 000000014002b970 f i cutechess:board.obj
 0001:0002a970       ?detach@?$QVector@VGenericMove@Chess@@@@QEAAXXZ 000000014002b970 f i gameviewer.obj
 0001:0002a9f0       ?realloc@?$QVector@U?$QPair@VQCPDataRange@@V1@@@@@AEAAXHV?$QFlags@W4AllocationOption@QArrayData@@@@@Z 000000014002b9f0 f i qcustomplot.obj
 0001:0002a9f0       ?realloc@?$QVector@UMoveData@Board@Chess@@@@AEAAXHV?$QFlags@W4AllocationOption@QArrayData@@@@@Z 000000014002b9f0 f i cutechess:board.obj
 0001:0002a9f0       ?realloc@?$QVector@VGenericMove@Chess@@@@AEAAXHV?$QFlags@W4AllocationOption@QArrayData@@@@@Z 000000014002b9f0 f i gameviewer.obj
 0001:0002ac94       ??_EGameViewer@@WBA@EAAPEAXI@Z 000000014002bc94 f i gameviewer.obj
 0001:0002aca0       ??_EQSlider@@WBA@EAAPEAXI@Z 000000014002bca0 f i gameviewer.obj
 0001:0002ad10       ??0GraphicsBoard@@QEAA@HHNPEAVQGraphicsItem@@@Z 000000014002bd10 f   graphicsboard.obj
 0001:0002af70       ??_EGraphicsBoard@@UEAAPEAXI@Z 000000014002bf70 f i * CIL library *:* CIL module *
 0001:0002af70       ??_GGraphicsBoard@@UEAAPEAXI@Z 000000014002bf70 f i graphicsboard.obj
 0001:0002b020       ?type@GraphicsBoard@@UEBAHXZ 000000014002c020 f   graphicsboard.obj
 0001:0002b030       ?boundingRect@GraphicsBoard@@UEBA?AVQRectF@@XZ 000000014002c030 f   graphicsboard.obj
 0001:0002b070       ?paint@GraphicsBoard@@UEAAXPEAVQPainter@@PEBVQStyleOptionGraphicsItem@@PEAVQWidget@@@Z 000000014002c070 f   graphicsboard.obj
 0001:0002bb40       ?squareAt@GraphicsBoard@@QEBA?AVSquare@Chess@@AEBVQPointF@@@Z 000000014002cb40 f   graphicsboard.obj
 0001:0002bc00       ?pieceAt@GraphicsBoard@@QEBAPEAVGraphicsPiece@@AEBVSquare@Chess@@@Z 000000014002cc00 f   graphicsboard.obj
 0001:0002bca0       ?takePieceAt@GraphicsBoard@@QEAAPEAVGraphicsPiece@@AEBVSquare@Chess@@@Z 000000014002cca0 f   graphicsboard.obj
 0001:0002bd60       ?setSquare@GraphicsBoard@@QEAAXAEBVSquare@Chess@@PEAVGraphicsPiece@@@Z 000000014002cd60 f   graphicsboard.obj
 0001:0002bf00       ?movePiece@GraphicsBoard@@QEAAXAEBVSquare@Chess@@0@Z 000000014002cf00 f   graphicsboard.obj
 0001:0002bfe0       ?clearHighlights@GraphicsBoard@@QEAAXXZ 000000014002cfe0 f   graphicsboard.obj
 0001:0002c030       ?setHighlights@GraphicsBoard@@QEAAXAEBV?$QList@VSquare@Chess@@@@@Z 000000014002d030 f   graphicsboard.obj
 0001:0002c3e0       ??_GQGraphicsEllipseItem@@UEAAPEAXI@Z 000000014002d3e0 f i graphicsboard.obj
 0001:0002c3e0       ??_EQGraphicsEllipseItem@@UEAAPEAXI@Z 000000014002d3e0 f i * CIL library *:* CIL module *
 0001:0002c420       ?setFlipped@GraphicsBoard@@QEAAX_N@Z 000000014002d420 f   graphicsboard.obj
 0001:0002c4a0       ??A?$QVector@PEAVGraphicsPiece@@@@QEAAAEAPEAVGraphicsPiece@@H@Z 000000014002d4a0 f i graphicsboard.obj
 0001:0002c500       ?detach@?$QVector@N@@QEAAXXZ 000000014002d500 f i qcustomplot.obj
 0001:0002c500       ?detach@?$QVector@PEAVGraphicsPiece@@@@QEAAXXZ 000000014002d500 f i graphicsboard.obj
 0001:0002c580       ??0GraphicsPiece@@QEAA@AEBVPiece@Chess@@NAEBVQString@@PEAVQSvgRenderer@@PEAVQGraphicsItem@@@Z 000000014002d580 f   graphicspiece.obj
 0001:0002c6b0       ??_EGraphicsPiece@@UEAAPEAXI@Z 000000014002d6b0 f i * CIL library *:* CIL module *
 0001:0002c6b0       ??_GGraphicsPiece@@UEAAPEAXI@Z 000000014002d6b0 f i graphicspiece.obj
 0001:0002c700       ?type@GraphicsPiece@@UEBAHXZ 000000014002d700 f   graphicspiece.obj
 0001:0002c710       ?boundingRect@GraphicsPiece@@UEBA?AVQRectF@@XZ 000000014002d710 f   graphicspiece.obj
 0001:0002c730       ?paint@GraphicsPiece@@UEAAXPEAVQPainter@@PEBVQStyleOptionGraphicsItem@@PEAVQWidget@@@Z 000000014002d730 f   graphicspiece.obj
 0001:0002c810       ?mousePressEvent@GraphicsPiece@@MEAAXPEAVQGraphicsSceneMouseEvent@@@Z 000000014002d810 f   graphicspiece.obj
 0001:0002c850       ?mouseReleaseEvent@GraphicsPiece@@MEAAXPEAVQGraphicsSceneMouseEvent@@@Z 000000014002d850 f   graphicspiece.obj
 0001:0002c888       ??_EGraphicsPiece@@WBA@EAAPEAXI@Z 000000014002d888 f i graphicspiece.obj
 0001:0002c8a0       ??_GGraphicsPieceReserve@@UEAAPEAXI@Z 000000014002d8a0 f i graphicspiecereserve.obj
 0001:0002c8a0       ??_EGraphicsPieceReserve@@UEAAPEAXI@Z 000000014002d8a0 f i * CIL library *:* CIL module *
 0001:0002c950       ??1?$QMultiMap@VPiece@Chess@@PEAVGraphicsPiece@@@@QEAA@XZ 000000014002d950 f i graphicspiecereserve.obj
 0001:0002c9a0       ?type@GraphicsPieceReserve@@UEBAHXZ 000000014002d9a0 f   graphicspiecereserve.obj
 0001:0002c9b0       ?boundingRect@GraphicsPieceReserve@@UEBA?AVQRectF@@XZ 000000014002d9b0 f   graphicspiecereserve.obj
 0001:0002c9d0       ?paint@GraphicsPieceReserve@@UEAAXPEAVQPainter@@PEBVQStyleOptionGraphicsItem@@PEAVQWidget@@@Z 000000014002d9d0 f   graphicspiecereserve.obj
 0001:0002ccd0       ?takePiece@GraphicsPieceReserve@@QEAAPEAVGraphicsPiece@@AEBVPiece@Chess@@@Z 000000014002dcd0 f   graphicspiecereserve.obj
 0001:0002d000       ?addPiece@GraphicsPieceReserve@@QEAAXPEAVGraphicsPiece@@@Z 000000014002e000 f   graphicspiecereserve.obj
 0001:0002d2c0       ?textRect@GraphicsPieceReserve@@AEBA?AVQRectF@@AEBVPiece@Chess@@@Z 000000014002e2c0 f   graphicspiecereserve.obj
 0001:0002d3e0       ?updateTiles@GraphicsPieceReserve@@AEAAXXZ 000000014002e3e0 f   graphicspiecereserve.obj
 0001:0002d460       ?removeLast@?$QList@VPiece@Chess@@@@QEAAXXZ 000000014002e460 f i graphicspiecereserve.obj
 0001:0002d580       ??0?$QList@VPiece@Chess@@@@QEAA@XZ 000000014002e580 f i graphicspiecereserve.obj
 0001:0002d590       ??1?$QList@VPiece@Chess@@@@QEAA@XZ 000000014002e590 f i graphicspiecereserve.obj
 0001:0002d5c0       ??A?$QList@VPiece@Chess@@@@QEAAAEAVPiece@Chess@@H@Z 000000014002e5c0 f i graphicspiecereserve.obj
 0001:0002d640       ?append@?$QList@VPiece@Chess@@@@QEAAXAEBVPiece@Chess@@@Z 000000014002e640 f i graphicspiecereserve.obj
 0001:0002d6b0       ?createNode@?$QMapData@VPiece@Chess@@PEAVGraphicsPiece@@@@QEAAPEAU?$QMapNode@VPiece@Chess@@PEAVGraphicsPiece@@@@AEBVPiece@Chess@@AEBQEAVGraphicsPiece@@PEAU2@_N@Z 000000014002e6b0 f i graphicspiecereserve.obj
 0001:0002d700       ?detach@?$QMap@VPiece@Chess@@PEAVGraphicsPiece@@@@QEAAXXZ 000000014002e700 f i graphicspiecereserve.obj
 0001:0002d7b0       ?detach_helper_grow@?$QList@VPiece@Chess@@@@AEAAPEAUNode@1@HH@Z 000000014002e7b0 f i graphicspiecereserve.obj
 0001:0002d890       ?detach_helper@?$QList@VPiece@Chess@@@@AEAAXH@Z 000000014002e890 f i graphicspiecereserve.obj
 0001:0002d920       ?dealloc@?$QList@VPiece@Chess@@@@AEAAXPEAUData@QListData@@@Z 000000014002e920 f i graphicspiecereserve.obj
 0001:0002d980       ?copy@?$QMapNode@VPiece@Chess@@PEAVGraphicsPiece@@@@QEBAPEAU1@PEAU?$QMapData@VPiece@Chess@@PEAVGraphicsPiece@@@@@Z 000000014002e980 f i graphicspiecereserve.obj
 0001:0002da40       ?node_destruct@?$QList@VPiece@Chess@@@@AEAAXPEAUNode@1@0@Z 000000014002ea40 f i graphicspiecereserve.obj
 0001:0002da90       ?node_copy@?$QList@VPiece@Chess@@@@AEAAXPEAUNode@1@00@Z 000000014002ea90 f i graphicspiecereserve.obj
 0001:0002db00       ?setupUi@Ui_ImportProgressDialog@@QEAAXPEAVQDialog@@@Z 000000014002eb00 f i importprogressdlg.obj
 0001:0002dfa0       ??0ImportProgressDialog@@QEAA@PEAVPgnImporter@@PEAVQWidget@@@Z 000000014002efa0 f   importprogressdlg.obj
 0001:0002e200       ??_EImportProgressDialog@@UEAAPEAXI@Z 000000014002f200 f i * CIL library *:* CIL module *
 0001:0002e200       ??_GImportProgressDialog@@UEAAPEAXI@Z 000000014002f200 f i importprogressdlg.obj
 0001:0002e260       ?updateImportStatus@ImportProgressDialog@@AEAAXAEBVQTime@@H_J@Z 000000014002f260 f   importprogressdlg.obj
 0001:0002e4ec       ??_EImportProgressDialog@@WBA@EAAPEAXI@Z 000000014002f4ec f i importprogressdlg.obj
 0001:0002e500       main                       000000014002f500 f   main.obj
 0001:0002ec60       ??$qRegisterMetaType@VGenericMove@Chess@@@@YAHPEBDPEAVGenericMove@Chess@@W4DefinedType@?$MetaTypeDefinedHelper@VGenericMove@Chess@@$00@QtPrivate@@@Z 000000014002fc60 f i main.obj
 0001:0002edb0       ??$qRegisterMetaType@VMove@Chess@@@@YAHPEBDPEAVMove@Chess@@W4DefinedType@?$MetaTypeDefinedHelper@VMove@Chess@@$00@QtPrivate@@@Z 000000014002fdb0 f i main.obj
 0001:0002ef00       ??$qRegisterMetaType@VSide@Chess@@@@YAHPEBDPEAVSide@Chess@@W4DefinedType@?$MetaTypeDefinedHelper@VSide@Chess@@$00@QtPrivate@@@Z 000000014002ff00 f i main.obj
 0001:0002f050       ??$qRegisterMetaType@VResult@Chess@@@@YAHPEBDPEAVResult@Chess@@W4DefinedType@?$MetaTypeDefinedHelper@VResult@Chess@@$00@QtPrivate@@@Z 0000000140030050 f i main.obj
 0001:0002f1a0       ??$qRegisterMetaType@VMoveEvaluation@@@@YAHPEBDPEAVMoveEvaluation@@W4DefinedType@?$MetaTypeDefinedHelper@VMoveEvaluation@@$00@QtPrivate@@@Z 00000001400301a0 f i main.obj
 0001:0002f2f0       ?erase@?$QList@VQString@@@@QEAA?AViterator@1@V21@@Z 00000001400302f0 f i main.obj
 0001:0002f3e0       ??$qRegisterNormalizedMetaType@VGenericMove@Chess@@@@YAHAEBVQByteArray@@PEAVGenericMove@Chess@@W4DefinedType@?$MetaTypeDefinedHelper@VGenericMove@Chess@@$00@QtPrivate@@@Z 00000001400303e0 f i main.obj
 0001:0002f500       ??$qRegisterNormalizedMetaType@VMove@Chess@@@@YAHAEBVQByteArray@@PEAVMove@Chess@@W4DefinedType@?$MetaTypeDefinedHelper@VMove@Chess@@$00@QtPrivate@@@Z 0000000140030500 f i main.obj
 0001:0002f620       ??$qRegisterNormalizedMetaType@VSide@Chess@@@@YAHAEBVQByteArray@@PEAVSide@Chess@@W4DefinedType@?$MetaTypeDefinedHelper@VSide@Chess@@$00@QtPrivate@@@Z 0000000140030620 f i main.obj
 0001:0002f740       ??$qRegisterNormalizedMetaType@VResult@Chess@@@@YAHAEBVQByteArray@@PEAVResult@Chess@@W4DefinedType@?$MetaTypeDefinedHelper@VResult@Chess@@$00@QtPrivate@@@Z 0000000140030740 f i main.obj
 0001:0002f860       ??$qRegisterNormalizedMetaType@VMoveEvaluation@@@@YAHAEBVQByteArray@@PEAVMoveEvaluation@@W4DefinedType@?$MetaTypeDefinedHelper@VMoveEvaluation@@$00@QtPrivate@@@Z 0000000140030860 f i main.obj
 0001:0002f980       ?Construct@?$QMetaTypeFunctionHelper@UstCaptureMsg@@$00@QtMetaTypePrivate@@SAPEAXPEAXPEBX@Z 0000000140030980 f i main.obj
 0001:0002fa10       ?Construct@?$QMetaTypeFunctionHelper@VMoveEvaluation@@$00@QtMetaTypePrivate@@SAPEAXPEAXPEBX@Z 0000000140030a10 f i main.obj
 0001:0002faf0       ?Destruct@?$QMetaTypeFunctionHelper@VMoveEvaluation@@$00@QtMetaTypePrivate@@SAXPEAX@Z 0000000140030af0 f i main.obj
 0001:0002faf0       ??1MoveEvaluation@@QEAA@XZ 0000000140030af0 f i main.obj
 0001:0002fb20       ?Construct@?$QMetaTypeFunctionHelper@VResult@Chess@@$00@QtMetaTypePrivate@@SAPEAXPEAXPEBX@Z 0000000140030b20 f i main.obj
 0001:0002fba0       ?Construct@?$QMetaTypeFunctionHelper@VSide@Chess@@$00@QtMetaTypePrivate@@SAPEAXPEAXPEBX@Z 0000000140030ba0 f i main.obj
 0001:0002fbc0       ?Construct@?$QMetaTypeFunctionHelper@VGenericMove@Chess@@$00@QtMetaTypePrivate@@SAPEAXPEAXPEBX@Z 0000000140030bc0 f i main.obj
 0001:0002fbe0       ??0MainWindow@@QEAA@PEAVChessGame@@@Z 0000000140030be0 f   mainwindow.obj
 0001:000300c0       ??_GMainWindow@@UEAAPEAXI@Z 00000001400310c0 f i mainwindow.obj
 0001:000300c0       ??_EMainWindow@@UEAAPEAXI@Z 00000001400310c0 f i * CIL library *:* CIL module *
 0001:00030100       ??1MainWindow@@UEAA@XZ     0000000140031100 f   mainwindow.obj
 0001:00030320       ?createActions@MainWindow@@AEAAXXZ 0000000140031320 f   mainwindow.obj
 0001:00031630       ??_GQAction@@UEAAPEAXI@Z   0000000140032630 f i mainwindow.obj
 0001:00031630       ??_EQAction@@UEAAPEAXI@Z   0000000140032630 f i * CIL library *:* CIL module *
 0001:00031670       ?createMenus@MainWindow@@AEAAXXZ 0000000140032670 f   mainwindow.obj
 0001:00031a50       ?createToolBars@MainWindow@@AEAAXXZ 0000000140032a50 f   mainwindow.obj
 0001:000327e0       ??_GQToolBar@@UEAAPEAXI@Z  00000001400337e0 f i mainwindow.obj
 0001:000327e0       ??_EQToolBar@@UEAAPEAXI@Z  00000001400337e0 f i * CIL library *:* CIL module *
 0001:00032820       ?createDockWindows@MainWindow@@AEAAXXZ 0000000140033820 f   mainwindow.obj
 0001:00032df0       ??_GQDockWidget@@UEAAPEAXI@Z 0000000140033df0 f i mainwindow.obj
 0001:00032df0       ??_EQDockWidget@@UEAAPEAXI@Z 0000000140033df0 f i * CIL library *:* CIL module *
 0001:00032e30       ?readSettings@MainWindow@@AEAAXXZ 0000000140033e30 f   mainwindow.obj
 0001:00033000       ?addGame@MainWindow@@QEAAXPEAVChessGame@@@Z 0000000140034000 f   mainwindow.obj
 0001:00033450       ??1TabData@MainWindow@@QEAA@XZ 0000000140034450 f i mainwindow.obj
 0001:00033480       ?removeGame@MainWindow@@AEAAXH@Z 0000000140034480 f   mainwindow.obj
 0001:00033590       ?destroyGame@MainWindow@@AEAAXPEAVChessGame@@@Z 0000000140034590 f   mainwindow.obj
 0001:00033720       ?setCurrentGame@MainWindow@@AEAAXAEBUTabData@1@@Z 0000000140034720 f   mainwindow.obj
 0001:00034200       ?tabIndex@MainWindow@@AEBAHPEAVChessGame@@@Z 0000000140035200 f   mainwindow.obj
 0001:000342d0       ?closeTab@MainWindow@@AEAAXH@Z 00000001400352d0 f   mainwindow.obj
 0001:00034570       ?editBoard@MainWindow@@AEAAXXZ 0000000140035570 f   mainwindow.obj
 0001:00034c10       ?newGame@MainWindow@@AEAAXXZ 0000000140035c10 f   mainwindow.obj
 0001:00034f80       ?onGameStartFailed@MainWindow@@AEAAXPEAVChessGame@@@Z 0000000140035f80 f   mainwindow.obj
 0001:00035000       ?onGameFinished@MainWindow@@AEAAXPEAVChessGame@@@Z 0000000140036000 f   mainwindow.obj
 0001:00035650       ?OpenPgnGame@MainWindow@@AEAAXXZ 0000000140036650 f   mainwindow.obj
 0001:00036060       ?newTournament@MainWindow@@AEAAXXZ 0000000140037060 f   mainwindow.obj
 0001:00036380       ?onWindowMenuAboutToShow@MainWindow@@AEAAXXZ 0000000140037380 f   mainwindow.obj
 0001:00036600       ?updateWindowTitle@MainWindow@@AEAAXXZ 0000000140037600 f   mainwindow.obj
 0001:00036710       ?genericTitle@MainWindow@@AEBA?AVQString@@AEBUTabData@1@@Z 0000000140037710 f   mainwindow.obj
 0001:00036b20       ?updateMenus@MainWindow@@AEAAXXZ 0000000140037b20 f   mainwindow.obj
 0001:00036ce0       ?nameOnClock@MainWindow@@AEBA?AVQString@@AEBV2@VSide@Chess@@@Z 0000000140037ce0 f   mainwindow.obj
 0001:00036e90       ?editMoveComment@MainWindow@@AEAAXHAEBVQString@@@Z 0000000140037e90 f   mainwindow.obj
 0001:000370d0       ??0MoveData@PgnGame@@QEAA@AEBU01@@Z 00000001400380d0 f i mainwindow.obj
 0001:00037120       ?pasteFen@MainWindow@@AEAAXXZ 0000000140038120 f   mainwindow.obj
 0001:00037910       ?showAboutDialog@MainWindow@@AEAAXXZ 0000000140038910 f   mainwindow.obj
 0001:00037e60       ?unlockCurrentGame@MainWindow@@AEAAXXZ 0000000140038e60 f   mainwindow.obj
 0001:00037ef0       ?saveAs@MainWindow@@AEAA_NXZ 0000000140038ef0 f   mainwindow.obj
 0001:00037ff0       ?saveGame@MainWindow@@AEAA_NAEBVQString@@@Z 0000000140038ff0 f   mainwindow.obj
 0001:00038100       ?closeAllGames@MainWindow@@AEAAXXZ 0000000140039100 f   mainwindow.obj
 0001:00038180       ?closeEvent@MainWindow@@MEAAXPEAVQCloseEvent@@@Z 0000000140039180 f   mainwindow.obj
 0001:000383f0       ?adjudicateGame@MainWindow@@AEAAXVSide@Chess@@@Z 00000001400393f0 f   mainwindow.obj
 0001:00038580       ?resignGame@MainWindow@@AEAAXXZ 0000000140039580 f   mainwindow.obj
 0001:000387e0       ?processCapMsg@MainWindow@@AEAAXUstCaptureMsg@@@Z 00000001400397e0 f   mainwindow.obj
 0001:00039160       ?onLXchessboardStart@MainWindow@@AEAAXXZ 000000014003a160 f   mainwindow.obj
 0001:000391b0       ?onLXchessboardStop@MainWindow@@AEAAXXZ 000000014003a1b0 f   mainwindow.obj
 0001:000391f0       ?mainCreatePlayerBuilder@MainWindow@@AEBAPEAVPlayerBuilder@@VSide@Chess@@_N@Z 000000014003a1f0 f   mainwindow.obj
 0001:00039490       ?onPlayWhich@MainWindow@@AEAAXXZ 000000014003a490 f   mainwindow.obj
 0001:00039c90       ?onLinkAutomaticToggled@MainWindow@@AEAAX_N@Z 000000014003ac90 f   mainwindow.obj
 0001:00039e70       ?onLinkWhich@MainWindow@@AEAAX_N@Z 000000014003ae70 f   mainwindow.obj
 0001:00039f00       ?addDefaultWindowMenu@MainWindow@@AEAAXXZ 000000014003af00 f   mainwindow.obj
 0001:00039f70       ??0?$QPointer@VChessPlayer@@@@QEAA@XZ 000000014003af70 f i mainwindow.obj
 0001:00039f80       ??1?$QList@U?$QPair@VQString@@V1@@@@@QEAA@XZ 000000014003af80 f i mainwindow.obj
 0001:00039fe0       ?at@?$QVector@UMoveData@PgnGame@@@@QEBAAEBUMoveData@PgnGame@@H@Z 000000014003afe0 f i mainwindow.obj
 0001:0003a040       ??1?$QList@UTabData@MainWindow@@@@QEAA@XZ 000000014003b040 f i mainwindow.obj
 0001:0003a0a0       ?at@?$QList@U?$QPair@VQString@@V1@@@@@QEBAAEBU?$QPair@VQString@@V1@@@H@Z 000000014003b0a0 f i pgntagsmodel.obj
 0001:0003a0a0       ?at@?$QList@UTabData@MainWindow@@@@QEBAAEBUTabData@MainWindow@@H@Z 000000014003b0a0 f i mainwindow.obj
 0001:0003a100       ??A?$QList@UTabData@MainWindow@@@@QEAAAEAUTabData@MainWindow@@H@Z 000000014003b100 f i mainwindow.obj
 0001:0003a180       ?append@?$QList@UTabData@MainWindow@@@@QEAAXAEBUTabData@MainWindow@@@Z 000000014003b180 f i mainwindow.obj
 0001:0003a1d0       ?qt_metatype_id@?$QMetaTypeId2@PEAVChessGame@@@@SAHXZ 000000014003b1d0 f i mainwindow.obj
 0001:0003a320       ?impl@?$QSlotObject@P8MainWindow@@EAAXPEAVChessGame@@@ZU?$List@PEAVChessGame@@@QtPrivate@@X@QtPrivate@@CAXHPEAVQSlotObjectBase@2@PEAVQObject@@PEAPEAXPEA_N@Z 000000014003b320 f i mainwindow.obj
 0001:0003a3f0       ?impl@?$QSlotObject@P8CuteChessApplication@@EAAXXZU?$List@$$V@QtPrivate@@X@QtPrivate@@CAXHPEAVQSlotObjectBase@2@PEAVQObject@@PEAPEAXPEA_N@Z 000000014003b3f0 f i mainwindow.obj
 0001:0003a4d0       ?detach_helper_grow@?$QList@UTabData@MainWindow@@@@AEAAPEAUNode@1@HH@Z 000000014003b4d0 f i mainwindow.obj
 0001:0003a5c0       ?node_construct@?$QList@UTabData@MainWindow@@@@AEAAXPEAUNode@1@AEBUTabData@MainWindow@@@Z 000000014003b5c0 f i mainwindow.obj
 0001:0003a630       ??_GTabData@MainWindow@@QEAAPEAXI@Z 000000014003b630 f i mainwindow.obj
 0001:0003a680       ?Construct@?$QMetaTypeFunctionHelper@PEAVQCPBars@@$00@QtMetaTypePrivate@@SAPEAXPEAXPEBX@Z 000000014003b680 f i moc_qcustomplot.obj
 0001:0003a680       ?Construct@?$QMetaTypeFunctionHelper@PEAVQCPSelectionDecorator@@$00@QtMetaTypePrivate@@SAPEAXPEAXPEBX@Z 000000014003b680 f i moc_qcustomplot.obj
 0001:0003a680       ?Construct@?$QMetaTypeFunctionHelper@PEAVQCPAxis@@$00@QtMetaTypePrivate@@SAPEAXPEAXPEBX@Z 000000014003b680 f i moc_qcustomplot.obj
 0001:0003a680       ?Construct@?$QMetaTypeFunctionHelper@PEAVQCPBarsGroup@@$00@QtMetaTypePrivate@@SAPEAXPEAXPEBX@Z 000000014003b680 f i moc_qcustomplot.obj
 0001:0003a680       ?Construct@?$QMetaTypeFunctionHelper@PEAVQCPGraph@@$00@QtMetaTypePrivate@@SAPEAXPEAXPEBX@Z 000000014003b680 f i moc_qcustomplot.obj
 0001:0003a680       ?Construct@?$QMetaTypeFunctionHelper@PEAVQCPColorScale@@$00@QtMetaTypePrivate@@SAPEAXPEAXPEBX@Z 000000014003b680 f i moc_qcustomplot.obj
 0001:0003a680       ?Construct@?$QMetaTypeFunctionHelper@PEAVQCPLayoutGrid@@$00@QtMetaTypePrivate@@SAPEAXPEAXPEBX@Z 000000014003b680 f i moc_qcustomplot.obj
 0001:0003a680       ?Construct@?$QMetaTypeFunctionHelper@PEAVQCPAxisRect@@$00@QtMetaTypePrivate@@SAPEAXPEAXPEBX@Z 000000014003b680 f i moc_qcustomplot.obj
 0001:0003a680       ?Construct@?$QMetaTypeFunctionHelper@PEAVQCPLegend@@$00@QtMetaTypePrivate@@SAPEAXPEAXPEBX@Z 000000014003b680 f i moc_qcustomplot.obj
 0001:0003a680       ?Construct@?$QMetaTypeFunctionHelper@PEAVChessGame@@$00@QtMetaTypePrivate@@SAPEAXPEAXPEBX@Z 000000014003b680 f i mainwindow.obj
 0001:0003a680       ?Construct@?$QMetaTypeFunctionHelper@PEAVQCPAbstractItem@@$00@QtMetaTypePrivate@@SAPEAXPEAXPEBX@Z 000000014003b680 f i moc_qcustomplot.obj
 0001:0003a680       ?Construct@?$QMetaTypeFunctionHelper@PEAVQCustomPlot@@$00@QtMetaTypePrivate@@SAPEAXPEAXPEBX@Z 000000014003b680 f i moc_qcustomplot.obj
 0001:0003a680       ?Construct@?$QMetaTypeFunctionHelper@PEAVQCPAbstractLegendItem@@$00@QtMetaTypePrivate@@SAPEAXPEAXPEBX@Z 000000014003b680 f i moc_qcustomplot.obj
 0001:0003a680       ?Construct@?$QMetaTypeFunctionHelper@PEAVQCPAbstractPlottable@@$00@QtMetaTypePrivate@@SAPEAXPEAXPEBX@Z 000000014003b680 f i moc_qcustomplot.obj
 0001:0003a680       ?Construct@?$QMetaTypeFunctionHelper@PEAVQCPGrid@@$00@QtMetaTypePrivate@@SAPEAXPEAXPEBX@Z 000000014003b680 f i moc_qcustomplot.obj
 0001:0003a680       ?Construct@?$QMetaTypeFunctionHelper@PEAVQCPLayer@@$00@QtMetaTypePrivate@@SAPEAXPEAXPEBX@Z 000000014003b680 f i moc_qcustomplot.obj
 0001:0003a680       ?Construct@?$QMetaTypeFunctionHelper@PEAVQCPLayout@@$00@QtMetaTypePrivate@@SAPEAXPEAXPEBX@Z 000000014003b680 f i moc_qcustomplot.obj
 0001:0003a680       ?Construct@?$QMetaTypeFunctionHelper@PEAVQCPLayerable@@$00@QtMetaTypePrivate@@SAPEAXPEAXPEBX@Z 000000014003b680 f i moc_qcustomplot.obj
 0001:0003a790       ?node_destruct@?$QList@U?$QPair@VQString@@V1@@@@@AEAAXPEAUNode@1@0@Z 000000014003b790 f i mainwindow.obj
 0001:0003a800       ?detach_helper@?$QList@UTabData@MainWindow@@@@AEAAXH@Z 000000014003b800 f i mainwindow.obj
 0001:0003a8b0       ?node_destruct@?$QList@UTabData@MainWindow@@@@AEAAXPEAUNode@1@0@Z 000000014003b8b0 f i mainwindow.obj
 0001:0003a930       ?node_copy@?$QList@UTabData@MainWindow@@@@AEAAXPEAUNode@1@00@Z 000000014003b930 f i mainwindow.obj
 0001:0003a9d0       ??_G?$QPair@VQString@@V1@@@QEAAPEAXI@Z 000000014003b9d0 f i mainwindow.obj
 0001:0003aa10       ??1?$QPair@VQString@@V1@@@QEAA@XZ 000000014003ba10 f i mainwindow.obj
 0001:0003aa34       ??_EQToolBar@@WBA@EAAPEAXI@Z 000000014003ba34 f i mainwindow.obj
 0001:0003aa40       ??_EMainWindow@@WBA@EAAPEAXI@Z 000000014003ba40 f i mainwindow.obj
 0001:0003aa4c       ??_EQDockWidget@@WBA@EAAPEAXI@Z 000000014003ba4c f i mainwindow.obj
 0001:0003aa60       ??_EMoveCommentToken@@UEAAPEAXI@Z 000000014003ba60 f i * CIL library *:* CIL module *
 0001:0003aa60       ??_GMoveToken@@UEAAPEAXI@Z 000000014003ba60 f i movelist.obj
 0001:0003aa60       ??_GMoveCommentToken@@UEAAPEAXI@Z 000000014003ba60 f i movecommenttoken.obj
 0001:0003aa60       ??_EMoveToken@@UEAAPEAXI@Z 000000014003ba60 f i * CIL library *:* CIL module *
 0001:0003aab0       ?toString@MoveCommentToken@@UEBA?AVQString@@XZ 000000014003bab0 f   movecommenttoken.obj
 0001:0003aab0       ?toString@MoveToken@@UEBA?AVQString@@XZ 000000014003bab0 f   movetoken.obj
 0001:0003aad0       ?vInsert@MoveCommentToken@@MEAAXAEAVQTextCursor@@@Z 000000014003bad0 f   movecommenttoken.obj
 0001:0003abe0       ??0MoveList@@QEAA@PEAVQWidget@@@Z 000000014003bbe0 f   movelist.obj
 0001:0003af30       ??_EMoveList@@UEAAPEAXI@Z  000000014003bf30 f i * CIL library *:* CIL module *
 0001:0003af30       ??_GMoveList@@UEAAPEAXI@Z  000000014003bf30 f i movelist.obj
 0001:0003b000       ??_GQTextBrowser@@UEAAPEAXI@Z 000000014003c000 f i movelist.obj
 0001:0003b000       ??_EQTextBrowser@@UEAAPEAXI@Z 000000014003c000 f i * CIL library *:* CIL module *
 0001:0003b040       ?insertMove@MoveList@@AEAAXHAEBVQString@@0VQTextCursor@@@Z 000000014003c040 f   movelist.obj
 0001:0003b2a0       ??1Move@MoveList@@QEAA@XZ  000000014003c2a0 f i movelist.obj
 0001:0003b2e0       ?setGame@MoveList@@QEAAXPEAVChessGame@@PEAVPgnGame@@@Z 000000014003c2e0 f   movelist.obj
 0001:0003b5e0       ?eventFilter@MoveList@@MEAA_NPEAVQObject@@PEAVQEvent@@@Z 000000014003c5e0 f   movelist.obj
 0001:0003b6a0       ?setMove@MoveList@@QEAAXHAEBVGenericMove@Chess@@AEBVQString@@1@Z 000000014003c6a0 f   movelist.obj
 0001:0003baa0       ?selectChosenMove@MoveList@@AEAAXXZ 000000014003caa0 f   movelist.obj
 0001:0003bc40       ?selectMove@MoveList@@QEAA_NH@Z 000000014003cc40 f   movelist.obj
 0001:0003bc80       ?onLinkClicked@MoveList@@AEAAXAEBVQUrl@@@Z 000000014003cc80 f   movelist.obj
 0001:0003bf20       ??1?$QList@UMove@MoveList@@@@QEAA@XZ 000000014003cf20 f i movelist.obj
 0001:0003bf80       ?clear@?$QList@UMove@MoveList@@@@QEAAXXZ 000000014003cf80 f i movelist.obj
 0001:0003c0d0       ??A?$QList@UMove@MoveList@@@@QEAAAEAUMove@MoveList@@H@Z 000000014003d0d0 f i movelist.obj
 0001:0003c150       ?append@?$QList@UMove@MoveList@@@@QEAAXAEBUMove@MoveList@@@Z 000000014003d150 f i movelist.obj
 0001:0003c1c0       ?detach_helper_grow@?$QList@UMove@MoveList@@@@AEAAPEAUNode@1@HH@Z 000000014003d1c0 f i movelist.obj
 0001:0003c2b0       ??0Move@MoveList@@QEAA@AEBU01@@Z 000000014003d2b0 f i movelist.obj
 0001:0003c370       ??_GMove@MoveList@@QEAAPEAXI@Z 000000014003d370 f i movelist.obj
 0001:0003c3c0       ??_GPgnToken@@UEAAPEAXI@Z  000000014003d3c0 f i movelist.obj
 0001:0003c3c0       ??_EPgnToken@@UEAAPEAXI@Z  000000014003d3c0 f i * CIL library *:* CIL module *
 0001:0003c3f0       ??_GMoveNumberToken@@UEAAPEAXI@Z 000000014003d3f0 f i movelist.obj
 0001:0003c3f0       ??_EMoveNumberToken@@UEAAPEAXI@Z 000000014003d3f0 f i * CIL library *:* CIL module *
 0001:0003c420       ?detach_helper@?$QList@UMove@MoveList@@@@AEAAXH@Z 000000014003d420 f i movelist.obj
 0001:0003c4d0       ?node_destruct@?$QList@UMove@MoveList@@@@AEAAXPEAUNode@1@0@Z 000000014003d4d0 f i movelist.obj
 0001:0003c560       ?node_copy@?$QList@UMove@MoveList@@@@AEAAXPEAUNode@1@00@Z 000000014003d560 f i movelist.obj
 0001:0003c664       ??_EMoveList@@WBA@EAAPEAXI@Z 000000014003d664 f i movelist.obj
 0001:0003c670       ??_EQTextBrowser@@WBA@EAAPEAXI@Z 000000014003d670 f i movelist.obj
 0001:0003c680       ?toString@MoveNumberToken@@UEBA?AVQString@@XZ 000000014003d680 f   movenumbertoken.obj
 0001:0003c760       ?vInsert@MoveNumberToken@@MEAAXAEAVQTextCursor@@@Z 000000014003d760 f   movenumbertoken.obj
 0001:0003c890       ?vInsert@MoveToken@@MEAAXAEAVQTextCursor@@@Z 000000014003d890 f   movetoken.obj
 0001:0003c950       ?setupUi@Ui_NewGameDialog@@QEAAXPEAVQDialog@@@Z 000000014003d950 f i newgamedlg.obj
 0001:0003d530       ?retranslateUi@Ui_NewGameDialog@@QEAAXPEAVQDialog@@@Z 000000014003e530 f i newgamedlg.obj
 0001:0003d7d0       ??0NewGameDialog@@QEAA@PEAVEngineManager@@PEAVQWidget@@@Z 000000014003e7d0 f   newgamedlg.obj
 0001:0003dd70       ??_GNewGameDialog@@UEAAPEAXI@Z 000000014003ed70 f i newgamedlg.obj
 0001:0003dd70       ??_ENewGameDialog@@UEAAPEAXI@Z 000000014003ed70 f i * CIL library *:* CIL module *
 0001:0003ddf0       ??1NewGameDialog@@UEAA@XZ  000000014003edf0 f   newgamedlg.obj
 0001:0003de50       ?createGame@NewGameDialog@@QEBAPEAVChessGame@@XZ 000000014003ee50 f   newgamedlg.obj
 0001:0003e270       ?createPlayerBuilder@NewGameDialog@@QEBAPEAVPlayerBuilder@@VSide@Chess@@@Z 000000014003f270 f   newgamedlg.obj
 0001:0003e490       ?onVariantChanged@NewGameDialog@@AEAAXAEBVQString@@@Z 000000014003f490 f   newgamedlg.obj
 0001:0003e540       ?onEngineChanged@NewGameDialog@@AEAAXHVSide@Chess@@@Z 000000014003f540 f   newgamedlg.obj
 0001:0003e888       ??_ENewGameDialog@@WBA@EAAPEAXI@Z 000000014003f888 f i newgamedlg.obj
 0001:0003e8a0       ?setupUi@Ui_NewTournamentDialog@@QEAAXPEAVQDialog@@@Z 000000014003f8a0 f i newtournamentdialog.obj
 0001:0003fe50       ?retranslateUi@Ui_NewTournamentDialog@@QEAAXPEAVQDialog@@@Z 0000000140040e50 f i newtournamentdialog.obj
 0001:00040240       ??0NewTournamentDialog@@QEAA@PEAVEngineManager@@PEAVQWidget@@@Z 0000000140041240 f   newtournamentdialog.obj
 0001:000409b0       ??_GNewTournamentDialog@@UEAAPEAXI@Z 00000001400419b0 f i newtournamentdialog.obj
 0001:000409b0       ??_ENewTournamentDialog@@UEAAPEAXI@Z 00000001400419b0 f i * CIL library *:* CIL module *
 0001:00040a10       ??1NewTournamentDialog@@UEAA@XZ 0000000140041a10 f   newtournamentdialog.obj
 0001:00040a50       ?addEngine@NewTournamentDialog@@AEAAXXZ 0000000140041a50 f   newtournamentdialog.obj
 0001:00040e00       ?removeEngine@NewTournamentDialog@@AEAAXXZ 0000000140041e00 f   newtournamentdialog.obj
 0001:00040fa0       ?configureEngine@NewTournamentDialog@@AEAAXAEBVQModelIndex@@@Z 0000000140041fa0 f   newtournamentdialog.obj
 0001:00041180       ?moveEngine@NewTournamentDialog@@AEAAXH@Z 0000000140042180 f   newtournamentdialog.obj
 0001:000412f0       ?canStart@NewTournamentDialog@@AEBA_NXZ 00000001400422f0 f   newtournamentdialog.obj
 0001:000414a0       ?onVariantChanged@NewTournamentDialog@@AEAAXAEBVQString@@@Z 00000001400424a0 f   newtournamentdialog.obj
 0001:000415b0       ?onPlayerSelectionChanged@NewTournamentDialog@@AEAAXAEBVQItemSelection@@0@Z 00000001400425b0 f   newtournamentdialog.obj
 0001:000416a0       ?createTournament@NewTournamentDialog@@QEBAPEAVTournament@@PEAVGameManager@@@Z 00000001400426a0 f   newtournamentdialog.obj
 0001:00041f40       ?readSettings@NewTournamentDialog@@AEAAXXZ 0000000140042f40 f   newtournamentdialog.obj
 0001:000426fc       ??_ENewTournamentDialog@@WBA@EAAPEAXI@Z 00000001400436fc f i newtournamentdialog.obj
 0001:00042710       ??0PathLineEdit@@QEAA@W4PathType@0@PEAVQWidget@@@Z 0000000140043710 f   pathlineedit.obj
 0001:00042860       ??_EPathLineEdit@@UEAAPEAXI@Z 0000000140043860 f i * CIL library *:* CIL module *
 0001:00042860       ??_GPathLineEdit@@UEAAPEAXI@Z 0000000140043860 f i pathlineedit.obj
 0001:000428c0       ?resizeEvent@PathLineEdit@@MEAAXPEAVQResizeEvent@@@Z 00000001400438c0 f   pathlineedit.obj
 0001:00042920       ?setPath@PathLineEdit@@AEAAXAEBVQString@@@Z 0000000140043920 f   pathlineedit.obj
 0001:000429f0       ?browse@PathLineEdit@@AEAAXXZ 00000001400439f0 f   pathlineedit.obj
 0001:00042bf0       ??_EPathLineEdit@@WBA@EAAPEAXI@Z 0000000140043bf0 f i pathlineedit.obj
 0001:00042c00       ??0PgnDatabase@@QEAA@AEBVQString@@PEAVQObject@@@Z 0000000140043c00 f   pgndatabase.obj
 0001:00042c90       ??_EPgnDatabase@@UEAAPEAXI@Z 0000000140043c90 f i * CIL library *:* CIL module *
 0001:00042c90       ??_GPgnDatabase@@UEAAPEAXI@Z 0000000140043c90 f i pgndatabase.obj
 0001:00042d30       ?status@PgnDatabase@@QEBA?AW4Status@1@XZ 0000000140043d30 f   pgndatabase.obj
 0001:00042dd0       ?game@PgnDatabase@@QEAA?AW4Status@1@PEBVPgnGameEntry@@PEAVPgnGame@@@Z 0000000140043dd0 f   pgndatabase.obj
 0001:00043140       ??$qDeleteAll@V?$QList@PEBVPgnGameEntry@@@@@@YAXAEBV?$QList@PEBVPgnGameEntry@@@@@Z 0000000140044140 f i pgndatabase.obj
 0001:000431b0       ??_EPgnDatabaseModel@@UEAAPEAXI@Z 00000001400441b0 f i * CIL library *:* CIL module *
 0001:000431b0       ??_GPgnDatabaseModel@@UEAAPEAXI@Z 00000001400441b0 f i pgndatabasemodel.obj
 0001:000431f0       ?rowCount@PgnDatabaseModel@@UEBAHAEBVQModelIndex@@@Z 00000001400441f0 f   pgndatabasemodel.obj
 0001:00043260       ?columnCount@PgnDatabaseModel@@UEBAHAEBVQModelIndex@@@Z 0000000140044260 f   pgndatabasemodel.obj
 0001:00043280       ?data@PgnDatabaseModel@@UEBA?AVQVariant@@AEBVQModelIndex@@H@Z 0000000140044280 f   pgndatabasemodel.obj
 0001:000433a0       ?headerData@PgnDatabaseModel@@UEBA?AVQVariant@@HW4Orientation@Qt@@H@Z 00000001400443a0 f   pgndatabasemodel.obj
 0001:00043420       ?flags@PgnDatabaseModel@@UEBA?AV?$QFlags@W4ItemFlag@Qt@@@@AEBVQModelIndex@@@Z 0000000140044420 f   pgndatabasemodel.obj
 0001:00043460       ?setData@PgnDatabaseModel@@UEAA_NAEBVQModelIndex@@AEBVQVariant@@H@Z 0000000140044460 f   pgndatabasemodel.obj
 0001:00043550       ??REntryContains@@QEAA_NH@Z 0000000140044550 f i pgngameentrymodel.obj
 0001:000435d0       ??0PgnGameFilter@@QEAA@AEBV0@@Z 00000001400445d0 f i pgngameentrymodel.obj
 0001:00043670       ??_GPgnGameEntryModel@@UEAAPEAXI@Z 0000000140044670 f i pgngameentrymodel.obj
 0001:00043670       ??_EPgnGameEntryModel@@UEAAPEAXI@Z 0000000140044670 f i * CIL library *:* CIL module *
 0001:000437a0       ??1?$QFuture@H@@QEAA@XZ    00000001400447a0 f i pgngameentrymodel.obj
 0001:000437e0       ?entryAt@PgnGameEntryModel@@QEBAPEBVPgnGameEntry@@H@Z 00000001400447e0 f   pgngameentrymodel.obj
 0001:00043850       ?setEntries@PgnGameEntryModel@@QEAAXAEBV?$QList@PEBVPgnGameEntry@@@@@Z 0000000140044850 f   pgngameentrymodel.obj
 0001:000439a0       ?applyFilter@PgnGameEntryModel@@AEAAXAEBVPgnGameFilter@@@Z 00000001400449a0 f   pgngameentrymodel.obj
 0001:00043c30       ??1EntryContains@@QEAA@XZ  0000000140044c30 f i pgngameentrymodel.obj
 0001:00043c80       ?setFilter@PgnGameEntryModel@@QEAAXAEBVPgnGameFilter@@@Z 0000000140044c80 f   pgngameentrymodel.obj
 0001:00043d60       ?rowCount@PgnGameEntryModel@@UEBAHAEBVQModelIndex@@@Z 0000000140044d60 f   pgngameentrymodel.obj
 0001:00043da0       ?columnCount@PgnGameEntryModel@@UEBAHAEBVQModelIndex@@@Z 0000000140044da0 f   pgngameentrymodel.obj
 0001:00043dc0       ?data@PgnGameEntryModel@@UEBA?AVQVariant@@AEBVQModelIndex@@H@Z 0000000140044dc0 f   pgngameentrymodel.obj
 0001:00043ef0       ?headerData@PgnGameEntryModel@@UEBA?AVQVariant@@HW4Orientation@Qt@@H@Z 0000000140044ef0 f   pgngameentrymodel.obj
 0001:00044160       ?canFetchMore@PgnGameEntryModel@@MEBA_NAEBVQModelIndex@@@Z 0000000140045160 f   pgngameentrymodel.obj
 0001:00044180       ?fetchMore@PgnGameEntryModel@@MEAAXAEBVQModelIndex@@@Z 0000000140045180 f   pgngameentrymodel.obj
 0001:000441f0       ?futureInterface@?$QFutureWatcher@H@@EEBAAEBVQFutureInterfaceBase@@XZ 00000001400451f0 f i pgngameentrymodel.obj
 0001:000441f0       ?futureInterface@?$QFutureWatcher@H@@EEAAAEAVQFutureInterfaceBase@@XZ 00000001400451f0 f i pgngameentrymodel.obj
 0001:00044200       ??1?$QFutureWatcher@H@@UEAA@XZ 0000000140045200 f i pgngameentrymodel.obj
 0001:00044270       ??_G?$QFutureWatcher@H@@UEAAPEAXI@Z 0000000140045270 f i pgngameentrymodel.obj
 0001:00044270       ??_E?$QFutureWatcher@H@@UEAAPEAXI@Z 0000000140045270 f i * CIL library *:* CIL module *
 0001:000442b0       ??_G?$QFutureInterface@H@@UEAAPEAXI@Z 00000001400452b0 f i pgngameentrymodel.obj
 0001:000442b0       ??_E?$QFutureInterface@H@@UEAAPEAXI@Z 00000001400452b0 f i * CIL library *:* CIL module *
 0001:00044310       ?reserve@?$QVector@H@@QEAAXH@Z 0000000140045310 f i pgngameentrymodel.obj
 0001:000443a0       ?resultAt@?$QFuture@H@@QEBAHH@Z 00000001400453a0 f i pgngameentrymodel.obj
 0001:00044450       ??$clear@H@ResultStoreBase@QtPrivate@@QEAAXXZ 0000000140045450 f i pgngameentrymodel.obj
 0001:000445a0       ?asynchronousFinish@?$ThreadEngine@H@QtConcurrent@@UEAAXXZ 00000001400455a0 f i pgngameentrymodel.obj
 0001:00044650       __scrt_initialize_winrt    0000000140045650 f i MSVCRT:utility_desktop.obj
 0001:00044650       _get_startup_commit_mode   0000000140045650 f i MSVCRT:commit_mode.obj
 0001:00044650       _get_startup_new_mode      0000000140045650 f i MSVCRT:new_mode.obj
 0001:00044650       _matherr                   0000000140045650 f i MSVCRT:matherr.obj
 0001:00044650       ?result@?$ThreadEngine@H@QtConcurrent@@UEAAPEAHXZ 0000000140045650 f i pgngameentrymodel.obj
 0001:00044650       __scrt_exe_initialize_mta  0000000140045650 f i MSVCRT:utility_desktop.obj
 0001:00044650       __scrt_stub_for_initialize_mta 0000000140045650 f i MSVCRT:utility_desktop.obj
 0001:00044650       _get_startup_thread_locale_mode 0000000140045650 f i MSVCRT:thread_locale.obj
 0001:00044650       ?interface1D@QCPAbstractPlottable@@UEAAPEAVQCPPlottableInterface1D@@XZ 0000000140045650 f i qcustomplot.obj
 0001:00044660       ?realloc@?$QVector@W4MarginSide@QCP@@@@AEAAXHV?$QFlags@W4AllocationOption@QArrayData@@@@@Z 0000000140045660 f i qcustomplot.obj
 0001:00044660       ?realloc@?$QVector@H@@AEAAXHV?$QFlags@W4AllocationOption@QArrayData@@@@@Z 0000000140045660 f i pgngameentrymodel.obj
 0001:000448d0       ??$startFiltered@PEBHUEntryContains@@@QtConcurrent@@YA?AV?$ThreadEngineStarter@H@0@PEBH0UEntryContains@@@Z 00000001400458d0 f i pgngameentrymodel.obj
 0001:00044aa0       ?runIterations@?$FilteredEachKernel@PEBHUEntryContains@@@QtConcurrent@@UEAA_NPEBHHHPEAH@Z 0000000140045aa0 f i pgngameentrymodel.obj
 0001:00044cd0       ?runIteration@?$FilteredEachKernel@PEBHUEntryContains@@@QtConcurrent@@UEAA_NPEBHHPEAH@Z 0000000140045cd0 f i pgngameentrymodel.obj
 0001:00044d30       ?start@?$FilteredEachKernel@PEBHUEntryContains@@@QtConcurrent@@UEAAXXZ 0000000140045d30 f i pgngameentrymodel.obj
 0001:00044db0       ?threadFunction@?$IterateKernel@PEBHH@QtConcurrent@@UEAA?AW4ThreadFunctionResult@2@XZ 0000000140045db0 f i pgngameentrymodel.obj
 0001:00044dd0       ?shouldStartThread@?$IterateKernel@PEBHH@QtConcurrent@@UEAA_NXZ 0000000140045dd0 f i pgngameentrymodel.obj
 0001:00044e20       ?start@?$IterateKernel@PEBHH@QtConcurrent@@UEAAXXZ 0000000140045e20 f i pgngameentrymodel.obj
 0001:00044e80       ?variantHasWallSquares@Board@Chess@@UEBA_NXZ 0000000140045e80 f i cutechess:board.obj
 0001:00044e80       ?hasGauntletRatingsOrder@Tournament@@MEBA_NXZ 0000000140045e80 f i cutechess:tournament.obj
 0001:00044e80       ?runIteration@?$IterateKernel@PEBHH@QtConcurrent@@UEAA_NPEBHHPEAH@Z 0000000140045e80 f i pgngameentrymodel.obj
 0001:00044e80       ?runIterations@?$IterateKernel@PEBHH@QtConcurrent@@UEAA_NPEBHHHPEAH@Z 0000000140045e80 f i pgngameentrymodel.obj
 0001:00044e80       ?isPondering@ChessEngine@@MEBA_NXZ 0000000140045e80 f i cutechess:chessengine.obj
 0001:00044e80       ?isHuman@EngineBuilder@@UEBA_NXZ 0000000140045e80 f i cutechess:enginebuilder.obj
 0001:00044e80       ?isHuman@ChessEngine@@UEBA_NXZ 0000000140045e80 f i cutechess:chessengine.obj
 0001:00044e80       ?isEditable@EngineButtonOption@@UEBA_NXZ 0000000140045e80 f i cutechess:enginebuttonoption.obj
 0001:00044e80       ?canSetRoundMultiplier@KnockoutTournament@@UEBA_NXZ 0000000140045e80 f i cutechess:knockouttournament.obj
 0001:00044e90       ??1?$IntermediateResults@H@QtConcurrent@@QEAA@XZ 0000000140045e90 f i pgngameentrymodel.obj
 0001:00044ef0       ??_G?$FilteredEachKernel@PEBHUEntryContains@@@QtConcurrent@@UEAAPEAXI@Z 0000000140045ef0 f i pgngameentrymodel.obj
 0001:00044ef0       ??_E?$FilteredEachKernel@PEBHUEntryContains@@@QtConcurrent@@UEAAPEAXI@Z 0000000140045ef0 f i * CIL library *:* CIL module *
 0001:00044fb0       ??_E?$IterateKernel@PEBHH@QtConcurrent@@UEAAPEAXI@Z 0000000140045fb0 f i * CIL library *:* CIL module *
 0001:00044fb0       ??_G?$IterateKernel@PEBHH@QtConcurrent@@UEAAPEAXI@Z 0000000140045fb0 f i pgngameentrymodel.obj
 0001:00045020       ?whileThreadFunction@?$IterateKernel@PEBHH@QtConcurrent@@QEAA?AW4ThreadFunctionResult@2@XZ 0000000140046020 f i pgngameentrymodel.obj
 0001:00045270       ?forThreadFunction@?$IterateKernel@PEBHH@QtConcurrent@@QEAA?AW4ThreadFunctionResult@2@XZ 0000000140046270 f i pgngameentrymodel.obj
 0001:000454c0       ?reportResults@?$ThreadEngine@H@QtConcurrent@@QEAAXAEBV?$QVector@H@@HH@Z 00000001400464c0 f i pgngameentrymodel.obj
 0001:000455c0       ??1?$ResultReporter@H@QtConcurrent@@QEAA@XZ 00000001400465c0 f i pgngameentrymodel.obj
 0001:00045620       ??_E?$ThreadEngine@H@QtConcurrent@@UEAAPEAXI@Z 0000000140046620 f i * CIL library *:* CIL module *
 0001:00045620       ??_G?$ThreadEngine@H@QtConcurrent@@UEAAPEAXI@Z 0000000140046620 f i pgngameentrymodel.obj
 0001:00045660       ?reportResults@?$ResultReporter@H@QtConcurrent@@QEAAXH@Z 0000000140046660 f i pgngameentrymodel.obj
 0001:00045730       ?resize@?$QVector@H@@QEAAXH@Z 0000000140046730 f i pgngameentrymodel.obj
 0001:00045840       ?detach@?$QVector@H@@QEAAXXZ 0000000140046840 f i pgngameentrymodel.obj
 0001:000458c0       ?reportResult@?$QFutureInterface@H@@QEAAXPEBHH@Z 00000001400468c0 f i pgngameentrymodel.obj
 0001:000459d0       ??$addResults@H@ResultStoreBase@QtPrivate@@QEAAHHPEBV?$QVector@H@@H@Z 00000001400469d0 f i pgngameentrymodel.obj
 0001:00045a60       ??0?$QVector@H@@QEAA@AEBV0@@Z 0000000140046a60 f i pgngameentrymodel.obj
 0001:00045a60       ??0?$QVector@I@@QEAA@AEBV0@@Z 0000000140046a60 f i qcustomplot.obj
 0001:00045b64       ?start@?$FilteredEachKernel@PEBHUEntryContains@@@QtConcurrent@@$4PPPPPPPM@A@EAAXXZ 0000000140046b64 f i pgngameentrymodel.obj
 0001:00045b70       ?asynchronousFinish@?$ThreadEngine@H@QtConcurrent@@$4PPPPPPPM@JI@EAAXXZ 0000000140046b70 f i pgngameentrymodel.obj
 0001:00045b84       ??_E?$IterateKernel@PEBHH@QtConcurrent@@$4PPPPPPPM@A@EAAPEAXI@Z 0000000140046b84 f i pgngameentrymodel.obj
 0001:00045b90       ?shouldStartThread@?$IterateKernel@PEBHH@QtConcurrent@@$4PPPPPPPM@A@EAA_NXZ 0000000140046b90 f i pgngameentrymodel.obj
 0001:00045b9c       ?shouldStartThread@?$IterateKernel@PEBHH@QtConcurrent@@$4PPPPPPPM@GA@EAA_NXZ 0000000140046b9c f i pgngameentrymodel.obj
 0001:00045bac       ??_E?$FilteredEachKernel@PEBHUEntryContains@@@QtConcurrent@@$4PPPPPPPM@A@EAAPEAXI@Z 0000000140046bac f i pgngameentrymodel.obj
 0001:00045bb8       ?threadFunction@?$IterateKernel@PEBHH@QtConcurrent@@$4PPPPPPPM@A@EAA?AW4ThreadFunctionResult@2@XZ 0000000140046bb8 f i pgngameentrymodel.obj
 0001:00045bc4       ?start@?$IterateKernel@PEBHH@QtConcurrent@@$4PPPPPPPM@A@EAAXXZ 0000000140046bc4 f i pgngameentrymodel.obj
 0001:00045bd0       ?threadFunction@?$IterateKernel@PEBHH@QtConcurrent@@$4PPPPPPPM@GA@EAA?AW4ThreadFunctionResult@2@XZ 0000000140046bd0 f i pgngameentrymodel.obj
 0001:00045be0       ?asynchronousFinish@?$ThreadEngine@H@QtConcurrent@@$4PPPPPPPM@DI@EAAXXZ 0000000140046be0 f i pgngameentrymodel.obj
 0001:00045bf0       ??_EPgnImporter@@UEAAPEAXI@Z 0000000140046bf0 f i * CIL library *:* CIL module *
 0001:00045bf0       ??_GPgnImporter@@UEAAPEAXI@Z 0000000140046bf0 f i pgnimporter.obj
 0001:00045c70       ?work@PgnImporter@@MEAAXXZ 0000000140046c70 f   pgnimporter.obj
 0001:000461b8       ??_EPgnImporter@@WBA@EAAPEAXI@Z 00000001400471b8 f i pgnimporter.obj
 0001:000461d0       ??_GPgnTagsModel@@UEAAPEAXI@Z 00000001400471d0 f i pgntagsmodel.obj
 0001:000461d0       ??_EPgnTagsModel@@UEAAPEAXI@Z 00000001400471d0 f i * CIL library *:* CIL module *
 0001:00046260       ?setTags@PgnTagsModel@@QEAAXAEBV?$QList@U?$QPair@VQString@@V1@@@@@@Z 0000000140047260 f   pgntagsmodel.obj
 0001:00046350       ?columnCount@PgnTagsModel@@UEBAHAEBVQModelIndex@@@Z 0000000140047350 f   pgntagsmodel.obj
 0001:00046370       ?data@PgnTagsModel@@UEBA?AVQVariant@@AEBVQModelIndex@@H@Z 0000000140047370 f   pgntagsmodel.obj
 0001:00046400       ?headerData@PgnTagsModel@@UEBA?AVQVariant@@HW4Orientation@Qt@@H@Z 0000000140047400 f   pgntagsmodel.obj
 0001:000464d0       ?setTag@PgnTagsModel@@QEAAXAEBVQString@@0@Z 00000001400474d0 f   pgntagsmodel.obj
 0001:000467d0       ?append@?$QList@U?$QPair@VQString@@V1@@@@@QEAAXAEBU?$QPair@VQString@@V1@@@@Z 00000001400477d0 f i pgntagsmodel.obj
 0001:00046870       ??0?$QList@U?$QPair@VQString@@V1@@@@@QEAA@AEBV0@@Z 0000000140047870 f i pgntagsmodel.obj
 0001:00046900       ?detach_helper_grow@?$QList@U?$QPair@VQString@@V1@@@@@AEAAPEAUNode@1@HH@Z 0000000140047900 f i pgntagsmodel.obj
 0001:000469f0       ?detach_helper@?$QList@U?$QPair@VQString@@V1@@@@@AEAAXH@Z 00000001400479f0 f i pgntagsmodel.obj
 0001:00046aa0       ?node_copy@?$QList@U?$QPair@VQString@@V1@@@@@AEAAXPEAUNode@1@00@Z 0000000140047aa0 f i pgntagsmodel.obj
 0001:00046b30       ?cancelChoice@PieceChooser@@QEAAXXZ 0000000140047b30 f   piecechooser.obj
 0001:00046b80       ?reveal@PieceChooser@@QEAAXXZ 0000000140047b80 f   piecechooser.obj
 0001:00047010       ?destroy@PieceChooser@@QEAAXXZ 0000000140048010 f   piecechooser.obj
 0001:000470b0       ?contextMenuEvent@PlainTextLog@@MEAAXPEAVQContextMenuEvent@@@Z 00000001400480b0 f   plaintextlog.obj
 0001:00047270       ?saveLogToFile@PlainTextLog@@QEAAXAEBVQString@@@Z 0000000140048270 f   plaintextlog.obj
 0001:000477b0       ?qRound@@YAHN@Z            00000001400487b0 f i qcustomplot.obj
 0001:00047840       ??D@YA?BVQSize@@AEBV0@N@Z  0000000140048840 f i qcustomplot.obj
 0001:00047910       ??K@YA?BVQSize@@AEBV0@N@Z  0000000140048910 f i qcustomplot.obj
 0001:00047a10       ??9QCPDataSelection@@QEBA_NAEBV0@@Z 0000000140048a10 f i qcustomplot.obj
 0001:00047b30       ?lessThanDataRangeBegin@QCPDataSelection@@CA_NAEBVQCPDataRange@@0@Z 0000000140048b30 f i qcustomplot.obj
 0001:00047b40       ??H@YA?BVQCPDataSelection@@AEBV0@0@Z 0000000140048b40 f i qcustomplot.obj
 0001:00047b90       ??1?$QForeachContainer@V?$QList@PEAVQCPLayerable@@@@@QtPrivate@@QEAA@XZ 0000000140048b90 f i qcustomplot.obj
 0001:00047b90       ??1?$QForeachContainer@V?$QList@PEAVQCPAxisRect@@@@@QtPrivate@@QEAA@XZ 0000000140048b90 f i qcustomplot.obj
 0001:00047b90       ??1?$QForeachContainer@V?$QList@PEAVQCPAxis@@@@@QtPrivate@@QEAA@XZ 0000000140048b90 f i qcustomplot.obj
 0001:00047b90       ??1?$QForeachContainer@V?$QList@PEAVQCPAbstractPlottable@@@@@QtPrivate@@QEAA@XZ 0000000140048b90 f i qcustomplot.obj
 0001:00047b90       ??1?$QForeachContainer@V?$QList@PEAVQCPLayer@@@@@QtPrivate@@QEAA@XZ 0000000140048b90 f i qcustomplot.obj
 0001:00047b90       ??1QCPDataSelection@@QEAA@XZ 0000000140048b90 f i qcustomplot.obj
 0001:00047b90       ??1?$QForeachContainer@V?$QList@PEAVQCPLayoutElement@@@@@QtPrivate@@QEAA@XZ 0000000140048b90 f i qcustomplot.obj
 0001:00047bc0       ??G@YA?BVQCPDataSelection@@AEBV0@0@Z 0000000140048bc0 f i qcustomplot.obj
 0001:00047cd0       ?elementCount@QCPLayoutGrid@@UEBAHXZ 0000000140048cd0 f i qcustomplot.obj
 0001:00047d10       ??0QCPScatterStyle@@QEAA@AEBV0@@Z 0000000140048d10 f i qcustomplot.obj
 0001:00047d90       ??1QCPScatterStyle@@QEAA@XZ 0000000140048d90 f i qcustomplot.obj
 0001:00047dd0       ??1QCPPlottableInterface1D@@UEAA@XZ 0000000140048dd0 f i qcustomplot.obj
 0001:00047de0       ??_EQCPPlottableInterface1D@@UEAAPEAXI@Z 0000000140048de0 f i * CIL library *:* CIL module *
 0001:00047de0       ??_GQCPPlottableInterface1D@@UEAAPEAXI@Z 0000000140048de0 f i qcustomplot.obj
 0001:00047e10       ??9QCPColorGradient@@QEBA_NAEBV0@@Z 0000000140048e10 f i qcustomplot.obj
 0001:00047f10       ??1QCPColorGradient@@QEAA@XZ 0000000140048f10 f i qcustomplot.obj
 0001:00047fc0       ?setAntialiasing@QCPPainter@@QEAAX_N@Z 0000000140048fc0 f   qcustomplot.obj
 0001:00048030       ?save@QCPPainter@@QEAAXXZ  0000000140049030 f   qcustomplot.obj
 0001:000480f0       ?restore@QCPPainter@@QEAAXXZ 00000001400490f0 f   qcustomplot.obj
 0001:000482a0       ?makeNonCosmetic@QCPPainter@@QEAAXXZ 00000001400492a0 f   qcustomplot.obj
 0001:00048330       ??_EQCPAbstractPaintBuffer@@UEAAPEAXI@Z 0000000140049330 f i * CIL library *:* CIL module *
 0001:00048330       ??_GQCPAbstractPaintBuffer@@UEAAPEAXI@Z 0000000140049330 f i qcustomplot.obj
 0001:00048360       ??1QCPAbstractPaintBuffer@@UEAA@XZ 0000000140049360 f   qcustomplot.obj
 0001:00048370       ??0QCPPaintBufferPixmap@@QEAA@AEBVQSize@@N@Z 0000000140049370 f   qcustomplot.obj
 0001:00048490       ??_GQCPPaintBufferPixmap@@UEAAPEAXI@Z 0000000140049490 f i qcustomplot.obj
 0001:00048490       ??_EQCPPaintBufferPixmap@@UEAAPEAXI@Z 0000000140049490 f i * CIL library *:* CIL module *
 0001:000484e0       ?startPainting@QCPPaintBufferPixmap@@UEAAPEAVQCPPainter@@XZ 00000001400494e0 f   qcustomplot.obj
 0001:00048540       ?draw@QCPPaintBufferPixmap@@UEBAXPEAVQCPPainter@@@Z 0000000140049540 f   qcustomplot.obj
 0001:000485f0       ?clear@QCPPaintBufferPixmap@@UEAAXAEBVQColor@@@Z 00000001400495f0 f   qcustomplot.obj
 0001:00048600       ?reallocateBuffer@QCPPaintBufferPixmap@@MEAAXXZ 0000000140049600 f   qcustomplot.obj
 0001:000486e0       ??_EQCPLayer@@UEAAPEAXI@Z  00000001400496e0 f i * CIL library *:* CIL module *
 0001:000486e0       ??_GQCPLayer@@UEAAPEAXI@Z  00000001400496e0 f i qcustomplot.obj
 0001:00048720       ??1QCPLayer@@UEAA@XZ       0000000140049720 f   qcustomplot.obj
 0001:000488d0       ?setMode@QCPLayer@@QEAAXW4LayerMode@1@@Z 00000001400498d0 f   qcustomplot.obj
 0001:00048910       ?draw@QCPLayer@@IEAAXPEAVQCPPainter@@@Z 0000000140049910 f   qcustomplot.obj
 0001:00048aa0       ?drawToPaintBuffer@QCPLayer@@IEAAXXZ 0000000140049aa0 f   qcustomplot.obj
 0001:00048c80       ??1QCPPainter@@QEAA@XZ     0000000140049c80 f i qcustomplot.obj
 0001:00048cf0       ?replot@QCPLayer@@QEAAXXZ  0000000140049cf0 f   qcustomplot.obj
 0001:00048ec0       ?removeChild@QCPLayer@@IEAAXPEAVQCPLayerable@@@Z 0000000140049ec0 f   qcustomplot.obj
 0001:00049020       ??0QCPLayerable@@QEAA@PEAVQCustomPlot@@VQString@@PEAV0@@Z 000000014004a020 f   qcustomplot.obj
 0001:00049150       ??_EQCPLayerable@@UEAAPEAXI@Z 000000014004a150 f i * CIL library *:* CIL module *
 0001:00049150       ??_GQCPLayerable@@UEAAPEAXI@Z 000000014004a150 f i qcustomplot.obj
 0001:00049190       ??1QCPLayerable@@UEAA@XZ   000000014004a190 f   qcustomplot.obj
 0001:000491f0       ?setLayer@QCPLayerable@@QEAA_NAEBVQString@@@Z 000000014004a1f0 f   qcustomplot.obj
 0001:000492f0       ?realVisibility@QCPLayerable@@QEBA_NXZ 000000014004a2f0 f   qcustomplot.obj
 0001:00049350       ?selectTest@QCPLayerable@@UEBANAEBVQPointF@@_NPEAVQVariant@@@Z 000000014004a350 f   qcustomplot.obj
 0001:00049360       ?initializeParentPlot@QCPLayerable@@IEAAXPEAVQCustomPlot@@@Z 000000014004a360 f   qcustomplot.obj
 0001:00049460       ?moveToLayer@QCPLayerable@@IEAA_NPEAVQCPLayer@@_N@Z 000000014004a460 f   qcustomplot.obj
 0001:00049700       ?applyAntialiasingHint@QCPLayerable@@IEBAXPEAVQCPPainter@@_NW4AntialiasedElement@QCP@@@Z 000000014004a700 f   qcustomplot.obj
 0001:000497d0       ?selectionCategory@QCPLayerable@@MEBA?AW4Interaction@QCP@@XZ 000000014004a7d0 f   qcustomplot.obj
 0001:000497e0       ?clipRect@QCPLayerable@@MEBA?AVQRect@@XZ 000000014004a7e0 f   qcustomplot.obj
 0001:00049810       ?mouseDoubleClickEvent@QCPLayerable@@MEAAXPEAVQMouseEvent@@AEBVQVariant@@@Z 000000014004a810 f   qcustomplot.obj
 0001:00049810       ?mousePressEvent@QCPLayerable@@MEAAXPEAVQMouseEvent@@AEBVQVariant@@@Z 000000014004a810 f   qcustomplot.obj
 0001:00049810       ?mouseReleaseEvent@QCPLayerable@@MEAAXPEAVQMouseEvent@@AEBVQPointF@@@Z 000000014004a810 f   qcustomplot.obj
 0001:00049810       ?wheelEvent@QCPLayerable@@MEAAXPEAVQWheelEvent@@@Z 000000014004a810 f   qcustomplot.obj
 0001:00049810       ?mouseMoveEvent@QCPLayerable@@MEAAXPEAVQMouseEvent@@AEBVQPointF@@@Z 000000014004a810 f   qcustomplot.obj
 0001:00049820       ?sanitizedForLogScale@QCPRange@@QEBA?AV1@XZ 000000014004a820 f   qcustomplot.obj
 0001:000498e0       ?validRange@QCPRange@@SA_NAEBV1@@Z 000000014004a8e0 f   qcustomplot.obj
 0001:000499a0       ??ZQCPDataSelection@@QEAAAEAV0@AEBVQCPDataRange@@@Z 000000014004a9a0 f   qcustomplot.obj
 0001:00049b70       ?simplify@QCPDataSelection@@QEAAXXZ 000000014004ab70 f   qcustomplot.obj
 0001:00049ea0       ?enforceType@QCPDataSelection@@QEAAXW4SelectionType@QCP@@@Z 000000014004aea0 f   qcustomplot.obj
 0001:0004a020       ?inverse@QCPDataSelection@@QEBA?AV1@AEBVQCPDataRange@@@Z 000000014004b020 f   qcustomplot.obj
 0001:0004a250       ??_EQCPSelectionRect@@UEAAPEAXI@Z 000000014004b250 f i * CIL library *:* CIL module *
 0001:0004a250       ??_GQCPSelectionRect@@UEAAPEAXI@Z 000000014004b250 f i qcustomplot.obj
 0001:0004a2b0       ?cancel@QCPSelectionRect@@QEAAXXZ 000000014004b2b0 f   qcustomplot.obj
 0001:0004a320       ?startSelection@QCPSelectionRect@@MEAAXPEAVQMouseEvent@@@Z 000000014004b320 f   qcustomplot.obj
 0001:0004a3c0       ?moveSelection@QCPSelectionRect@@MEAAXPEAVQMouseEvent@@@Z 000000014004b3c0 f   qcustomplot.obj
 0001:0004a460       ?endSelection@QCPSelectionRect@@MEAAXPEAVQMouseEvent@@@Z 000000014004b460 f   qcustomplot.obj
 0001:0004a500       ?keyPressEvent@QCPSelectionRect@@MEAAXPEAVQKeyEvent@@@Z 000000014004b500 f   qcustomplot.obj
 0001:0004a520       ?applyDefaultAntialiasingHint@QCPSelectionRect@@MEBAXPEAVQCPPainter@@@Z 000000014004b520 f   qcustomplot.obj
 0001:0004a5d0       ?draw@QCPSelectionRect@@MEAAXPEAVQCPPainter@@@Z 000000014004b5d0 f   qcustomplot.obj
 0001:0004a630       ??0QCPLayoutElement@@QEAA@PEAVQCustomPlot@@@Z 000000014004b630 f   qcustomplot.obj
 0001:0004a6e0       ??_EQCPLayoutElement@@UEAAPEAXI@Z 000000014004b6e0 f i * CIL library *:* CIL module *
 0001:0004a6e0       ??_GQCPLayoutElement@@UEAAPEAXI@Z 000000014004b6e0 f i qcustomplot.obj
 0001:0004a720       ??1QCPLayoutElement@@UEAA@XZ 000000014004b720 f   qcustomplot.obj
 0001:0004a7b0       ?setOuterRect@QCPLayoutElement@@QEAAXAEBVQRect@@@Z 000000014004b7b0 f   qcustomplot.obj
 0001:0004a820       ?setMargins@QCPLayoutElement@@QEAAXAEBVQMargins@@@Z 000000014004b820 f   qcustomplot.obj
 0001:0004a8a0       ?setMinimumMargins@QCPLayoutElement@@QEAAXAEBVQMargins@@@Z 000000014004b8a0 f   qcustomplot.obj
 0001:0004a8e0       ?setMarginGroup@QCPLayoutElement@@QEAAXV?$QFlags@W4MarginSide@QCP@@@@PEAVQCPMarginGroup@@@Z 000000014004b8e0 f   qcustomplot.obj
 0001:0004ad80       ?update@QCPLayoutElement@@UEAAXW4UpdatePhase@1@@Z 000000014004bd80 f   qcustomplot.obj
 0001:0004b230       ??1?$QForeachContainer@V?$QList@W4AxisType@QCPAxis@@@@@QtPrivate@@QEAA@XZ 000000014004c230 f i qcustomplot.obj
 0001:0004b230       ??1?$QForeachContainer@V?$QList@W4MarginSide@QCP@@@@@QtPrivate@@QEAA@XZ 000000014004c230 f i qcustomplot.obj
 0001:0004b260       ?minimumOuterSizeHint@QCPLayoutElement@@UEBA?AVQSize@@XZ 000000014004c260 f   qcustomplot.obj
 0001:0004b280       ?maximumOuterSizeHint@QCPLayoutElement@@UEBA?AVQSize@@XZ 000000014004c280 f   qcustomplot.obj
 0001:0004b2a0       ?elements@QCPLayoutElement@@UEBA?AV?$QList@PEAVQCPLayoutElement@@@@_N@Z 000000014004c2a0 f   qcustomplot.obj
 0001:0004b2a0       ?reservePieceTypes@Board@Chess@@UEBA?AV?$QList@VPiece@Chess@@@@XZ 000000014004c2a0 f   cutechess:board.obj
 0001:0004b2b0       ?selectTest@QCPLayoutElement@@UEBANAEBVQPointF@@_NPEAVQVariant@@@Z 000000014004c2b0 f   qcustomplot.obj
 0001:0004b390       ?parentPlotInitialized@QCPLayoutElement@@MEAAXPEAVQCustomPlot@@@Z 000000014004c390 f   qcustomplot.obj
 0001:0004b510       ?calculateAutoMargin@QCPLayoutElement@@MEAAHW4MarginSide@QCP@@@Z 000000014004c510 f   qcustomplot.obj
 0001:0004b590       ?update@QCPLayout@@UEAAXW4UpdatePhase@QCPLayoutElement@@@Z 000000014004c590 f   qcustomplot.obj
 0001:0004b620       ?elements@QCPLayout@@UEBA?AV?$QList@PEAVQCPLayoutElement@@@@_N@Z 000000014004c620 f   qcustomplot.obj
 0001:0004b7c0       ?clear@QCPLayout@@QEAAXXZ  000000014004c7c0 f   qcustomplot.obj
 0001:0004b840       ?sizeConstraintsChanged@QCPLayout@@IEBAXXZ 000000014004c840 f   qcustomplot.obj
 0001:0004b8b0       ?getSectionSizes@QCPLayout@@IEBA?AV?$QVector@H@@V2@0V?$QVector@N@@H@Z 000000014004c8b0 f   qcustomplot.obj
 0001:0004d060       ??0QCPLayoutGrid@@QEAA@XZ  000000014004e060 f   qcustomplot.obj
 0001:0004d0d0       ??_EQCPLayoutGrid@@UEAAPEAXI@Z 000000014004e0d0 f i * CIL library *:* CIL module *
 0001:0004d0d0       ??_GQCPLayoutGrid@@UEAAPEAXI@Z 000000014004e0d0 f i qcustomplot.obj
 0001:0004d110       ??1QCPLayoutGrid@@UEAA@XZ  000000014004e110 f   qcustomplot.obj
 0001:0004d1d0       ?addElement@QCPLayoutGrid@@QEAA_NHHPEAVQCPLayoutElement@@@Z 000000014004e1d0 f   qcustomplot.obj
 0001:0004d340       ?addElement@QCPLayoutGrid@@QEAA_NPEAVQCPLayoutElement@@@Z 000000014004e340 f   qcustomplot.obj
 0001:0004d400       ?hasElement@QCPLayoutGrid@@QEAA_NHH@Z 000000014004e400 f   qcustomplot.obj
 0001:0004d490       ?setColumnStretchFactors@QCPLayoutGrid@@QEAAXAEBV?$QList@N@@@Z 000000014004e490 f   qcustomplot.obj
 0001:0004d710       ?setRowStretchFactors@QCPLayoutGrid@@QEAAXAEBV?$QList@N@@@Z 000000014004e710 f   qcustomplot.obj
 0001:0004d990       ?setFillOrder@QCPLayoutGrid@@QEAAXW4FillOrder@1@_N@Z 000000014004e990 f   qcustomplot.obj
 0001:0004dba0       ?expandTo@QCPLayoutGrid@@QEAAXHH@Z 000000014004eba0 f   qcustomplot.obj
 0001:0004dde0       ?indexToRowCol@QCPLayoutGrid@@QEBAXHAEAH0@Z 000000014004ede0 f   qcustomplot.obj
 0001:0004df20       ?updateLayout@QCPLayoutGrid@@UEAAXXZ 000000014004ef20 f   qcustomplot.obj
 0001:0004e580       ?elementAt@QCPLayoutGrid@@UEBAPEAVQCPLayoutElement@@H@Z 000000014004f580 f   qcustomplot.obj
 0001:0004e5f0       ?takeAt@QCPLayoutGrid@@UEAAPEAVQCPLayoutElement@@H@Z 000000014004f5f0 f   qcustomplot.obj
 0001:0004e700       ?take@QCPLayoutGrid@@UEAA_NPEAVQCPLayoutElement@@@Z 000000014004f700 f   qcustomplot.obj
 0001:0004e830       ?elements@QCPLayoutGrid@@UEBA?AV?$QList@PEAVQCPLayoutElement@@@@_N@Z 000000014004f830 f   qcustomplot.obj
 0001:0004e9d0       ?simplify@QCPLayoutGrid@@UEAAXXZ 000000014004f9d0 f   qcustomplot.obj
 0001:0004ee00       ?minimumOuterSizeHint@QCPLayoutGrid@@UEBA?AVQSize@@XZ 000000014004fe00 f   qcustomplot.obj
 0001:0004f020       ?maximumOuterSizeHint@QCPLayoutGrid@@UEBA?AVQSize@@XZ 0000000140050020 f   qcustomplot.obj
 0001:0004f290       ?getMinimumRowColSizes@QCPLayoutGrid@@IEBAXPEAV?$QVector@H@@0@Z 0000000140050290 f   qcustomplot.obj
 0001:0004f7a0       ?getMaximumRowColSizes@QCPLayoutGrid@@IEBAXPEAV?$QVector@H@@0@Z 00000001400507a0 f   qcustomplot.obj
 0001:0004fcd0       ??_GQCPLayoutInset@@UEAAPEAXI@Z 0000000140050cd0 f i qcustomplot.obj
 0001:0004fcd0       ??_EQCPLayoutInset@@UEAAPEAXI@Z 0000000140050cd0 f i * CIL library *:* CIL module *
 0001:0004fdd0       ?updateLayout@QCPLayoutInset@@UEAAXXZ 0000000140050dd0 f   qcustomplot.obj
 0001:00050580       ?elementCount@QCPLayoutInset@@UEBAHXZ 0000000140051580 f   qcustomplot.obj
 0001:00050590       ?elementAt@QCPLayoutInset@@UEBAPEAVQCPLayoutElement@@H@Z 0000000140051590 f   qcustomplot.obj
 0001:000505d0       ?takeAt@QCPLayoutInset@@UEAAPEAVQCPLayoutElement@@H@Z 00000001400515d0 f   qcustomplot.obj
 0001:00050800       ?take@QCPLayoutInset@@UEAA_NPEAVQCPLayoutElement@@@Z 0000000140051800 f   qcustomplot.obj
 0001:00050930       ?selectTest@QCPLayoutInset@@UEBANAEBVQPointF@@_NPEAVQVariant@@@Z 0000000140051930 f   qcustomplot.obj
 0001:00050ae0       ?draw@QCPLineEnding@@QEBAXPEAVQCPPainter@@AEBVQCPVector2D@@1@Z 0000000140051ae0 f   qcustomplot.obj
 0001:000513a0       ??_EQCPAxisTicker@@UEAAPEAXI@Z 00000001400523a0 f i * CIL library *:* CIL module *
 0001:000513a0       ??_GQCPAxisTicker@@UEAAPEAXI@Z 00000001400523a0 f i qcustomplot.obj
 0001:000513d0       ?generate@QCPAxisTicker@@UEAAXAEBVQCPRange@@AEBVQLocale@@VQChar@@HAEAV?$QVector@N@@PEAV5@PEAV?$QVector@VQString@@@@@Z 00000001400523d0 f   qcustomplot.obj
 0001:00051680       ?getTickStep@QCPAxisTicker@@MEAANAEBVQCPRange@@@Z 0000000140052680 f   qcustomplot.obj
 0001:000516b0       ?getSubTickCount@QCPAxisTicker@@MEAAHN@Z 00000001400526b0 f   qcustomplot.obj
 0001:00051860       ?getTickLabel@QCPAxisTicker@@MEAA?AVQString@@NAEBVQLocale@@VQChar@@H@Z 0000000140052860 f   qcustomplot.obj
 0001:000518b0       ?createSubTickVector@QCPAxisTicker@@MEAA?AV?$QVector@N@@HAEBV2@@Z 00000001400528b0 f   qcustomplot.obj
 0001:00051bb0       ?createTickVector@QCPAxisTicker@@MEAA?AV?$QVector@N@@NAEBVQCPRange@@@Z 0000000140052bb0 f   qcustomplot.obj
 0001:00051da0       ?createLabelVector@QCPAxisTicker@@MEAA?AV?$QVector@VQString@@@@AEBV?$QVector@N@@AEBVQLocale@@VQChar@@H@Z 0000000140052da0 f   qcustomplot.obj
 0001:00051f20       ?trimTicks@QCPAxisTicker@@IEBAXAEBVQCPRange@@AEAV?$QVector@N@@_N@Z 0000000140052f20 f   qcustomplot.obj
 0001:000520f0       ?pickClosest@QCPAxisTicker@@IEBANNAEBV?$QVector@N@@@Z 00000001400530f0 f   qcustomplot.obj
 0001:000521f0       ?cleanMantissa@QCPAxisTicker@@IEBANN@Z 00000001400531f0 f   qcustomplot.obj
 0001:00052520       ??_GQCPAxisTickerFixed@@UEAAPEAXI@Z 0000000140053520 f i qcustomplot.obj
 0001:00052520       ??_EQCPAxisTickerFixed@@UEAAPEAXI@Z 0000000140053520 f i * CIL library *:* CIL module *
 0001:00052550       ?getTickStep@QCPAxisTickerFixed@@MEAANAEBVQCPRange@@@Z 0000000140053550 f   qcustomplot.obj
 0001:00052640       ??0QCPGrid@@QEAA@PEAVQCPAxis@@@Z 0000000140053640 f   qcustomplot.obj
 0001:00052880       ??_EQCPGrid@@UEAAPEAXI@Z   0000000140053880 f i * CIL library *:* CIL module *
 0001:00052880       ??_GQCPGrid@@UEAAPEAXI@Z   0000000140053880 f i qcustomplot.obj
 0001:000528e0       ?applyDefaultAntialiasingHint@QCPGrid@@MEBAXPEAVQCPPainter@@@Z 00000001400538e0 f   qcustomplot.obj
 0001:00052990       ?draw@QCPGrid@@MEAAXPEAVQCPPainter@@@Z 0000000140053990 f   qcustomplot.obj
 0001:00052a40       ?drawGridLines@QCPGrid@@IEBAXPEAVQCPPainter@@@Z 0000000140053a40 f   qcustomplot.obj
 0001:00053060       ?drawSubGridLines@QCPGrid@@IEBAXPEAVQCPPainter@@@Z 0000000140054060 f   qcustomplot.obj
 0001:00053380       ??0QCPAxis@@QEAA@PEAVQCPAxisRect@@W4AxisType@0@@Z 0000000140054380 f   qcustomplot.obj
 0001:00053970       ??_EQCPAxis@@UEAAPEAXI@Z   0000000140054970 f i * CIL library *:* CIL module *
 0001:00053970       ??_GQCPAxis@@UEAAPEAXI@Z   0000000140054970 f i qcustomplot.obj
 0001:000539b0       ??1QCPAxis@@UEAA@XZ        00000001400549b0 f   qcustomplot.obj
 0001:00053b90       ?numberFormat@QCPAxis@@QEBA?AVQString@@XZ 0000000140054b90 f   qcustomplot.obj
 0001:00053c40       ?setScaleType@QCPAxis@@QEAAXW4ScaleType@1@@Z 0000000140054c40 f   qcustomplot.obj
 0001:00053cc0       ?setRange@QCPAxis@@QEAAXAEBVQCPRange@@@Z 0000000140054cc0 f   qcustomplot.obj
 0001:00053de0       ?setSelectableParts@QCPAxis@@QEAAXAEBV?$QFlags@W4SelectablePart@QCPAxis@@@@@Z 0000000140054de0 f   qcustomplot.obj
 0001:00053e20       ?setSelectedParts@QCPAxis@@QEAAXAEBV?$QFlags@W4SelectablePart@QCPAxis@@@@@Z 0000000140054e20 f   qcustomplot.obj
 0001:00053e60       ?setRange@QCPAxis@@QEAAXNN@Z 0000000140054e60 f   qcustomplot.obj
 0001:00054050       ?setTicker@QCPAxis@@QEAAXV?$QSharedPointer@VQCPAxisTicker@@@@@Z 0000000140055050 f   qcustomplot.obj
 0001:00054150       ?setTickLabels@QCPAxis@@QEAAX_N@Z 0000000140055150 f   qcustomplot.obj
 0001:00054200       ?setNumberFormat@QCPAxis@@QEAAXAEBVQString@@@Z 0000000140055200 f   qcustomplot.obj
 0001:00054560       ?setLabel@QCPAxis@@QEAAXAEBVQString@@@Z 0000000140055560 f   qcustomplot.obj
 0001:000545b0       ?scaleRange@QCPAxis@@QEAAXNN@Z 00000001400555b0 f   qcustomplot.obj
 0001:00054890       ?rescale@QCPAxis@@QEAAX_N@Z 0000000140055890 f   qcustomplot.obj
 0001:00054c90       ?pixelToCoord@QCPAxis@@QEBANN@Z 0000000140055c90 f   qcustomplot.obj
 0001:00054ea0       ?coordToPixel@QCPAxis@@QEBANN@Z 0000000140055ea0 f   qcustomplot.obj
 0001:00055280       ?selectTest@QCPAxis@@UEBANAEBVQPointF@@_NPEAVQVariant@@@Z 0000000140056280 f   qcustomplot.obj
 0001:00055460       ?plottables@QCPAxis@@QEBA?AV?$QList@PEAVQCPAbstractPlottable@@@@XZ 0000000140056460 f   qcustomplot.obj
 0001:00055660       ?marginSideToAxisType@QCPAxis@@SA?AW4AxisType@1@W4MarginSide@QCP@@@Z 0000000140056660 f   qcustomplot.obj
 0001:00055720       ?selectEvent@QCPAxis@@MEAAXPEAVQMouseEvent@@_NAEBVQVariant@@PEA_N@Z 0000000140056720 f   qcustomplot.obj
 0001:000557f0       ?deselectEvent@QCPAxis@@MEAAXPEA_N@Z 00000001400567f0 f   qcustomplot.obj
 0001:00055860       ?mousePressEvent@QCPAxis@@MEAAXPEAVQMouseEvent@@AEBVQVariant@@@Z 0000000140056860 f   qcustomplot.obj
 0001:000559b0       ?mouseMoveEvent@QCPAxis@@MEAAXPEAVQMouseEvent@@AEBVQPointF@@@Z 00000001400569b0 f   qcustomplot.obj
 0001:00055b00       ?mouseReleaseEvent@QCPAxis@@MEAAXPEAVQMouseEvent@@AEBVQPointF@@@Z 0000000140056b00 f   qcustomplot.obj
 0001:00055b70       ?wheelEvent@QCPAxis@@MEAAXPEAVQWheelEvent@@@Z 0000000140056b70 f   qcustomplot.obj
 0001:00055d00       ?applyDefaultAntialiasingHint@QCPAxis@@MEBAXPEAVQCPPainter@@@Z 0000000140056d00 f   qcustomplot.obj
 0001:00055db0       ?draw@QCPAxis@@MEAAXPEAVQCPPainter@@@Z 0000000140056db0 f   qcustomplot.obj
 0001:000566d0       ?setupTickVectors@QCPAxis@@IEAAXXZ 00000001400576d0 f   qcustomplot.obj
 0001:00056940       ?calculateMargin@QCPAxis@@MEAAHXZ 0000000140057940 f   qcustomplot.obj
 0001:00056df0       ?entrySize@PolyglotBook@@MEBAHXZ 0000000140057df0 f   cutechess:polyglotbook.obj
 0001:00056df0       ?selectionCategory@QCPAxis@@MEBA?AW4Interaction@QCP@@XZ 0000000140057df0 f   qcustomplot.obj
 0001:00056e00       ??0QCPAxisPainterPrivate@@QEAA@PEAVQCustomPlot@@@Z 0000000140057e00 f   qcustomplot.obj
 0001:00057080       ??_GQCPAxisPainterPrivate@@UEAAPEAXI@Z 0000000140058080 f i qcustomplot.obj
 0001:00057080       ??_EQCPAxisPainterPrivate@@UEAAPEAXI@Z 0000000140058080 f i * CIL library *:* CIL module *
 0001:000570c0       ??1QCPAxisPainterPrivate@@UEAA@XZ 00000001400580c0 f   qcustomplot.obj
 0001:00057240       ?draw@QCPAxisPainterPrivate@@UEAAXPEAVQCPPainter@@@Z 0000000140058240 f   qcustomplot.obj
 0001:000588b0       ?size@QCPAxisPainterPrivate@@UEBAHXZ 00000001400598b0 f   qcustomplot.obj
 0001:00058a80       ?generateLabelParameterHash@QCPAxisPainterPrivate@@MEBA?AVQByteArray@@XZ 0000000140059a80 f   qcustomplot.obj
 0001:00058cb0       ?placeTickLabel@QCPAxisPainterPrivate@@MEAAXPEAVQCPPainter@@NHAEBVQString@@PEAVQSize@@@Z 0000000140059cb0 f   qcustomplot.obj
 0001:00059400       ??1TickLabelData@QCPAxisPainterPrivate@@QEAA@XZ 000000014005a400 f i qcustomplot.obj
 0001:00059440       ?drawTickLabel@QCPAxisPainterPrivate@@MEBAXPEAVQCPPainter@@NNAEBUTickLabelData@1@@Z 000000014005a440 f   qcustomplot.obj
 0001:00059640       ?getTickLabelData@QCPAxisPainterPrivate@@MEBA?AUTickLabelData@1@AEBVQFont@@AEBVQString@@@Z 000000014005a640 f   qcustomplot.obj
 0001:00059d80       ?getTickLabelDrawOffset@QCPAxisPainterPrivate@@MEBA?AVQPointF@@AEBUTickLabelData@1@@Z 000000014005ad80 f   qcustomplot.obj
 0001:0005a330       ?getMaxTickLabelSize@QCPAxisPainterPrivate@@MEBAXAEBVQFont@@AEBVQString@@PEAVQSize@@@Z 000000014005b330 f   qcustomplot.obj
 0001:0005a560       ?drawShape@QCPScatterStyle@@QEBAXPEAVQCPPainter@@NN@Z 000000014005b560 f   qcustomplot.obj
 0001:0005aff0       ??0QCPSelectionDecorator@@QEAA@XZ 000000014005bff0 f   qcustomplot.obj
 0001:0005b110       ??_EQCPSelectionDecorator@@UEAAPEAXI@Z 000000014005c110 f i * CIL library *:* CIL module *
 0001:0005b110       ??_GQCPSelectionDecorator@@UEAAPEAXI@Z 000000014005c110 f i qcustomplot.obj
 0001:0005b190       ??4QCPScatterStyle@@QEAAAEAV0@AEBV0@@Z 000000014005c190 f i qcustomplot.obj
 0001:0005b200       ?getFinalScatterStyle@QCPSelectionDecorator@@QEBA?AVQCPScatterStyle@@AEBV2@@Z 000000014005c200 f   qcustomplot.obj
 0001:0005b370       ?copyFrom@QCPSelectionDecorator@@UEAAXPEBV1@@Z 000000014005c370 f   qcustomplot.obj
 0001:0005b490       ?drawDecoration@QCPSelectionDecorator@@UEAAXPEAVQCPPainter@@VQCPDataSelection@@@Z 000000014005c490 f   qcustomplot.obj
 0001:0005b4c0       ?registerWithPlottable@QCPSelectionDecorator@@MEAA_NPEAVQCPAbstractPlottable@@@Z 000000014005c4c0 f   qcustomplot.obj
 0001:0005b550       ??0QCPAbstractPlottable@@QEAA@PEAVQCPAxis@@0@Z 000000014005c550 f   qcustomplot.obj
 0001:0005b8a0       ??_EQCPAbstractPlottable@@UEAAPEAXI@Z 000000014005c8a0 f i * CIL library *:* CIL module *
 0001:0005b8a0       ??_GQCPAbstractPlottable@@UEAAPEAXI@Z 000000014005c8a0 f i qcustomplot.obj
 0001:0005b8e0       ??1QCPAbstractPlottable@@UEAA@XZ 000000014005c8e0 f   qcustomplot.obj
 0001:0005b9c0       ?setSelection@QCPAbstractPlottable@@QEAAXVQCPDataSelection@@@Z 000000014005c9c0 f   qcustomplot.obj
 0001:0005bae0       ?setSelectable@QCPAbstractPlottable@@QEAAXW4SelectionType@QCP@@@Z 000000014005cae0 f   qcustomplot.obj
 0001:0005bc10       ?coordsToPixels@QCPAbstractPlottable@@QEBA?BVQPointF@@NN@Z 000000014005cc10 f   qcustomplot.obj
 0001:0005bd60       ?pixelsToCoords@QCPAbstractPlottable@@QEBAXAEBVQPointF@@AEAN1@Z 000000014005cd60 f   qcustomplot.obj
 0001:0005be80       ?addToLegend@QCPAbstractPlottable@@QEAA_NPEAVQCPLegend@@@Z 000000014005ce80 f   qcustomplot.obj
 0001:0005c0f0       ?clipRect@QCPAbstractPlottable@@MEBA?AVQRect@@XZ 000000014005d0f0 f   qcustomplot.obj
 0001:0005c1b0       ?selectionCategory@QCPAbstractPlottable@@MEBA?AW4Interaction@QCP@@XZ 000000014005d1b0 f   qcustomplot.obj
 0001:0005c1c0       ?applyDefaultAntialiasingHint@QCPAbstractPlottable@@MEBAXPEAVQCPPainter@@@Z 000000014005d1c0 f   qcustomplot.obj
 0001:0005c270       ?applyFillAntialiasingHint@QCPAbstractPlottable@@IEBAXPEAVQCPPainter@@@Z 000000014005d270 f   qcustomplot.obj
 0001:0005c320       ?applyScattersAntialiasingHint@QCPAbstractPlottable@@IEBAXPEAVQCPPainter@@@Z 000000014005d320 f   qcustomplot.obj
 0001:0005c3d0       ?selectEvent@QCPAbstractPlottable@@MEAAXPEAVQMouseEvent@@_NAEBVQVariant@@PEA_N@Z 000000014005d3d0 f   qcustomplot.obj
 0001:0005c660       ?deselectEvent@QCPAbstractPlottable@@MEAAXPEA_N@Z 000000014005d660 f   qcustomplot.obj
 0001:0005c700       ?setTypeX@QCPItemPosition@@QEAAXW4PositionType@1@@Z 000000014005d700 f   qcustomplot.obj
 0001:0005c7c0       ?setTypeY@QCPItemPosition@@QEAAXW4PositionType@1@@Z 000000014005d7c0 f   qcustomplot.obj
 0001:0005c880       ?setPixelPosition@QCPItemPosition@@QEAAXAEBVQPointF@@@Z 000000014005d880 f   qcustomplot.obj
 0001:0005ce40       ?setClipToAxisRect@QCPAbstractItem@@QEAAX_N@Z 000000014005de40 f   qcustomplot.obj
 0001:0005cec0       ?setClipAxisRect@QCPAbstractItem@@QEAAXPEAVQCPAxisRect@@@Z 000000014005dec0 f   qcustomplot.obj
 0001:0005cf80       ?setSelectable@QCPAbstractItem@@QEAAX_N@Z 000000014005df80 f   qcustomplot.obj
 0001:0005cfc0       ?setSelected@QCPAbstractItem@@QEAAX_N@Z 000000014005dfc0 f   qcustomplot.obj
 0001:0005d000       ??0QCustomPlot@@QEAA@PEAVQWidget@@@Z 000000014005e000 f   qcustomplot.obj
 0001:0005e0b0       ??_GQCustomPlot@@UEAAPEAXI@Z 000000014005f0b0 f i qcustomplot.obj
 0001:0005e0b0       ??_EQCustomPlot@@UEAAPEAXI@Z 000000014005f0b0 f i * CIL library *:* CIL module *
 0001:0005e0f0       ??1QCustomPlot@@UEAA@XZ    000000014005f0f0 f   qcustomplot.obj
 0001:0005e470       ?removePlottable@QCustomPlot@@QEAA_NPEAVQCPAbstractPlottable@@@Z 000000014005f470 f   qcustomplot.obj
 0001:0005e6e0       ?graph@QCustomPlot@@QEBAPEAVQCPGraph@@H@Z 000000014005f6e0 f   qcustomplot.obj
 0001:0005e780       ?addGraph@QCustomPlot@@QEAAPEAVQCPGraph@@PEAVQCPAxis@@0@Z 000000014005f780 f   qcustomplot.obj
 0001:0005e970       ?removeItem@QCustomPlot@@QEAA_NPEAVQCPAbstractItem@@@Z 000000014005f970 f   qcustomplot.obj
 0001:0005eaf0       ?layer@QCustomPlot@@QEBAPEAVQCPLayer@@AEBVQString@@@Z 000000014005faf0 f   qcustomplot.obj
 0001:0005ec30       ?setCurrentLayer@QCustomPlot@@QEAA_NPEAVQCPLayer@@@Z 000000014005fc30 f   qcustomplot.obj
 0001:0005ecf0       ?axisRectCount@QCustomPlot@@QEBAHXZ 000000014005fcf0 f   qcustomplot.obj
 0001:0005ed40       ?axisRect@QCustomPlot@@QEBAPEAVQCPAxisRect@@H@Z 000000014005fd40 f   qcustomplot.obj
 0001:0005ee10       ?axisRects@QCustomPlot@@QEBA?AV?$QList@PEAVQCPAxisRect@@@@XZ 000000014005fe10 f   qcustomplot.obj
 0001:0005f3d0       ??1?$QStack@PEAVQCPLayoutElement@@@@QEAA@XZ 00000001400603d0 f i qcustomplot.obj
 0001:0005f420       ?axisRectAt@QCustomPlot@@QEBAPEAVQCPAxisRect@@AEBVQPointF@@@Z 0000000140060420 f   qcustomplot.obj
 0001:0005f630       ?deselectAll@QCustomPlot@@QEAAXXZ 0000000140060630 f   qcustomplot.obj
 0001:0005f7c0       ?replot@QCustomPlot@@QEAAXW4RefreshPriority@1@@Z 00000001400607c0 f   qcustomplot.obj
 0001:0005f9d0       ?rescaleAxes@QCustomPlot@@QEAAX_N@Z 00000001400609d0 f   qcustomplot.obj
 0001:0005fbd0       ?sizeHint@QCustomPlot@@MEBA?AVQSize@@XZ 0000000140060bd0 f   qcustomplot.obj
 0001:0005fbd0       ?minimumSizeHint@QCustomPlot@@MEBA?AVQSize@@XZ 0000000140060bd0 f   qcustomplot.obj
 0001:0005fbf0       ?paintEvent@QCustomPlot@@MEAAXPEAVQPaintEvent@@@Z 0000000140060bf0 f   qcustomplot.obj
 0001:0005fd70       ?resizeEvent@QCustomPlot@@MEAAXPEAVQResizeEvent@@@Z 0000000140060d70 f   qcustomplot.obj
 0001:0005fdb0       ?mouseDoubleClickEvent@QCustomPlot@@MEAAXPEAVQMouseEvent@@@Z 0000000140060db0 f   qcustomplot.obj
 0001:000605f0       ?mousePressEvent@QCustomPlot@@MEAAXPEAVQMouseEvent@@@Z 00000001400615f0 f   qcustomplot.obj
 0001:00060a50       ?mouseMoveEvent@QCustomPlot@@MEAAXPEAVQMouseEvent@@@Z 0000000140061a50 f   qcustomplot.obj
 0001:00060b80       ?mouseReleaseEvent@QCustomPlot@@MEAAXPEAVQMouseEvent@@@Z 0000000140061b80 f   qcustomplot.obj
 0001:00060fd0       ?wheelEvent@QCustomPlot@@MEAAXPEAVQWheelEvent@@@Z 0000000140061fd0 f   qcustomplot.obj
 0001:00061130       ?draw@QCustomPlot@@MEAAXPEAVQCPPainter@@@Z 0000000140062130 f   qcustomplot.obj
 0001:00061210       ?updateLayout@QCustomPlot@@MEAAXXZ 0000000140062210 f   qcustomplot.obj
 0001:00061260       ?drawBackground@QCustomPlot@@IEAAXPEAVQCPPainter@@@Z 0000000140062260 f   qcustomplot.obj
 0001:00061410       ?setupPaintBuffers@QCustomPlot@@IEAAXXZ 0000000140062410 f   qcustomplot.obj
 0001:00061ba0       ?createPaintBuffer@QCustomPlot@@IEAAPEAVQCPAbstractPaintBuffer@@XZ 0000000140062ba0 f   qcustomplot.obj
 0001:00061cd0       ?axisRemoved@QCustomPlot@@MEAAXPEAVQCPAxis@@@Z 0000000140062cd0 f   qcustomplot.obj
 0001:00061d00       ?legendRemoved@QCustomPlot@@MEAAXPEAVQCPLegend@@@Z 0000000140062d00 f   qcustomplot.obj
 0001:00061d10       ?processRectSelection@QCustomPlot@@MEAAXVQRect@@PEAVQMouseEvent@@@Z 0000000140062d10 f   qcustomplot.obj
 0001:00062560       ??1?$QPair@PEAVQCPAbstractPlottable@@VQCPDataSelection@@@@QEAA@XZ 0000000140063560 f i qcustomplot.obj
 0001:000625a0       ?processRectZoom@QCustomPlot@@MEAAXVQRect@@PEAVQMouseEvent@@@Z 00000001400635a0 f   qcustomplot.obj
 0001:00062800       ?processPointSelection@QCustomPlot@@MEAAXPEAVQMouseEvent@@@Z 0000000140063800 f   qcustomplot.obj
 0001:00062b00       ?updateLayerIndices@QCustomPlot@@IEBAXXZ 0000000140063b00 f   qcustomplot.obj
 0001:00062ba0       ?layerableAt@QCustomPlot@@IEBAPEAVQCPLayerable@@AEBVQPointF@@_NPEAVQVariant@@@Z 0000000140063ba0 f   qcustomplot.obj
 0001:00062d20       ?layerableListAt@QCustomPlot@@IEBA?AV?$QList@PEAVQCPLayerable@@@@AEBVQPointF@@_NPEAV?$QList@VQVariant@@@@@Z 0000000140063d20 f   qcustomplot.obj
 0001:00063030       ??0QCPAxisRect@@QEAA@PEAVQCustomPlot@@_N@Z 0000000140064030 f   qcustomplot.obj
 0001:00063a20       ??_EQCPAxisRect@@UEAAPEAXI@Z 0000000140064a20 f i * CIL library *:* CIL module *
 0001:00063a20       ??_GQCPAxisRect@@UEAAPEAXI@Z 0000000140064a20 f i qcustomplot.obj
 0001:00063a60       ??1QCPAxisRect@@UEAA@XZ    0000000140064a60 f   qcustomplot.obj
 0001:00063db0       ?axisCount@QCPAxisRect@@QEBAHW4AxisType@QCPAxis@@@Z 0000000140064db0 f   qcustomplot.obj
 0001:00063e50       ?axis@QCPAxisRect@@QEBAPEAVQCPAxis@@W4AxisType@2@H@Z 0000000140064e50 f   qcustomplot.obj
 0001:00063f70       ?axes@QCPAxisRect@@QEBA?AV?$QList@PEAVQCPAxis@@@@XZ 0000000140064f70 f   qcustomplot.obj
 0001:00064090       ??1?$QHashIterator@W4AxisType@QCPAxis@@V?$QList@PEAVQCPAxis@@@@@@QEAA@XZ 0000000140065090 f i qcustomplot.obj
 0001:000640d0       ?addAxis@QCPAxisRect@@QEAAPEAVQCPAxis@@W4AxisType@2@PEAV2@@Z 00000001400650d0 f   qcustomplot.obj
 0001:00064280       ?removeAxis@QCPAxisRect@@QEAA_NPEAVQCPAxis@@@Z 0000000140065280 f   qcustomplot.obj
 0001:00064600       ?zoom@QCPAxisRect@@QEAAXAEBVQRectF@@AEBV?$QList@PEAVQCPAxis@@@@@Z 0000000140065600 f   qcustomplot.obj
 0001:000647a0       ?plottables@QCPAxisRect@@QEBA?AV?$QList@PEAVQCPAbstractPlottable@@@@XZ 00000001400657a0 f   qcustomplot.obj
 0001:00064960       ?update@QCPAxisRect@@UEAAXW4UpdatePhase@QCPLayoutElement@@@Z 0000000140065960 f   qcustomplot.obj
 0001:00064ac0       ?elements@QCPAxisRect@@UEBA?AV?$QList@PEAVQCPLayoutElement@@@@_N@Z 0000000140065ac0 f   qcustomplot.obj
 0001:00064b80       ?applyDefaultAntialiasingHint@QCPAxisRect@@MEBAXPEAVQCPPainter@@@Z 0000000140065b80 f   qcustomplot.obj
 0001:00064bd0       ?draw@QCPAxisRect@@MEAAXPEAVQCPPainter@@@Z 0000000140065bd0 f   qcustomplot.obj
 0001:00064be0       ?rangeDragAxis@QCPAxisRect@@QEAAPEAVQCPAxis@@W4Orientation@Qt@@@Z 0000000140065be0 f   qcustomplot.obj
 0001:00064c50       ?rangeZoomAxis@QCPAxisRect@@QEAAPEAVQCPAxis@@W4Orientation@Qt@@@Z 0000000140065c50 f   qcustomplot.obj
 0001:00064cc0       ?rangeDragAxes@QCPAxisRect@@QEAA?AV?$QList@PEAVQCPAxis@@@@W4Orientation@Qt@@@Z 0000000140065cc0 f   qcustomplot.obj
 0001:00064f30       ?rangeZoomAxes@QCPAxisRect@@QEAA?AV?$QList@PEAVQCPAxis@@@@W4Orientation@Qt@@@Z 0000000140065f30 f   qcustomplot.obj
 0001:000651a0       ?setRangeDragAxes@QCPAxisRect@@QEAAXV?$QList@PEAVQCPAxis@@@@@Z 00000001400661a0 f   qcustomplot.obj
 0001:00065330       ?setRangeDragAxes@QCPAxisRect@@QEAAXV?$QList@PEAVQCPAxis@@@@0@Z 0000000140066330 f   qcustomplot.obj
 0001:00065750       ?setRangeZoomAxes@QCPAxisRect@@QEAAXV?$QList@PEAVQCPAxis@@@@0@Z 0000000140066750 f   qcustomplot.obj
 0001:00065b70       ?drawBackground@QCPAxisRect@@IEAAXPEAVQCPPainter@@@Z 0000000140066b70 f   qcustomplot.obj
 0001:00065d50       ?updateAxesOffset@QCPAxisRect@@IEAAXW4AxisType@QCPAxis@@@Z 0000000140066d50 f   qcustomplot.obj
 0001:00066010       ?calculateAutoMargin@QCPAxisRect@@MEAAHW4MarginSide@QCP@@@Z 0000000140067010 f   qcustomplot.obj
 0001:00066240       ?layoutChanged@QCPAxisRect@@MEAAXXZ 0000000140067240 f   qcustomplot.obj
 0001:00066390       ?mousePressEvent@QCPAxisRect@@MEAAXPEAVQMouseEvent@@AEBVQVariant@@@Z 0000000140067390 f   qcustomplot.obj
 0001:000666a0       ?mouseMoveEvent@QCPAxisRect@@MEAAXPEAVQMouseEvent@@AEBVQPointF@@@Z 00000001400676a0 f   qcustomplot.obj
 0001:00066ca0       ?mouseReleaseEvent@QCPAxisRect@@MEAAXPEAVQMouseEvent@@AEBVQPointF@@@Z 0000000140067ca0 f   qcustomplot.obj
 0001:00066d10       ?wheelEvent@QCPAxisRect@@MEAAXPEAVQWheelEvent@@@Z 0000000140067d10 f   qcustomplot.obj
 0001:00067120       ??_EQCPAbstractLegendItem@@UEAAPEAXI@Z 0000000140068120 f i * CIL library *:* CIL module *
 0001:00067120       ??_GQCPAbstractLegendItem@@UEAAPEAXI@Z 0000000140068120 f i qcustomplot.obj
 0001:00067180       ?setSelectable@QCPAbstractLegendItem@@QEAAX_N@Z 0000000140068180 f   qcustomplot.obj
 0001:000671d0       ?setSelected@QCPAbstractLegendItem@@QEAAX_N@Z 00000001400681d0 f   qcustomplot.obj
 0001:00067220       ?selectTest@QCPAbstractLegendItem@@UEBANAEBVQPointF@@_NPEAVQVariant@@@Z 0000000140068220 f   qcustomplot.obj
 0001:000672a0       ?applyDefaultAntialiasingHint@QCPAbstractLegendItem@@MEBAXPEAVQCPPainter@@@Z 00000001400682a0 f   qcustomplot.obj
 0001:00067350       ?clipRect@QCPAbstractLegendItem@@MEBA?AVQRect@@XZ 0000000140068350 f   qcustomplot.obj
 0001:00067360       ?selectEvent@QCPAbstractLegendItem@@MEAAXPEAVQMouseEvent@@_NAEBVQVariant@@PEA_N@Z 0000000140068360 f   qcustomplot.obj
 0001:00067400       ?deselectEvent@QCPAbstractLegendItem@@MEAAXPEA_N@Z 0000000140068400 f   qcustomplot.obj
 0001:00067490       ??_EQCPPlottableLegendItem@@UEAAPEAXI@Z 0000000140068490 f i * CIL library *:* CIL module *
 0001:00067490       ??_GQCPPlottableLegendItem@@UEAAPEAXI@Z 0000000140068490 f i qcustomplot.obj
 0001:000674f0       ?draw@QCPPlottableLegendItem@@MEAAXPEAVQCPPainter@@@Z 00000001400684f0 f   qcustomplot.obj
 0001:00067920       ?minimumOuterSizeHint@QCPPlottableLegendItem@@MEBA?AVQSize@@XZ 0000000140068920 f   qcustomplot.obj
 0001:00067ac0       ??0QCPLegend@@QEAA@XZ      0000000140068ac0 f   qcustomplot.obj
 0001:00067ec0       ??_GQCPLegend@@UEAAPEAXI@Z 0000000140068ec0 f i qcustomplot.obj
 0001:00067ec0       ??_EQCPLegend@@UEAAPEAXI@Z 0000000140068ec0 f i * CIL library *:* CIL module *
 0001:00068010       ?selectedParts@QCPLegend@@QEBA?AV?$QFlags@W4SelectablePart@QCPLegend@@@@XZ 0000000140069010 f   qcustomplot.obj
 0001:000680d0       ?setTextColor@QCPLegend@@QEAAXAEBVQColor@@@Z 00000001400690d0 f   qcustomplot.obj
 0001:00068190       ?setSelectableParts@QCPLegend@@QEAAXAEBV?$QFlags@W4SelectablePart@QCPLegend@@@@@Z 0000000140069190 f   qcustomplot.obj
 0001:000681e0       ?setSelectedParts@QCPLegend@@QEAAXAEBV?$QFlags@W4SelectablePart@QCPLegend@@@@@Z 00000001400691e0 f   qcustomplot.obj
 0001:00068390       ?setSelectedTextColor@QCPLegend@@QEAAXAEBVQColor@@@Z 0000000140069390 f   qcustomplot.obj
 0001:00068450       ?itemWithPlottable@QCPLegend@@QEBAPEAVQCPPlottableLegendItem@@PEBVQCPAbstractPlottable@@@Z 0000000140069450 f   qcustomplot.obj
 0001:000684e0       ?applyDefaultAntialiasingHint@QCPLegend@@MEBAXPEAVQCPPainter@@@Z 00000001400694e0 f   qcustomplot.obj
 0001:00068590       ?draw@QCPLegend@@MEAAXPEAVQCPPainter@@@Z 0000000140069590 f   qcustomplot.obj
 0001:00068640       ?selectTest@QCPLegend@@UEBANAEBVQPointF@@_NPEAVQVariant@@@Z 0000000140069640 f   qcustomplot.obj
 0001:00068770       ?selectEvent@QCPLegend@@MEAAXPEAVQMouseEvent@@_NAEBVQVariant@@PEA_N@Z 0000000140069770 f   qcustomplot.obj
 0001:00068840       ?deselectEvent@QCPLegend@@MEAAXPEA_N@Z 0000000140069840 f   qcustomplot.obj
 0001:000688c0       ?selectionCategory@QCPLegend@@MEBA?AW4Interaction@QCP@@XZ 00000001400698c0 f   qcustomplot.obj
 0001:000688c0       ?selectionCategory@QCPAbstractLegendItem@@MEBA?AW4Interaction@QCP@@XZ 00000001400698c0 f   qcustomplot.obj
 0001:000688d0       ?parentPlotInitialized@QCPLegend@@MEAAXPEAVQCustomPlot@@@Z 00000001400698d0 f   qcustomplot.obj
 0001:000688f0       ?setSelectable@QCPTextElement@@QEAAX_N@Z 00000001400698f0 f   qcustomplot.obj
 0001:00068940       ?setSelected@QCPTextElement@@QEAAX_N@Z 0000000140069940 f   qcustomplot.obj
 0001:00068990       ?rangeDrag@QCPColorScale@@QEBA_NXZ 0000000140069990 f   qcustomplot.obj
 0001:00068b20       ?rangeZoom@QCPColorScale@@QEBA_NXZ 0000000140069b20 f   qcustomplot.obj
 0001:00068cb0       ?setType@QCPColorScale@@QEAAXW4AxisType@QCPAxis@@@Z 0000000140069cb0 f   qcustomplot.obj
 0001:000694f0       ?setDataRange@QCPColorScale@@QEAAXAEBVQCPRange@@@Z 000000014006a4f0 f   qcustomplot.obj
 0001:000695a0       ?setDataScaleType@QCPColorScale@@QEAAXW4ScaleType@QCPAxis@@@Z 000000014006a5a0 f   qcustomplot.obj
 0001:00069670       ?setGradient@QCPColorScale@@QEAAXAEBVQCPColorGradient@@@Z 000000014006a670 f   qcustomplot.obj
 0001:00069720       ??4QCPColorGradient@@QEAAAEAV0@AEBV0@@Z 000000014006a720 f i qcustomplot.obj
 0001:000697e0       ?axisSelectionChanged@QCPColorScaleAxisRectPrivate@@IEAAXV?$QFlags@W4SelectablePart@QCPAxis@@@@@Z 000000014006a7e0 f   qcustomplot.obj
 0001:00069ad0       ?axisSelectableChanged@QCPColorScaleAxisRectPrivate@@IEAAXV?$QFlags@W4SelectablePart@QCPAxis@@@@@Z 000000014006aad0 f   qcustomplot.obj
 0001:00069dc0       ??0QCPGraph@@QEAA@PEAVQCPAxis@@0@Z 000000014006adc0 f   qcustomplot.obj
 0001:0006a080       ??_GQCPGraph@@UEAAPEAXI@Z  000000014006b080 f i qcustomplot.obj
 0001:0006a080       ??_EQCPGraph@@UEAAPEAXI@Z  000000014006b080 f i * CIL library *:* CIL module *
 0001:0006a130       ?setChannelFillGraph@QCPGraph@@QEAAXPEAV1@@Z 000000014006b130 f   qcustomplot.obj
 0001:0006a270       ?selectTest@QCPGraph@@UEBANAEBVQPointF@@_NPEAVQVariant@@@Z 000000014006b270 f   qcustomplot.obj
 0001:0006a440       ?getKeyRange@QCPGraph@@UEBA?AVQCPRange@@AEA_NW4SignDomain@QCP@@@Z 000000014006b440 f   qcustomplot.obj
 0001:0006a460       ?getValueRange@QCPGraph@@UEBA?AVQCPRange@@AEA_NW4SignDomain@QCP@@AEBV2@@Z 000000014006b460 f   qcustomplot.obj
 0001:0006a490       ?draw@QCPGraph@@MEAAXPEAVQCPPainter@@@Z 000000014006b490 f   qcustomplot.obj
 0001:0006aa50       ??4QCPScatterStyle@@QEAAAEAV0@$$QEAV0@@Z 000000014006ba50 f i qcustomplot.obj
 0001:0006aac0       ?drawLegendIcon@QCPGraph@@MEBAXPEAVQCPPainter@@AEBVQRectF@@@Z 000000014006bac0 f   qcustomplot.obj
 0001:0006aed0       ?getLines@QCPGraph@@IEBAXPEAV?$QVector@VQPointF@@@@AEBVQCPDataRange@@@Z 000000014006bed0 f   qcustomplot.obj
 0001:0006b210       ?getScatters@QCPGraph@@IEBAXPEAV?$QVector@VQPointF@@@@AEBVQCPDataRange@@@Z 000000014006c210 f   qcustomplot.obj
 0001:0006b750       ?dataToLines@QCPGraph@@IEBA?AV?$QVector@VQPointF@@@@AEBV?$QVector@VQCPGraphData@@@@@Z 000000014006c750 f   qcustomplot.obj
 0001:0006ba40       ?dataToStepLeftLines@QCPGraph@@IEBA?AV?$QVector@VQPointF@@@@AEBV?$QVector@VQCPGraphData@@@@@Z 000000014006ca40 f   qcustomplot.obj
 0001:0006bdd0       ?dataToStepRightLines@QCPGraph@@IEBA?AV?$QVector@VQPointF@@@@AEBV?$QVector@VQCPGraphData@@@@@Z 000000014006cdd0 f   qcustomplot.obj
 0001:0006c160       ?dataToStepCenterLines@QCPGraph@@IEBA?AV?$QVector@VQPointF@@@@AEBV?$QVector@VQCPGraphData@@@@@Z 000000014006d160 f   qcustomplot.obj
 0001:0006c690       ?dataToImpulseLines@QCPGraph@@IEBA?AV?$QVector@VQPointF@@@@AEBV?$QVector@VQCPGraphData@@@@@Z 000000014006d690 f   qcustomplot.obj
 0001:0006ca10       ?drawFill@QCPGraph@@MEBAXPEAVQCPPainter@@PEAV?$QVector@VQPointF@@@@@Z 000000014006da10 f   qcustomplot.obj
 0001:0006cf70       ?drawScatterPlot@QCPGraph@@MEBAXPEAVQCPPainter@@AEBV?$QVector@VQPointF@@@@AEBVQCPScatterStyle@@@Z 000000014006df70 f   qcustomplot.obj
 0001:0006d040       ?drawLinePlot@QCPGraph@@MEBAXPEAVQCPPainter@@AEBV?$QVector@VQPointF@@@@@Z 000000014006e040 f   qcustomplot.obj
 0001:0006d0d0       ?drawImpulsePlot@QCPGraph@@MEBAXPEAVQCPPainter@@AEBV?$QVector@VQPointF@@@@@Z 000000014006e0d0 f   qcustomplot.obj
 0001:0006d1f0       ?getOptimizedLineData@QCPGraph@@MEBAXPEAV?$QVector@VQCPGraphData@@@@AEBQEBVQCPGraphData@@1@Z 000000014006e1f0 f   qcustomplot.obj
 0001:0006d910       ?getOptimizedScatterData@QCPGraph@@MEBAXPEAV?$QVector@VQCPGraphData@@@@PEBVQCPGraphData@@1@Z 000000014006e910 f   qcustomplot.obj
 0001:0006e100       ?getVisibleDataBounds@QCPGraph@@IEBAXAEAPEBVQCPGraphData@@0AEBVQCPDataRange@@@Z 000000014006f100 f   qcustomplot.obj
 0001:0006e250       ?getNonNanSegments@QCPGraph@@IEBA?AV?$QVector@VQCPDataRange@@@@PEBV?$QVector@VQPointF@@@@W4Orientation@Qt@@@Z 000000014006f250 f   qcustomplot.obj
 0001:0006e460       ?getOverlappingSegments@QCPGraph@@IEBA?AV?$QVector@U?$QPair@VQCPDataRange@@V1@@@@@V?$QVector@VQCPDataRange@@@@PEBV?$QVector@VQPointF@@@@01@Z 000000014006f460 f   qcustomplot.obj
 0001:0006eb30       ?getFillBasePoint@QCPGraph@@IEBA?AVQPointF@@V2@@Z 000000014006fb30 f   qcustomplot.obj
 0001:0006ed90       ?getChannelFillPolygon@QCPGraph@@IEBA?BVQPolygonF@@PEBV?$QVector@VQPointF@@@@VQCPDataRange@@01@Z 000000014006fd90 f   qcustomplot.obj
 0001:0006f720       ?pointDistance@QCPGraph@@IEBANAEBVQPointF@@AEAPEBVQCPGraphData@@@Z 0000000140070720 f   qcustomplot.obj
 0001:0006fc50       ?setBarsGroup@QCPBars@@QEAAXPEAVQCPBarsGroup@@@Z 0000000140070c50 f   qcustomplot.obj
 0001:0006fd60       ?setDataRange@QCPColorMap@@QEAAXAEBVQCPRange@@@Z 0000000140070d60 f   qcustomplot.obj
 0001:0006fe30       ?setDataScaleType@QCPColorMap@@QEAAXW4ScaleType@QCPAxis@@@Z 0000000140070e30 f   qcustomplot.obj
 0001:0006feb0       ?setGradient@QCPColorMap@@QEAAXAEBVQCPColorGradient@@@Z 0000000140070eb0 f   qcustomplot.obj
 0001:0006ff30       ?setColorScale@QCPColorMap@@QEAAXPEAVQCPColorScale@@@Z 0000000140070f30 f   qcustomplot.obj
 0001:00070520       ?updateLegendIcon@QCPColorMap@@QEAAXW4TransformationMode@Qt@@AEBVQSize@@@Z 0000000140071520 f   qcustomplot.obj
 0001:000706c0       ?setDataPlottable@QCPErrorBars@@QEAAXPEAVQCPAbstractPlottable@@@Z 00000001400716c0 f   qcustomplot.obj
 0001:00070880       ?setGraph@QCPItemTracer@@QEAAXPEAVQCPGraph@@@Z 0000000140071880 f   qcustomplot.obj
 0001:00070a20       ?updatePosition@QCPItemTracer@@QEAAXXZ 0000000140071a20 f   qcustomplot.obj
 0001:00070f60       ??1?$QMap@HU?$QPair@PEAVQCPAbstractPlottable@@VQCPDataSelection@@@@@@QEAA@XZ 0000000140071f60 f i qcustomplot.obj
 0001:00070fc0       ?first@?$QList@V?$QList@PEAVQCPLayoutElement@@@@@@QEBAAEBV?$QList@PEAVQCPLayoutElement@@@@XZ 0000000140071fc0 f i qcustomplot.obj
 0001:00070fc0       ?first@?$QList@VQCPDataRange@@@@QEBAAEBVQCPDataRange@@XZ 0000000140071fc0 f i qcustomplot.obj
 0001:00070fc0       ?first@?$QList@PEAVQCPAxis@@@@QEBAAEBQEAVQCPAxis@@XZ 0000000140071fc0 f i qcustomplot.obj
 0001:00071040       ?constBegin@?$QCPDataContainer@VQCPGraphData@@@@QEBAPEBVQCPGraphData@@XZ 0000000140072040 f i qcustomplot.obj
 0001:00071070       ?first@?$QVector@VQCPGraphData@@@@QEBAAEBVQCPGraphData@@XZ 0000000140072070 f i qcustomplot.obj
 0001:000710b0       ?interface1D@?$QCPAbstractPlottable1D@VQCPGraphData@@@@UEAAPEAVQCPPlottableInterface1D@@XZ 00000001400720b0 f i qcustomplot.obj
 0001:000710d0       ??1?$QHash@W4AxisType@QCPAxis@@V?$QList@PEAVQCPAxis@@@@@@QEAA@XZ 00000001400720d0 f i qcustomplot.obj
 0001:00071110       ??4?$QVector@VQString@@@@QEAAAEAV0@$$QEAV0@@Z 0000000140072110 f i qcustomplot.obj
 0001:000711c0       ??1?$QVector@VQString@@@@QEAA@XZ 00000001400721c0 f i qcustomplot.obj
 0001:000711f0       ??4?$QVector@N@@QEAAAEAV0@$$QEAV0@@Z 00000001400721f0 f i qcustomplot.obj
 0001:00071270       ??4?$QSharedPointer@VQCPAxisTicker@@@@QEAAAEAV0@$$QEAV0@@Z 0000000140072270 f i qcustomplot.obj
 0001:000712e0       ?last@?$QList@VQCPDataRange@@@@QEBAAEBVQCPDataRange@@XZ 00000001400722e0 f i qcustomplot.obj
 0001:000712e0       ?last@?$QList@V?$QList@PEAVTournamentPair@@@@@@QEBAAEBV?$QList@PEAVTournamentPair@@@@XZ 00000001400722e0 f i cutechess:knockouttournament.obj
 0001:00071370       ?first@?$QList@VQCPDataRange@@@@QEAAAEAVQCPDataRange@@XZ 0000000140072370 f i qcustomplot.obj
 0001:000713d0       ??4?$QVector@H@@QEAAAEAV0@$$QEAV0@@Z 00000001400723d0 f i qcustomplot.obj
 0001:00071450       ?detach@?$QMap@HU?$QPair@PEAVQCPAbstractPlottable@@VQCPDataSelection@@@@@@QEAAXXZ 0000000140072450 f i qcustomplot.obj
 0001:00071510       ?detach@?$QHash@W4MarginSide@QCP@@PEAVQCPMarginGroup@@@@QEAAXXZ 0000000140072510 f i qcustomplot.obj
 0001:00071590       ?destroySubTree@?$QMapNode@HU?$QPair@PEAVQCPAbstractPlottable@@VQCPDataSelection@@@@@@QEAAXXZ 0000000140072590 f i qcustomplot.obj
 0001:000715f0       ?detach@?$QHash@W4MarginSide@QCP@@V?$QList@PEAVQCPLayoutElement@@@@@@QEAAXXZ 00000001400725f0 f i qcustomplot.obj
 0001:000715f0       ?detach@?$QHash@W4AxisType@QCPAxis@@V?$QList@PEAVQCPAxis@@@@@@QEAAXXZ 00000001400725f0 f i qcustomplot.obj
 0001:00071670       ??0?$QVector@VQString@@@@QEAA@AEBV0@@Z 0000000140072670 f i qcustomplot.obj
 0001:00071790       ??4?$QVector@VQString@@@@QEAAAEAV0@AEBV0@@Z 0000000140072790 f i qcustomplot.obj
 0001:00071850       ?reserve@?$QVector@VQString@@@@QEAAXH@Z 0000000140072850 f i qcustomplot.obj
 0001:000718e0       ?append@?$QVector@VQString@@@@QEAAXAEBVQString@@@Z 00000001400728e0 f i qcustomplot.obj
 0001:000719b0       ?freeData@?$QVector@VQString@@@@AEAAXPEAU?$QTypedArrayData@VQString@@@@@Z 00000001400729b0 f i qcustomplot.obj
 0001:00071a30       ??1?$QList@VQVariant@@@@QEAA@XZ 0000000140072a30 f i qcustomplot.obj
 0001:00071a60       ?append@?$QList@VQVariant@@@@QEAAXAEBVQVariant@@@Z 0000000140072a60 f i qcustomplot.obj
 0001:00071ae0       ??0?$QVector@N@@QEAA@AEBV0@@Z 0000000140072ae0 f i qcustomplot.obj
 0001:00071bf0       ??0?$QVector@N@@QEAA@H@Z   0000000140072bf0 f i qcustomplot.obj
 0001:00071cb0       ?at@?$QVector@N@@QEBAAEBNH@Z 0000000140072cb0 f i qcustomplot.obj
 0001:00071d10       ?mid@?$QVector@N@@QEBA?AV1@HH@Z 0000000140072d10 f i qcustomplot.obj
 0001:00071ed0       ?toVector@?$QList@N@@QEBA?AV?$QVector@N@@XZ 0000000140072ed0 f i qcustomplot.obj
 0001:00071fe0       ?append@?$QList@VQRectF@@@@QEAAXAEBVQRectF@@@Z 0000000140072fe0 f i qcustomplot.obj
 0001:00071fe0       ?append@?$QList@UGameEntry@GameManager@@@@QEAAXAEBUGameEntry@GameManager@@@Z 0000000140072fe0 f i cutechess:gamemanager.obj
 0001:00072060       ?append@?$QList@H@@QEAAXAEBH@Z 0000000140073060 f i qcustomplot.obj
 0001:000720b0       ?append@?$QList@PEAVQCPLayerable@@@@QEAAXAEBQEAVQCPLayerable@@@Z 00000001400730b0 f i qcustomplot.obj
 0001:00072100       ??0?$QList@VQCPDataRange@@@@QEAA@AEBV0@@Z 0000000140073100 f i qcustomplot.obj
 0001:00072190       ??4?$QList@VQCPDataRange@@@@QEAAAEAV0@AEBV0@@Z 0000000140073190 f i qcustomplot.obj
 0001:000721f0       ??A?$QList@VQCPDataRange@@@@QEAAAEAVQCPDataRange@@H@Z 00000001400731f0 f i qcustomplot.obj
 0001:00072270       ?append@?$QList@VQCPDataRange@@@@QEAAXAEBVQCPDataRange@@@Z 0000000140073270 f i qcustomplot.obj
 0001:000722c0       ?insert@?$QList@VQCPDataRange@@@@QEAAXHAEBVQCPDataRange@@@Z 00000001400732c0 f i qcustomplot.obj
 0001:00072310       ??Y?$QList@VQCPDataRange@@@@QEAAAEAV0@AEBV0@@Z 0000000140073310 f i qcustomplot.obj
 0001:000723b0       ??0?$QVector@VQCPDataRange@@@@QEAA@AEBV0@@Z 00000001400733b0 f i qcustomplot.obj
 0001:000724d0       ??A?$QList@PEAVQCPLayoutElement@@@@QEAAAEAPEAVQCPLayoutElement@@H@Z 00000001400734d0 f i qcustomplot.obj
 0001:00072550       ??Y?$QList@PEAVQCPAxis@@@@QEAAAEAV0@AEBV0@@Z 0000000140073550 f i qcustomplot.obj
 0001:00072550       ??Y?$QList@PEAVQCPLayoutElement@@@@QEAAAEAV0@AEBV0@@Z 0000000140073550 f i qcustomplot.obj
 0001:00072550       ??Y?$QList@PEBVPgnGameEntry@@@@QEAAAEAV0@AEBV0@@Z 0000000140073550 f i gamedatabasedlg.obj
 0001:000725f0       ??A?$QHash@W4AxisType@QCPAxis@@V?$QList@PEAVQCPAxis@@@@@@QEAAAEAV?$QList@PEAVQCPAxis@@@@AEBW4AxisType@QCPAxis@@@Z 00000001400735f0 f i qcustomplot.obj
 0001:000725f0       ??A?$QHash@W4MarginSide@QCP@@V?$QList@PEAVQCPLayoutElement@@@@@@QEAAAEAV?$QList@PEAVQCPLayoutElement@@@@AEBW4MarginSide@QCP@@@Z 00000001400735f0 f i qcustomplot.obj
 0001:000726d0       ??0?$QList@W4MarginSide@QCP@@@@QEAA@AEBV0@@Z 00000001400736d0 f i qcustomplot.obj
 0001:000726d0       ??0?$QList@W4AxisType@QCPAxis@@@@QEAA@AEBV0@@Z 00000001400736d0 f i qcustomplot.obj
 0001:00072760       ??1?$QList@W4MarginSide@QCP@@@@QEAA@XZ 0000000140073760 f i qcustomplot.obj
 0001:00072760       ??1?$QList@W4AxisType@QCPAxis@@@@QEAA@XZ 0000000140073760 f i qcustomplot.obj
 0001:00072790       ?append@?$QList@W4MarginSide@QCP@@@@QEAAXAEBW4MarginSide@QCP@@@Z 0000000140073790 f i qcustomplot.obj
 0001:00072790       ?append@?$QList@W4InsetPlacement@QCPLayoutInset@@@@QEAAXAEBW4InsetPlacement@QCPLayoutInset@@@Z 0000000140073790 f i qcustomplot.obj
 0001:00072790       ?append@?$QList@W4AxisType@QCPAxis@@@@QEAAXAEBW4AxisType@QCPAxis@@@Z 0000000140073790 f i qcustomplot.obj
 0001:000727f0       ??A?$QList@V?$QList@PEAVQCPLayoutElement@@@@@@QEAAAEAV?$QList@PEAVQCPLayoutElement@@@@H@Z 00000001400737f0 f i qcustomplot.obj
 0001:00072870       ?append@?$QList@V?$QList@PEAVQCPLayoutElement@@@@@@QEAAXAEBV?$QList@PEAVQCPLayoutElement@@@@@Z 0000000140073870 f i qcustomplot.obj
 0001:00072870       ?append@?$QList@V?$QList@PEAVTournamentPair@@@@@@QEAAXAEBV?$QList@PEAVTournamentPair@@@@@Z 0000000140073870 f i cutechess:knockouttournament.obj
 0001:000728e0       ??A?$QHash@W4MarginSide@QCP@@PEAVQCPMarginGroup@@@@QEAAAEAPEAVQCPMarginGroup@@AEBW4MarginSide@QCP@@@Z 00000001400738e0 f i qcustomplot.obj
 0001:00072990       ?append@?$QList@V?$QFlags@W4AlignmentFlag@Qt@@@@@@QEAAXAEBV?$QFlags@W4AlignmentFlag@Qt@@@@@Z 0000000140073990 f i qcustomplot.obj
 0001:000729e0       ?clear@?$QCache@VQString@@UCachedLabel@QCPAxisPainterPrivate@@@@QEAAXXZ 00000001400739e0 f i qcustomplot.obj
 0001:00072ab0       ?insert@?$QCache@VQString@@UCachedLabel@QCPAxisPainterPrivate@@@@QEAA_NAEBVQString@@PEAUCachedLabel@QCPAxisPainterPrivate@@H@Z 0000000140073ab0 f i qcustomplot.obj
 0001:00072df0       ??1?$QList@V?$QSharedPointer@VQCPAbstractPaintBuffer@@@@@@QEAA@XZ 0000000140073df0 f i qcustomplot.obj
 0001:00072e50       ?append@?$QList@V?$QSharedPointer@VQCPAbstractPaintBuffer@@@@@@QEAAXAEBV?$QSharedPointer@VQCPAbstractPaintBuffer@@@@@Z 0000000140073e50 f i qcustomplot.obj
 0001:00072ef0       ??0?$QMap@NVQColor@@@@QEAA@AEBV0@@Z 0000000140073ef0 f i qcustomplot.obj
 0001:00072f80       ??4?$QMap@NVQColor@@@@QEAAAEAV0@AEBV0@@Z 0000000140073f80 f i qcustomplot.obj
 0001:00073050       ?clear@?$QList@V?$QPointer@VQCPAxis@@@@@@QEAAXXZ 0000000140074050 f i qcustomplot.obj
 0001:00073190       ?append@?$QList@V?$QPointer@VGameThread@@@@@@QEAAXAEBV?$QPointer@VGameThread@@@@@Z 0000000140074190 f i cutechess:gamemanager.obj
 0001:00073190       ?append@?$QList@V?$QPointer@VQCPAxis@@@@@@QEAAXAEBV?$QPointer@VQCPAxis@@@@@Z 0000000140074190 f i qcustomplot.obj
 0001:00073220       ?clear@?$QList@VQCPRange@@@@QEAAXXZ 0000000140074220 f i qcustomplot.obj
 0001:00073310       ?add@?$QCPDataContainer@VQCPGraphData@@@@QEAAXAEBVQCPGraphData@@@Z 0000000140074310 f i qcustomplot.obj
 0001:00073530       ?findBegin@?$QCPDataContainer@VQCPGraphData@@@@QEBAPEBVQCPGraphData@@N_N@Z 0000000140074530 f i qcustomplot.obj
 0001:00073630       ?findEnd@?$QCPDataContainer@VQCPGraphData@@@@QEBAPEBVQCPGraphData@@N_N@Z 0000000140074630 f i qcustomplot.obj
 0001:00073730       ?keyRange@?$QCPDataContainer@VQCPGraphData@@@@QEAA?AVQCPRange@@AEA_NW4SignDomain@QCP@@@Z 0000000140074730 f i qcustomplot.obj
 0001:000739a0       ?valueRange@?$QCPDataContainer@VQCPGraphData@@@@QEAA?AVQCPRange@@AEA_NW4SignDomain@QCP@@AEBV2@@Z 00000001400749a0 f i qcustomplot.obj
 0001:00073cc0       ?limitIteratorsToDataRange@?$QCPDataContainer@VQCPGraphData@@@@QEBAXAEAPEBVQCPGraphData@@0AEBVQCPDataRange@@@Z 0000000140074cc0 f i qcustomplot.obj
 0001:00073e40       ??1?$QCPAbstractPlottable1D@VQCPGraphData@@@@UEAA@XZ 0000000140074e40 f i qcustomplot.obj
 0001:00073ed0       ?dataCount@?$QCPAbstractPlottable1D@VQCPGraphData@@@@UEBAHXZ 0000000140074ed0 f i qcustomplot.obj
 0001:00073ef0       ?dataMainKey@?$QCPAbstractPlottable1D@VQCPGraphData@@@@UEBANH@Z 0000000140074ef0 f i qcustomplot.obj
 0001:00073fb0       ?dataSortKey@?$QCPAbstractPlottable1D@VQCPGraphData@@@@UEBANH@Z 0000000140074fb0 f i qcustomplot.obj
 0001:00074070       ?dataMainValue@?$QCPAbstractPlottable1D@VQCPGraphData@@@@UEBANH@Z 0000000140075070 f i qcustomplot.obj
 0001:00074130       ?dataValueRange@?$QCPAbstractPlottable1D@VQCPGraphData@@@@UEBA?AVQCPRange@@H@Z 0000000140075130 f i qcustomplot.obj
 0001:00074210       ?dataPixelPosition@?$QCPAbstractPlottable1D@VQCPGraphData@@@@UEBA?AVQPointF@@H@Z 0000000140075210 f i qcustomplot.obj
 0001:00074300       __vcrt_initialize          0000000140075300 f i MSVCRT:ucrt_stubs.obj
 0001:00074300       __scrt_stub_for_acrt_uninitialize 0000000140075300 f i MSVCRT:ucrt_stubs.obj
 0001:00074300       __vcrt_uninitialize        0000000140075300 f i MSVCRT:ucrt_stubs.obj
 0001:00074300       __acrt_initialize          0000000140075300 f i MSVCRT:ucrt_stubs.obj
 0001:00074300       _should_initialize_environment 0000000140075300 f i MSVCRT:env_mode.obj
 0001:00074300       __scrt_stub_for_acrt_initialize 0000000140075300 f i MSVCRT:ucrt_stubs.obj
 0001:00074300       ?hasGauntletRatingsOrder@GauntletTournament@@MEBA_NXZ 0000000140075300 f i cutechess:gauntlettournament.obj
 0001:00074300       ?isEditable@EngineOption@@UEBA_NXZ 0000000140075300 f i cutechess:engineoption.obj
 0001:00074300       __acrt_uninitialize        0000000140075300 f i MSVCRT:ucrt_stubs.obj
 0001:00074300       ?isSequential@EngineProcess@@UEBA_NXZ 0000000140075300 f i cutechess:engineprocess_win.obj
 0001:00074300       ?sortKeyIsMainKey@?$QCPAbstractPlottable1D@VQCPGraphData@@@@UEBA_NXZ 0000000140075300 f i qcustomplot.obj
 0001:00074300       ?isHuman@HumanPlayer@@UEBA_NXZ 0000000140075300 f i cutechess:humanplayer.obj
 0001:00074300       ?supportsVariant@HumanPlayer@@UEBA_NAEBVQString@@@Z 0000000140075300 f i cutechess:humanplayer.obj
 0001:00074300       ?isHuman@HumanBuilder@@UEBA_NXZ 0000000140075300 f i cutechess:humanbuilder.obj
 0001:00074300       ?canSetRoundMultiplier@Tournament@@UEBA_NXZ 0000000140075300 f i cutechess:tournament.obj
 0001:00074310       ?selectTestRect@?$QCPAbstractPlottable1D@VQCPGraphData@@@@UEBA?AVQCPDataSelection@@AEBVQRectF@@_N@Z 0000000140075310 f i qcustomplot.obj
 0001:00074660       ?findBegin@?$QCPAbstractPlottable1D@VQCPGraphData@@@@UEBAHN_N@Z 0000000140075660 f i qcustomplot.obj
 0001:000746d0       ?findEnd@?$QCPAbstractPlottable1D@VQCPGraphData@@@@UEBAHN_N@Z 00000001400756d0 f i qcustomplot.obj
 0001:00074740       ?selectTest@?$QCPAbstractPlottable1D@VQCPGraphData@@@@UEBANAEBVQPointF@@_NPEAVQVariant@@@Z 0000000140075740 f i qcustomplot.obj
 0001:00074ab0       ?getDataSegments@?$QCPAbstractPlottable1D@VQCPGraphData@@@@IEBAXAEAV?$QList@VQCPDataRange@@@@0@Z 0000000140075ab0 f i qcustomplot.obj
 0001:00074cc0       ?drawPolyline@?$QCPAbstractPlottable1D@VQCPGraphData@@@@IEBAXPEAVQCPPainter@@AEBV?$QVector@VQPointF@@@@@Z 0000000140075cc0 f i qcustomplot.obj
 0001:00074f00       ?resize@?$QVector@VQCPGraphData@@@@QEAAXH@Z 0000000140075f00 f i qcustomplot.obj
 0001:00075010       ?detach@?$QVector@VQCPGraphData@@@@QEAAXXZ 0000000140076010 f i qcustomplot.obj
 0001:00075010       ?detach@?$QVector@UFilePosition@OpeningSuite@@@@QEAAXXZ 0000000140076010 f i cutechess:openingsuite.obj
 0001:00075090       ?append@?$QVector@VQCPGraphData@@@@QEAAX$$QEAVQCPGraphData@@@Z 0000000140076090 f i qcustomplot.obj
 0001:00075120       ?append@?$QVector@VQCPGraphData@@@@QEAAXAEBVQCPGraphData@@@Z 0000000140076120 f i qcustomplot.obj
 0001:000751e0       ??$?6H@@YA?AVQDebug@@V0@AEBV?$QVector@H@@@Z 00000001400761e0 f i qcustomplot.obj
 0001:00075300       ??$?6N@@YA?AVQDebug@@V0@AEBV?$QVector@N@@@Z 0000000140076300 f i qcustomplot.obj
 0001:00075420       ??$?6N@@YA?AVQDebug@@V0@AEBV?$QList@N@@@Z 0000000140076420 f i qcustomplot.obj
 0001:00075530       ??$value@W4SelectablePart@QCPAxis@@@QVariant@@QEBA?AW4SelectablePart@QCPAxis@@XZ 0000000140076530 f i qcustomplot.obj
 0001:00075590       ??$setValue@VQCPDataSelection@@@QVariant@@QEAAXAEBVQCPDataSelection@@@Z 0000000140076590 f i qcustomplot.obj
 0001:00075670       ??_G?$QCPAbstractPlottable1D@VQCPGraphData@@@@UEAAPEAXI@Z 0000000140076670 f i qcustomplot.obj
 0001:00075670       ??_E?$QCPAbstractPlottable1D@VQCPGraphData@@@@UEAAPEAXI@Z 0000000140076670 f i * CIL library *:* CIL module *
 0001:000756b0       ?createNode@?$QMapData@NVQColor@@@@QEAAPEAU?$QMapNode@NVQColor@@@@AEBNAEBVQColor@@PEAU2@_N@Z 00000001400766b0 f i qcustomplot.obj
 0001:00075700       ?createNode@?$QMapData@HU?$QPair@PEAVQCPAbstractPlottable@@VQCPDataSelection@@@@@@QEAAPEAU?$QMapNode@HU?$QPair@PEAVQCPAbstractPlottable@@VQCPDataSelection@@@@@@AEBHAEBU?$QPair@PEAVQCPAbstractPlottable@@VQCPDataSelection@@@@PEAU2@_N@Z 0000000140076700 f i qcustomplot.obj
 0001:00075760       ??4?$QMap@NVQColor@@@@QEAAAEAV0@$$QEAV0@@Z 0000000140076760 f i qcustomplot.obj
 0001:000757d0       ?unlink@?$QCache@VQString@@UCachedLabel@QCPAxisPainterPrivate@@@@AEAAXAEAUNode@1@@Z 00000001400767d0 f i qcustomplot.obj
 0001:00075920       ??4?$QList@N@@QEAAAEAV0@$$QEAV0@@Z 0000000140076920 f i qcustomplot.obj
 0001:00075970       ?deallocate@?$QTypedArrayData@_N@@SAXPEAUQArrayData@@@Z 0000000140076970 f i qcustomplot.obj
 0001:00075980       ?detach@?$QHash@VQString@@UNode@?$QCache@VQString@@UCachedLabel@QCPAxisPainterPrivate@@@@@@QEAAXXZ 0000000140076980 f i qcustomplot.obj
 0001:00075a00       ?detach@?$QVector@VQString@@@@QEAAXXZ 0000000140076a00 f i qcustomplot.obj
 0001:00075a80       ?realloc@?$QVector@VQString@@@@AEAAXHV?$QFlags@W4AllocationOption@QArrayData@@@@@Z 0000000140076a80 f i qcustomplot.obj
 0001:00075d20       ?detach_helper_grow@?$QList@VQVariant@@@@AEAAPEAUNode@1@HH@Z 0000000140076d20 f i qcustomplot.obj
 0001:00075e00       ?detach_helper@?$QList@VQVariant@@@@AEAAXH@Z 0000000140076e00 f i qcustomplot.obj
 0001:00075e90       ?dealloc@?$QList@VQVariant@@@@AEAAXPEAUData@QListData@@@Z 0000000140076e90 f i qcustomplot.obj
 0001:00075f20       ?node_copy@?$QList@VQVariant@@@@AEAAXPEAUNode@1@00@Z 0000000140076f20 f i qcustomplot.obj
 0001:00075f80       ?detach_helper_grow@?$QList@UGameEntry@GameManager@@@@AEAAPEAUNode@1@HH@Z 0000000140076f80 f i cutechess:gamemanager.obj
 0001:00075f80       ?detach_helper_grow@?$QList@VQRectF@@@@AEAAPEAUNode@1@HH@Z 0000000140076f80 f i qcustomplot.obj
 0001:00076060       ?dealloc@?$QList@VQRectF@@@@AEAAXPEAUData@QListData@@@Z 0000000140077060 f i qcustomplot.obj
 0001:00076060       ?dealloc@?$QList@UGameEntry@GameManager@@@@AEAAXPEAUData@QListData@@@Z 0000000140077060 f i cutechess:gamemanager.obj
 0001:000760c0       ?detach_helper_grow@?$QList@PEAVQCPLayerable@@@@AEAAPEAUNode@1@HH@Z 00000001400770c0 f i qcustomplot.obj
 0001:000760c0       ?detach_helper_grow@?$QList@H@@AEAAPEAUNode@1@HH@Z 00000001400770c0 f i qcustomplot.obj
 0001:00076190       ?detach@?$QVector@_N@@QEAAXXZ 0000000140077190 f i qcustomplot.obj
 0001:00076210       ?realloc@?$QVector@_N@@AEAAXHV?$QFlags@W4AllocationOption@QArrayData@@@@@Z 0000000140077210 f i qcustomplot.obj
 0001:00076480       ?detach_helper_grow@?$QList@VQCPDataRange@@@@AEAAPEAUNode@1@HH@Z 0000000140077480 f i qcustomplot.obj
 0001:00076550       ?detach_helper@?$QList@VQCPDataRange@@@@AEAAXH@Z 0000000140077550 f i qcustomplot.obj
 0001:000765d0       ?node_copy@?$QList@VQCPDataRange@@@@AEAAXPEAUNode@1@00@Z 00000001400775d0 f i qcustomplot.obj
 0001:00076600       ?realloc@?$QVector@UMoveData@WesternBoard@Chess@@@@AEAAXHV?$QFlags@W4AllocationOption@QArrayData@@@@@Z 0000000140077600 f i cutechess:westernboard.obj
 0001:00076600       ?realloc@?$QVector@VQCPDataRange@@@@AEAAXHV?$QFlags@W4AllocationOption@QArrayData@@@@@Z 0000000140077600 f i qcustomplot.obj
 0001:000768b0       ?findNode@?$QHash@W4AxisType@QCPAxis@@V?$QList@PEAVQCPAxis@@@@@@AEBAPEAPEAU?$QHashNode@W4AxisType@QCPAxis@@V?$QList@PEAVQCPAxis@@@@@@AEBW4AxisType@QCPAxis@@I@Z 00000001400778b0 f i qcustomplot.obj
 0001:000768b0       ?findNode@?$QHash@W4MarginSide@QCP@@PEAVQCPMarginGroup@@@@AEBAPEAPEAU?$QHashNode@W4MarginSide@QCP@@PEAVQCPMarginGroup@@@@AEBW4MarginSide@QCP@@I@Z 00000001400778b0 f i qcustomplot.obj
 0001:000768b0       ?findNode@?$QHash@W4MarginSide@QCP@@V?$QList@PEAVQCPLayoutElement@@@@@@AEBAPEAPEAU?$QHashNode@W4MarginSide@QCP@@V?$QList@PEAVQCPLayoutElement@@@@@@AEBW4MarginSide@QCP@@I@Z 00000001400778b0 f i qcustomplot.obj
 0001:00076970       ?createNode@?$QHash@W4MarginSide@QCP@@V?$QList@PEAVQCPLayoutElement@@@@@@AEAAPEAU?$QHashNode@W4MarginSide@QCP@@V?$QList@PEAVQCPLayoutElement@@@@@@IAEBW4MarginSide@QCP@@AEBV?$QList@PEAVQCPLayoutElement@@@@PEAPEAU2@@Z 0000000140077970 f i qcustomplot.obj
 0001:00076970       ?createNode@?$QHash@W4AxisType@QCPAxis@@V?$QList@PEAVQCPAxis@@@@@@AEAAPEAU?$QHashNode@W4AxisType@QCPAxis@@V?$QList@PEAVQCPAxis@@@@@@IAEBW4AxisType@QCPAxis@@AEBV?$QList@PEAVQCPAxis@@@@PEAPEAU2@@Z 0000000140077970 f i qcustomplot.obj
 0001:000769f0       ?deleteNode2@?$QHash@W4MarginSide@QCP@@V?$QList@PEAVQCPLayoutElement@@@@@@CAXPEAUNode@QHashData@@@Z 00000001400779f0 f i qcustomplot.obj
 0001:000769f0       ?deleteNode2@?$QHash@W4AxisType@QCPAxis@@V?$QList@PEAVQCPAxis@@@@@@CAXPEAUNode@QHashData@@@Z 00000001400779f0 f i qcustomplot.obj
 0001:00076a30       ?duplicateNode@?$QHash@W4AxisType@QCPAxis@@V?$QList@PEAVQCPAxis@@@@@@CAXPEAUNode@QHashData@@PEAX@Z 0000000140077a30 f i qcustomplot.obj
 0001:00076a30       ?duplicateNode@?$QHash@W4MarginSide@QCP@@V?$QList@PEAVQCPLayoutElement@@@@@@CAXPEAUNode@QHashData@@PEAX@Z 0000000140077a30 f i qcustomplot.obj
 0001:00076a60       ?detach_helper_grow@?$QList@W4MarginSide@QCP@@@@AEAAPEAUNode@1@HH@Z 0000000140077a60 f i qcustomplot.obj
 0001:00076a60       ?detach_helper_grow@?$QList@W4AxisType@QCPAxis@@@@AEAAPEAUNode@1@HH@Z 0000000140077a60 f i qcustomplot.obj
 0001:00076a60       ?detach_helper_grow@?$QList@W4InsetPlacement@QCPLayoutInset@@@@AEAAPEAUNode@1@HH@Z 0000000140077a60 f i qcustomplot.obj
 0001:00076b40       ?dealloc@?$QList@W4InsetPlacement@QCPLayoutInset@@@@AEAAXPEAUData@QListData@@@Z 0000000140077b40 f i qcustomplot.obj
 0001:00076b40       ?dealloc@?$QList@W4MarginSide@QCP@@@@AEAAXPEAUData@QListData@@@Z 0000000140077b40 f i qcustomplot.obj
 0001:00076b40       ?dealloc@?$QList@W4AxisType@QCPAxis@@@@AEAAXPEAUData@QListData@@@Z 0000000140077b40 f i qcustomplot.obj
 0001:00076ba0       ?node_copy@?$QList@W4MarginSide@QCP@@@@AEAAXPEAUNode@1@00@Z 0000000140077ba0 f i qcustomplot.obj
 0001:00076ba0       ?node_copy@?$QList@W4InsetPlacement@QCPLayoutInset@@@@AEAAXPEAUNode@1@00@Z 0000000140077ba0 f i qcustomplot.obj
 0001:00076ba0       ?node_copy@?$QList@W4AxisType@QCPAxis@@@@AEAAXPEAUNode@1@00@Z 0000000140077ba0 f i qcustomplot.obj
 0001:00076c00       ?detach_helper_grow@?$QList@V?$QList@PEAVQCPLayoutElement@@@@@@AEAAPEAUNode@1@HH@Z 0000000140077c00 f i qcustomplot.obj
 0001:00076c00       ?detach_helper_grow@?$QList@V?$QList@PEAVTournamentPair@@@@@@AEAAPEAUNode@1@HH@Z 0000000140077c00 f i cutechess:knockouttournament.obj
 0001:00076ce0       ?detach_helper@?$QList@V?$QList@PEAVTournamentPair@@@@@@AEAAXH@Z 0000000140077ce0 f i cutechess:knockouttournament.obj
 0001:00076ce0       ?detach_helper@?$QList@V?$QList@PEAVQCPLayoutElement@@@@@@AEAAXH@Z 0000000140077ce0 f i qcustomplot.obj
 0001:00076d70       ?dealloc@?$QList@V?$QList@PEAVTournamentPair@@@@@@AEAAXPEAUData@QListData@@@Z 0000000140077d70 f i cutechess:knockouttournament.obj
 0001:00076d70       ?dealloc@?$QList@V?$QList@PEAVQCPLayoutElement@@@@@@AEAAXPEAUData@QListData@@@Z 0000000140077d70 f i qcustomplot.obj
 0001:00076df0       ?node_destruct@?$QList@V?$QList@PEAVTournamentPair@@@@@@AEAAXPEAUNode@1@@Z 0000000140077df0 f i cutechess:knockouttournament.obj
 0001:00076df0       ?node_destruct@?$QList@V?$QList@PEAVQCPLayoutElement@@@@@@AEAAXPEAUNode@1@@Z 0000000140077df0 f i qcustomplot.obj
 0001:00076e20       ?duplicateNode@?$QHash@W4MarginSide@QCP@@PEAVQCPMarginGroup@@@@CAXPEAUNode@QHashData@@PEAX@Z 0000000140077e20 f i qcustomplot.obj
 0001:00076e40       ?detach_helper_grow@?$QList@V?$QSharedPointer@VQCPAbstractPaintBuffer@@@@@@AEAAPEAUNode@1@HH@Z 0000000140077e40 f i qcustomplot.obj
 0001:00076f30       ?detach_helper@?$QList@V?$QSharedPointer@VQCPAbstractPaintBuffer@@@@@@AEAAXH@Z 0000000140077f30 f i qcustomplot.obj
 0001:00076fe0       ?copy@?$QMapNode@NVQColor@@@@QEBAPEAU1@PEAU?$QMapData@NVQColor@@@@@Z 0000000140077fe0 f i qcustomplot.obj
 0001:000770a0       ?detach_helper_grow@?$QList@V?$QPointer@VQCPAxis@@@@@@AEAAPEAUNode@1@HH@Z 00000001400780a0 f i qcustomplot.obj
 0001:000770a0       ?detach_helper_grow@?$QList@V?$QPointer@VGameThread@@@@@@AEAAPEAUNode@1@HH@Z 00000001400780a0 f i cutechess:gamemanager.obj
 0001:00077190       ?preallocateGrow@?$QCPDataContainer@VQCPGraphData@@@@IEAAXH@Z 0000000140078190 f i qcustomplot.obj
 0001:000772b0       ?realloc@?$QVector@UFilePosition@OpeningSuite@@@@AEAAXHV?$QFlags@W4AllocationOption@QArrayData@@@@@Z 00000001400782b0 f i cutechess:openingsuite.obj
 0001:000772b0       ?realloc@?$QVector@VQCPGraphData@@@@AEAAXHV?$QFlags@W4AllocationOption@QArrayData@@@@@Z 00000001400782b0 f i qcustomplot.obj
 0001:00077520       ?copy@?$QMapNode@HU?$QPair@PEAVQCPAbstractPlottable@@VQCPDataSelection@@@@@@QEBAPEAU1@PEAU?$QMapData@HU?$QPair@PEAVQCPAbstractPlottable@@VQCPDataSelection@@@@@@@Z 0000000140078520 f i qcustomplot.obj
 0001:000775e0       ??$lower_bound@PEAVQCPGraphData@@V1@P6A_NAEBV1@0@Z@std@@YAPEAVQCPGraphData@@PEAV1@QEAV1@AEBV1@P6A_N22@Z@Z 00000001400785e0 f i qcustomplot.obj
 0001:00077630       ??$_Sort_unchecked@Viterator@?$QList@VQCPDataRange@@@@P6A_NAEBVQCPDataRange@@0@Z@std@@YAXViterator@?$QList@VQCPDataRange@@@@0_JP6A_NAEBVQCPDataRange@@2@Z@Z 0000000140078630 f i qcustomplot.obj
 0001:00077970       ?qt_metatype_id@?$QMetaTypeId2@W4SelectablePart@QCPAxis@@@@SAHXZ 0000000140078970 f i qcustomplot.obj
 0001:00077a80       ?qt_metatype_id@?$QMetaTypeId2@W4SelectablePart@QCPLegend@@@@SAHXZ 0000000140078a80 f i qcustomplot.obj
 0001:00077b90       ?qt_metatype_id@?$QMetaTypeId2@VQCPDataSelection@@@@SAHXZ 0000000140078b90 f i qcustomplot.obj
 0001:00077ca0       ??_G?$QList@PEAVQCPLayoutElement@@@@QEAAPEAXI@Z 0000000140078ca0 f i qcustomplot.obj
 0001:00077ca0       ??_G?$QList@PEAVTournamentPair@@@@QEAAPEAXI@Z 0000000140078ca0 f i cutechess:knockouttournament.obj
 0001:00077ce0       ??_G?$QSharedPointer@VQCPAbstractPaintBuffer@@@@QEAAPEAXI@Z 0000000140078ce0 f i qcustomplot.obj
 0001:00077d50       ?Construct@?$QMetaTypeFunctionHelper@W4SelectablePart@QCPLegend@@$00@QtMetaTypePrivate@@SAPEAXPEAXPEBX@Z 0000000140078d50 f i qcustomplot.obj
 0001:00077d50       ?Construct@?$QMetaTypeFunctionHelper@W4AxisType@QCPAxis@@$00@QtMetaTypePrivate@@SAPEAXPEAXPEBX@Z 0000000140078d50 f i moc_qcustomplot.obj
 0001:00077d50       ?Construct@?$QMetaTypeFunctionHelper@W4SelectionType@QCP@@$00@QtMetaTypePrivate@@SAPEAXPEAXPEBX@Z 0000000140078d50 f i moc_qcustomplot.obj
 0001:00077d50       ?Construct@?$QMetaTypeFunctionHelper@W4ScaleType@QCPAxis@@$00@QtMetaTypePrivate@@SAPEAXPEAXPEBX@Z 0000000140078d50 f i moc_qcustomplot.obj
 0001:00077d50       ?Construct@?$QMetaTypeFunctionHelper@W4SelectablePart@QCPAxis@@$00@QtMetaTypePrivate@@SAPEAXPEAXPEBX@Z 0000000140078d50 f i qcustomplot.obj
 0001:00077d50       ?Construct@?$QMetaTypeFunctionHelper@W4RefreshPriority@QCustomPlot@@$00@QtMetaTypePrivate@@SAPEAXPEAXPEBX@Z 0000000140078d50 f i moc_qcustomplot.obj
 0001:00077d60       ?Construct@?$QMetaTypeFunctionHelper@VQCPDataSelection@@$00@QtMetaTypePrivate@@SAPEAXPEAXPEBX@Z 0000000140078d60 f i qcustomplot.obj
 0001:00077d90       ?Destruct@?$QMetaTypeFunctionHelper@VQCPDataSelection@@$00@QtMetaTypePrivate@@SAXPEAX@Z 0000000140078d90 f i qcustomplot.obj
 0001:00077d90       ?Destruct@?$QMetaTypeFunctionHelper@V?$QList@N@@$00@QtMetaTypePrivate@@SAXPEAX@Z 0000000140078d90 f i moc_qcustomplot.obj
 0001:00077d90       ?Destruct@?$QMetaTypeFunctionHelper@V?$QList@PEAVQCPLayerable@@@@$00@QtMetaTypePrivate@@SAXPEAX@Z 0000000140078d90 f i moc_qcustomplot.obj
 0001:00077dc0       ?metaType@?$QVariantValueHelper@VQCPDataSelection@@@QtPrivate@@SA?AVQCPDataSelection@@AEBVQVariant@@@Z 0000000140078dc0 f i qcustomplot.obj
 0001:00077ea0       ?node_destruct@?$QList@VQVariant@@@@AEAAXPEAUNode@1@0@Z 0000000140078ea0 f i qcustomplot.obj
 0001:00077f00       ?detach_helper@?$QList@UGameEntry@GameManager@@@@AEAAXH@Z 0000000140078f00 f i cutechess:gamemanager.obj
 0001:00077f00       ?detach_helper@?$QList@VQRectF@@@@AEAAXH@Z 0000000140078f00 f i qcustomplot.obj
 0001:00077f90       ?node_destruct@?$QList@VQRectF@@@@AEAAXPEAUNode@1@0@Z 0000000140078f90 f i qcustomplot.obj
 0001:00077f90       ?node_destruct@?$QList@UGameEntry@GameManager@@@@AEAAXPEAUNode@1@0@Z 0000000140078f90 f i cutechess:gamemanager.obj
 0001:00077fe0       ?node_copy@?$QList@UGameEntry@GameManager@@@@AEAAXPEAUNode@1@00@Z 0000000140078fe0 f i cutechess:gamemanager.obj
 0001:00077fe0       ?node_copy@?$QList@VQRectF@@@@AEAAXPEAUNode@1@00@Z 0000000140078fe0 f i qcustomplot.obj
 0001:00078050       ?node_destruct@?$QList@W4AxisType@QCPAxis@@@@AEAAXPEAUNode@1@0@Z 0000000140079050 f i qcustomplot.obj
 0001:00078050       ?node_destruct@?$QList@W4InsetPlacement@QCPLayoutInset@@@@AEAAXPEAUNode@1@0@Z 0000000140079050 f i qcustomplot.obj
 0001:00078050       ?node_destruct@?$QList@W4MarginSide@QCP@@@@AEAAXPEAUNode@1@0@Z 0000000140079050 f i qcustomplot.obj
 0001:000780a0       ?node_destruct@?$QList@V?$QList@PEAVQCPLayoutElement@@@@@@AEAAXPEAUNode@1@0@Z 00000001400790a0 f i qcustomplot.obj
 0001:000780a0       ?node_destruct@?$QList@V?$QList@PEAVTournamentPair@@@@@@AEAAXPEAUNode@1@0@Z 00000001400790a0 f i cutechess:knockouttournament.obj
 0001:00078100       ?node_copy@?$QList@V?$QList@PEAVTournamentPair@@@@@@AEAAXPEAUNode@1@00@Z 0000000140079100 f i cutechess:knockouttournament.obj
 0001:00078100       ?node_copy@?$QList@V?$QList@PEAVQCPLayoutElement@@@@@@AEAAXPEAUNode@1@00@Z 0000000140079100 f i qcustomplot.obj
 0001:00078160       ?detach_helper@?$QList@W4InsetPlacement@QCPLayoutInset@@@@AEAAXH@Z 0000000140079160 f i qcustomplot.obj
 0001:000781f0       ?duplicateNode@?$QHash@VQString@@UNode@?$QCache@VQString@@UCachedLabel@QCPAxisPainterPrivate@@@@@@CAXPEAUNode@QHashData@@PEAX@Z 00000001400791f0 f i qcustomplot.obj
 0001:00078240       ?node_destruct@?$QList@V?$QSharedPointer@VQCPAbstractPaintBuffer@@@@@@AEAAXPEAUNode@1@0@Z 0000000140079240 f i qcustomplot.obj
 0001:000782d0       ?node_copy@?$QList@V?$QSharedPointer@VQCPAbstractPaintBuffer@@@@@@AEAAXPEAUNode@1@00@Z 00000001400792d0 f i qcustomplot.obj
 0001:00078350       ??$_Partition_by_median_guess_unchecked@Viterator@?$QList@VQCPDataRange@@@@P6A_NAEBVQCPDataRange@@0@Z@std@@YA?AU?$pair@Viterator@?$QList@VQCPDataRange@@@@V12@@0@Viterator@?$QList@VQCPDataRange@@@@0P6A_NAEBVQCPDataRange@@1@Z@Z 0000000140079350 f i qcustomplot.obj
 0001:00078650       ?deleter@?$ExternalRefCountWithCustomDeleter@V?$QCPDataContainer@VQCPGraphData@@@@UNormalDeleter@QtSharedPointer@@@QtSharedPointer@@SAXPEAUExternalRefCountData@2@@Z 0000000140079650 f i qcustomplot.obj
 0001:000786d0       ??$_Pop_heap_hole_by_index@Viterator@?$QList@VQCPDataRange@@@@VQCPDataRange@@P6A_NAEBV3@0@Z@std@@YAXViterator@?$QList@VQCPDataRange@@@@_J1$$QEAVQCPDataRange@@P6A_NAEBV3@3@Z@Z 00000001400796d0 f i qcustomplot.obj
 0001:000787d0       ??$_Med3_unchecked@Viterator@?$QList@VQCPDataRange@@@@P6A_NAEBVQCPDataRange@@0@Z@std@@YAXViterator@?$QList@VQCPDataRange@@@@00P6A_NAEBVQCPDataRange@@1@Z@Z 00000001400797d0 f i qcustomplot.obj
 0001:00078864       ??_EQCustomPlot@@WBA@EAAPEAXI@Z 0000000140079864 f i qcustomplot.obj
 0001:00078870       ??_E?$QCPAbstractPlottable1D@VQCPGraphData@@@@WJI@EAAPEAXI@Z 0000000140079870 f i qcustomplot.obj
 0001:0007887c       ??_EQCPGraph@@WJI@EAAPEAXI@Z 000000014007987c f i qcustomplot.obj
 0001:00078890       ??1Mutex@Chess@@QEAA@XZ    0000000140079890 f i random.obj
 0001:000788a0       ??R?$_Rng_from_urng@IV?$mersenne_twister_engine@I$0CA@$0CHA@$0BIN@$0BP@$0JJAILANP@$0L@$0PPPPPPPP@$06$0JNCMFGIA@$0P@$0OPMGAAAA@$0BC@$0GMAHIJGF@@std@@@std@@QEAAII@Z 00000001400798a0 f i random.obj
 0001:00078af0       ?setupUi@Ui_SettingsDialog@@QEAAXPEAVQDialog@@@Z 0000000140079af0 f i settingsdlg.obj
 0001:0007a2a0       ?retranslateUi@Ui_SettingsDialog@@QEAAXPEAVQDialog@@@Z 000000014007b2a0 f i settingsdlg.obj
 0001:0007a920       ??0SettingsDialog@@QEAA@PEAVQWidget@@@Z 000000014007b920 f   settingsdlg.obj
 0001:0007b240       ??_ESettingsDialog@@UEAAPEAXI@Z 000000014007c240 f i * CIL library *:* CIL module *
 0001:0007b240       ??_GSettingsDialog@@UEAAPEAXI@Z 000000014007c240 f i settingsdlg.obj
 0001:0007b2a0       ?closeEvent@SettingsDialog@@MEAAXPEAVQCloseEvent@@@Z 000000014007c2a0 f   settingsdlg.obj
 0001:0007b380       ?browseTbPath@SettingsDialog@@AEAAXXZ 000000014007c380 f   settingsdlg.obj
 0001:0007b550       ?browseDefaultPgnOutFile@SettingsDialog@@AEAAXXZ 000000014007c550 f   settingsdlg.obj
 0001:0007b720       ?browseTournamentDefaultPgnOutFile@SettingsDialog@@AEAAXXZ 000000014007c720 f   settingsdlg.obj
 0001:0007b8f0       ?browseTournamentDefaultEpdOutFile@SettingsDialog@@AEAAXXZ 000000014007c8f0 f   settingsdlg.obj
 0001:0007bac0       ?readSettings@SettingsDialog@@AEAAXXZ 000000014007cac0 f   settingsdlg.obj
 0001:0007c100       ?impl@?$QSlotObject@P8SettingsDialog@@EAAXXZU?$List@$$V@QtPrivate@@X@QtPrivate@@CAXHPEAVQSlotObjectBase@2@PEAVQObject@@PEAPEAXPEA_N@Z 000000014007d100 f i settingsdlg.obj
 0001:0007c930       ??_ESettingsDialog@@WBA@EAAPEAXI@Z 000000014007d930 f i settingsdlg.obj
 0001:0007c940       ??_EStringValidator@@UEAAPEAXI@Z 000000014007d940 f i * CIL library *:* CIL module *
 0001:0007c940       ??_GStringValidator@@UEAAPEAXI@Z 000000014007d940 f i stringvalidator.obj
 0001:0007c980       ?validate@StringValidator@@UEBA?AW4State@QValidator@@AEAVQString@@AEAH@Z 000000014007d980 f   stringvalidator.obj
 0001:0007cbb0       ??0ThreadedTask@@QEAA@AEBVQString@@0HHPEAVQWidget@@@Z 000000014007dbb0 f   threadedtask.obj
 0001:0007cec0       ??_GThreadedTask@@UEAAPEAXI@Z 000000014007dec0 f i threadedtask.obj
 0001:0007cec0       ??_EThreadedTask@@UEAAPEAXI@Z 000000014007dec0 f i * CIL library *:* CIL module *
 0001:0007cf10       ??_GQProgressDialog@@UEAAPEAXI@Z 000000014007df10 f i threadedtask.obj
 0001:0007cf10       ??_EQProgressDialog@@UEAAPEAXI@Z 000000014007df10 f i * CIL library *:* CIL module *
 0001:0007cf50       ??1ThreadedTask@@UEAA@XZ   000000014007df50 f   threadedtask.obj
 0001:0007cf80       ?updateProgress@ThreadedTask@@AEAAXH@Z 000000014007df80 f   threadedtask.obj
 0001:0007d124       ??_EQProgressDialog@@WBA@EAAPEAXI@Z 000000014007e124 f i threadedtask.obj
 0001:0007d130       ??_GTileLayout@@UEAAPEAXI@Z 000000014007e130 f i tilelayout.obj
 0001:0007d130       ??_ETileLayout@@UEAAPEAXI@Z 000000014007e130 f i * CIL library *:* CIL module *
 0001:0007d1f0       ?addItem@TileLayout@@UEAAXPEAVQLayoutItem@@@Z 000000014007e1f0 f   tilelayout.obj
 0001:0007d210       ?expandingDirections@TileLayout@@UEBA?AV?$QFlags@W4Orientation@Qt@@@@XZ 000000014007e210 f   tilelayout.obj
 0001:0007d220       ?count@TileLayout@@UEBAHXZ 000000014007e220 f   tilelayout.obj
 0001:0007d230       ?itemAt@TileLayout@@UEBAPEAVQLayoutItem@@H@Z 000000014007e230 f   tilelayout.obj
 0001:0007d260       ?minimumSize@TileLayout@@UEBA?AVQSize@@XZ 000000014007e260 f   tilelayout.obj
 0001:0007d310       ?setGeometry@TileLayout@@UEAAXAEBVQRect@@@Z 000000014007e310 f   tilelayout.obj
 0001:0007d340       ?sizeHint@TileLayout@@UEBA?AVQSize@@XZ 000000014007e340 f   tilelayout.obj
 0001:0007d3d0       ?takeAt@TileLayout@@UEAAPEAVQLayoutItem@@H@Z 000000014007e3d0 f   tilelayout.obj
 0001:0007d450       ?doLayout@TileLayout@@AEBAXAEBVQRect@@@Z 000000014007e450 f   tilelayout.obj
 0001:0007d860       ?smartSpacing@TileLayout@@AEBAHW4PixelMetric@QStyle@@@Z 000000014007e860 f   tilelayout.obj
 0001:0007d8d0       ??_ETileLayout@@WBA@EAAPEAXI@Z 000000014007e8d0 f i tilelayout.obj
 0001:0007d8e0       ?setupUi@Ui_TimeControlDialog@@QEAAXPEAVQDialog@@@Z 000000014007e8e0 f i timecontroldlg.obj
 0001:0007e630       ?retranslateUi@Ui_TimeControlDialog@@QEAAXPEAVQDialog@@@Z 000000014007f630 f i timecontroldlg.obj
 0001:0007ed10       ??_EQDoubleSpinBox@@UEAAPEAXI@Z 000000014007fd10 f i * CIL library *:* CIL module *
 0001:0007ed10       ??_GQDoubleSpinBox@@UEAAPEAXI@Z 000000014007fd10 f i timecontroldlg.obj
 0001:0007ed50       ??0TimeControlDialog@@QEAA@AEBVTimeControl@@PEAVQWidget@@@Z 000000014007fd50 f   timecontroldlg.obj
 0001:0007efd0       ??_ETimeControlDialog@@UEAAPEAXI@Z 000000014007ffd0 f i * CIL library *:* CIL module *
 0001:0007efd0       ??_GTimeControlDialog@@UEAAPEAXI@Z 000000014007ffd0 f i timecontroldlg.obj
 0001:0007f030       ??1TimeControlDialog@@UEAA@XZ 0000000140080030 f   timecontroldlg.obj
 0001:0007f070       ?onTournamentSelected@TimeControlDialog@@AEAAXXZ 0000000140080070 f   timecontroldlg.obj
 0001:0007f0e0       ?onTimePerMoveSelected@TimeControlDialog@@AEAAXXZ 00000001400800e0 f   timecontroldlg.obj
 0001:0007f150       ?onInfiniteSelected@TimeControlDialog@@AEAAXXZ 0000000140080150 f   timecontroldlg.obj
 0001:0007f1c0       ?timeToMs@TimeControlDialog@@AEBAHXZ 00000001400801c0 f   timecontroldlg.obj
 0001:0007f250       ?setTime@TimeControlDialog@@AEAAXH@Z 0000000140080250 f   timecontroldlg.obj
 0001:0007f360       ?timeControl@TimeControlDialog@@QEBA?AVTimeControl@@XZ 0000000140080360 f   timecontroldlg.obj
 0001:0007f50c       ??_EQDoubleSpinBox@@WBA@EAAPEAXI@Z 000000014008050c f i timecontroldlg.obj
 0001:0007f518       ??_ETimeControlDialog@@WBA@EAAPEAXI@Z 0000000140080518 f i timecontroldlg.obj
 0001:0007f530       ??0TournamentResultsDialog@@QEAA@PEAVQWidget@@@Z 0000000140080530 f   tournamentresultsdlg.obj
 0001:0007f710       ??_GTournamentResultsDialog@@UEAAPEAXI@Z 0000000140080710 f i tournamentresultsdlg.obj
 0001:0007f710       ??_ETournamentResultsDialog@@UEAAPEAXI@Z 0000000140080710 f i * CIL library *:* CIL module *
 0001:0007f760       ??_GQBoxLayout@@UEAAPEAXI@Z 0000000140080760 f i tournamentresultsdlg.obj
 0001:0007f760       ??_EQBoxLayout@@UEAAPEAXI@Z 0000000140080760 f i * CIL library *:* CIL module *
 0001:0007f7a0       ?update@TournamentResultsDialog@@QEAAXXZ 00000001400807a0 f   tournamentresultsdlg.obj
 0001:0007fc7c       ??_ETournamentResultsDialog@@WBA@EAAPEAXI@Z 0000000140080c7c f i tournamentresultsdlg.obj
 0001:0007fc88       ??_EQBoxLayout@@WBA@EAAPEAXI@Z 0000000140080c88 f i tournamentresultsdlg.obj
 0001:0007fca0       ?setupUi@Ui_TournamentSettingsWidget@@QEAAXPEAVQWidget@@@Z 0000000140080ca0 f i tournamentsettingswidget.obj
 0001:00080890       ?retranslateUi@Ui_TournamentSettingsWidget@@QEAAXPEAVQWidget@@@Z 0000000140081890 f i tournamentsettingswidget.obj
 0001:00080dc0       ??0TournamentSettingsWidget@@QEAA@PEAVQWidget@@@Z 0000000140081dc0 f   tournamentsettingswidget.obj
 0001:00080ed0       ??_GTournamentSettingsWidget@@UEAAPEAXI@Z 0000000140081ed0 f i tournamentsettingswidget.obj
 0001:00080ed0       ??_ETournamentSettingsWidget@@UEAAPEAXI@Z 0000000140081ed0 f i * CIL library *:* CIL module *
 0001:00080f30       ?readSettings@TournamentSettingsWidget@@AEAAXXZ 0000000140081f30 f   tournamentsettingswidget.obj
 0001:000813c0       ?enableSettingsUpdates@TournamentSettingsWidget@@QEAAXXZ 00000001400823c0 f   tournamentsettingswidget.obj
 0001:000820f8       ??_ETournamentSettingsWidget@@WBA@EAAPEAXI@Z 00000001400830f8 f i tournamentsettingswidget.obj
 0001:00082110       ?qt_static_metacall@AutoVerticalScroller@@CAXPEAVQObject@@W4Call@QMetaObject@@HPEAPEAX@Z 0000000140083110 f   moc_autoverticalscroller.obj
 0001:00082180       ?qt_static_metacall@BoardScene@@CAXPEAVQObject@@W4Call@QMetaObject@@HPEAPEAX@Z 0000000140083180 f   moc_boardscene.obj
 0001:00082390       ?metaObject@BoardScene@@UEBAPEBUQMetaObject@@XZ 0000000140083390 f   moc_boardscene.obj
 0001:000823b0       ?qt_metacast@BoardScene@@UEAAPEAXPEBD@Z 00000001400833b0 f   moc_boardscene.obj
 0001:00082400       ?qt_metacall@BoardScene@@UEAAHW4Call@QMetaObject@@HPEAPEAX@Z 0000000140083400 f   moc_boardscene.obj
 0001:00082470       ?humanMove@BoardScene@@QEAAXAEBVGenericMove@Chess@@AEBVSide@3@@Z 0000000140083470 f   moc_boardscene.obj
 0001:000824c0       ??$qRegisterMetaType@VGenericMove@Chess@@@@YAHXZ 00000001400834c0 f i moc_boardscene.obj
 0001:00082520       ??$qRegisterMetaType@VSide@Chess@@@@YAHXZ 0000000140083520 f i moc_boardscene.obj
 0001:00082580       ??$qRegisterMetaType@VResult@Chess@@@@YAHXZ 0000000140083580 f i moc_boardscene.obj
 0001:000825e0       ?qt_static_metacall@BoardView@@CAXPEAVQObject@@W4Call@QMetaObject@@HPEAPEAX@Z 00000001400835e0 f   moc_boardview.obj
 0001:00082660       ?metaObject@BoardView@@UEBAPEBUQMetaObject@@XZ 0000000140083660 f   moc_boardview.obj
 0001:00082680       ?qt_metacast@BoardView@@UEAAPEAXPEBD@Z 0000000140083680 f   moc_boardview.obj
 0001:000826d0       ?qt_metacall@BoardView@@UEAAHW4Call@QMetaObject@@HPEAPEAX@Z 00000001400836d0 f   moc_boardview.obj
 0001:00082740       ?qt_static_metacall@ChessClock@@CAXPEAVQObject@@W4Call@QMetaObject@@HPEAPEAX@Z 0000000140083740 f   moc_chessclock.obj
 0001:000827a0       ?metaObject@ChessClock@@UEBAPEBUQMetaObject@@XZ 00000001400837a0 f   moc_chessclock.obj
 0001:000827c0       ?qt_metacast@ChessClock@@UEAAPEAXPEBD@Z 00000001400837c0 f   moc_chessclock.obj
 0001:00082810       ?qt_metacall@ChessClock@@UEAAHW4Call@QMetaObject@@HPEAPEAX@Z 0000000140083810 f   moc_chessclock.obj
 0001:00082880       ?qt_static_metacall@CuteChessApplication@@CAXPEAVQObject@@W4Call@QMetaObject@@HPEAPEAX@Z 0000000140083880 f   moc_cutechessapp.obj
 0001:00082c20       ?metaObject@CuteChessApplication@@UEBAPEBUQMetaObject@@XZ 0000000140083c20 f   moc_cutechessapp.obj
 0001:00082c40       ?qt_metacast@CuteChessApplication@@UEAAPEAXPEBD@Z 0000000140083c40 f   moc_cutechessapp.obj
 0001:00082c90       ?qt_metacall@CuteChessApplication@@UEAAHW4Call@QMetaObject@@HPEAPEAX@Z 0000000140083c90 f   moc_cutechessapp.obj
 0001:00082d00       ?metaObject@EngineConfigurationProxyModel@@UEBAPEBUQMetaObject@@XZ 0000000140083d00 f   moc_engineconfigproxymodel.obj
 0001:00082d20       ?qt_metacast@EngineConfigurationProxyModel@@UEAAPEAXPEBD@Z 0000000140083d20 f   moc_engineconfigproxymodel.obj
 0001:00082d70       ?qt_metacall@EngineConfigurationProxyModel@@UEAAHW4Call@QMetaObject@@HPEAPEAX@Z 0000000140083d70 f   moc_engineconfigproxymodel.obj
 0001:00082d80       ?qt_static_metacall@EngineConfigurationDialog@@CAXPEAVQObject@@W4Call@QMetaObject@@HPEAPEAX@Z 0000000140083d80 f   moc_engineconfigurationdlg.obj
 0001:000834a0       ?metaObject@EngineConfigurationDialog@@UEBAPEBUQMetaObject@@XZ 00000001400844a0 f   moc_engineconfigurationdlg.obj
 0001:000834c0       ?qt_metacast@EngineConfigurationDialog@@UEAAPEAXPEBD@Z 00000001400844c0 f   moc_engineconfigurationdlg.obj
 0001:00083510       ?qt_metacall@EngineConfigurationDialog@@UEAAHW4Call@QMetaObject@@HPEAPEAX@Z 0000000140084510 f   moc_engineconfigurationdlg.obj
 0001:00083580       ?detectionFinished@EngineConfigurationDialog@@QEAAXXZ 0000000140084580 f   moc_engineconfigurationdlg.obj
 0001:000835a0       ?qt_static_metacall@EngineConfigurationModel@@CAXPEAVQObject@@W4Call@QMetaObject@@HPEAPEAX@Z 00000001400845a0 f   moc_engineconfigurationmodel.obj
 0001:00083740       ?metaObject@EngineConfigurationModel@@UEBAPEBUQMetaObject@@XZ 0000000140084740 f   moc_engineconfigurationmodel.obj
 0001:00083760       ?qt_metacast@EngineConfigurationModel@@UEAAPEAXPEBD@Z 0000000140084760 f   moc_engineconfigurationmodel.obj
 0001:000837b0       ?qt_metacall@EngineConfigurationModel@@UEAAHW4Call@QMetaObject@@HPEAPEAX@Z 00000001400847b0 f   moc_engineconfigurationmodel.obj
 0001:00083820       ?qt_static_metacall@EngineManagementWidget@@CAXPEAVQObject@@W4Call@QMetaObject@@HPEAPEAX@Z 0000000140084820 f   moc_enginemanagementwidget.obj
 0001:00083bf0       ?metaObject@EngineManagementWidget@@UEBAPEBUQMetaObject@@XZ 0000000140084bf0 f   moc_enginemanagementwidget.obj
 0001:00083c10       ?qt_metacast@EngineManagementWidget@@UEAAPEAXPEBD@Z 0000000140084c10 f   moc_enginemanagementwidget.obj
 0001:00083c60       ?qt_metacall@EngineManagementWidget@@UEAAHW4Call@QMetaObject@@HPEAPEAX@Z 0000000140084c60 f   moc_enginemanagementwidget.obj
 0001:00083cd0       ?qt_static_metacall@EngineOptionDelegate@@CAXPEAVQObject@@W4Call@QMetaObject@@HPEAPEAX@Z 0000000140084cd0 f   moc_engineoptiondelegate.obj
 0001:00083cf0       ?metaObject@EngineOptionDelegate@@UEBAPEBUQMetaObject@@XZ 0000000140084cf0 f   moc_engineoptiondelegate.obj
 0001:00083d10       ?qt_metacast@EngineOptionDelegate@@UEAAPEAXPEBD@Z 0000000140084d10 f   moc_engineoptiondelegate.obj
 0001:00083d60       ?qt_metacall@EngineOptionDelegate@@UEAAHW4Call@QMetaObject@@HPEAPEAX@Z 0000000140084d60 f   moc_engineoptiondelegate.obj
 0001:00083dd0       ?metaObject@EngineOptionModel@@UEBAPEBUQMetaObject@@XZ 0000000140084dd0 f   moc_engineoptionmodel.obj
 0001:00083df0       ?qt_metacast@EngineOptionModel@@UEAAPEAXPEBD@Z 0000000140084df0 f   moc_engineoptionmodel.obj
 0001:00083e40       ?qt_metacall@EngineOptionModel@@UEAAHW4Call@QMetaObject@@HPEAPEAX@Z 0000000140084e40 f   moc_engineoptionmodel.obj
 0001:00083e50       ?metaObject@EngineSelectionDialog@@UEBAPEBUQMetaObject@@XZ 0000000140084e50 f   moc_engineselectiondlg.obj
 0001:00083e70       ?qt_metacast@EngineSelectionDialog@@UEAAPEAXPEBD@Z 0000000140084e70 f   moc_engineselectiondlg.obj
 0001:00083ec0       ?qt_metacall@EngineSelectionDialog@@UEAAHW4Call@QMetaObject@@HPEAPEAX@Z 0000000140084ec0 f   moc_engineselectiondlg.obj
 0001:00083ed0       ?qt_static_metacall@EvalHistory@@CAXPEAVQObject@@W4Call@QMetaObject@@HPEAPEAX@Z 0000000140084ed0 f   moc_evalhistory.obj
 0001:00083f10       ?metaObject@EvalHistory@@UEBAPEBUQMetaObject@@XZ 0000000140084f10 f   moc_evalhistory.obj
 0001:00083f30       ?qt_metacast@EvalHistory@@UEAAPEAXPEBD@Z 0000000140084f30 f   moc_evalhistory.obj
 0001:00083f80       ?qt_metacall@EvalHistory@@UEAAHW4Call@QMetaObject@@HPEAPEAX@Z 0000000140084f80 f   moc_evalhistory.obj
 0001:00084000       ?qt_static_metacall@EvalWidget@@CAXPEAVQObject@@W4Call@QMetaObject@@HPEAPEAX@Z 0000000140085000 f   moc_evalwidget.obj
 0001:00084070       ?metaObject@EvalWidget@@UEBAPEBUQMetaObject@@XZ 0000000140085070 f   moc_evalwidget.obj
 0001:00084090       ?qt_metacast@EvalWidget@@UEAAPEAXPEBD@Z 0000000140085090 f   moc_evalwidget.obj
 0001:000840e0       ?qt_metacall@EvalWidget@@UEAAHW4Call@QMetaObject@@HPEAPEAX@Z 00000001400850e0 f   moc_evalwidget.obj
 0001:00084150       ??$qRegisterMetaType@VMoveEvaluation@@@@YAHXZ 0000000140085150 f i moc_evalwidget.obj
 0001:000841b0       ?qt_static_metacall@GameDatabaseDialog@@CAXPEAVQObject@@W4Call@QMetaObject@@HPEAPEAX@Z 00000001400851b0 f   moc_gamedatabasedlg.obj
 0001:000847e0       ?metaObject@GameDatabaseDialog@@UEBAPEBUQMetaObject@@XZ 00000001400857e0 f   moc_gamedatabasedlg.obj
 0001:00084800       ?qt_metacast@GameDatabaseDialog@@UEAAPEAXPEBD@Z 0000000140085800 f   moc_gamedatabasedlg.obj
 0001:00084850       ?qt_metacall@GameDatabaseDialog@@UEAAHW4Call@QMetaObject@@HPEAPEAX@Z 0000000140085850 f   moc_gamedatabasedlg.obj
 0001:000848c0       ?Construct@?$QMetaTypeFunctionHelper@VQItemSelection@@$00@QtMetaTypePrivate@@SAPEAXPEAXPEBX@Z 00000001400858c0 f i moc_gamedatabasedlg.obj
 0001:000848e0       ?Destruct@?$QMetaTypeFunctionHelper@VQItemSelection@@$00@QtMetaTypePrivate@@SAXPEAX@Z 00000001400858e0 f i moc_gamedatabasedlg.obj
 0001:000848f0       ?qt_metatype_id@?$QMetaTypeId2@VQItemSelection@@@@SAHXZ 00000001400858f0 f i moc_gamedatabasedlg.obj
 0001:00084a00       ?qt_static_metacall@GameDatabaseManager@@CAXPEAVQObject@@W4Call@QMetaObject@@HPEAPEAX@Z 0000000140085a00 f   moc_gamedatabasemanager.obj
 0001:00084b90       ?metaObject@GameDatabaseManager@@UEBAPEBUQMetaObject@@XZ 0000000140085b90 f   moc_gamedatabasemanager.obj
 0001:00084bb0       ?qt_metacast@GameDatabaseManager@@UEAAPEAXPEBD@Z 0000000140085bb0 f   moc_gamedatabasemanager.obj
 0001:00084c00       ?qt_metacall@GameDatabaseManager@@UEAAHW4Call@QMetaObject@@HPEAPEAX@Z 0000000140085c00 f   moc_gamedatabasemanager.obj
 0001:00084c70       ?databaseAdded@GameDatabaseManager@@QEAAXH@Z 0000000140085c70 f   moc_gamedatabasemanager.obj
 0001:00084cb0       ?databaseAboutToBeRemoved@GameDatabaseManager@@QEAAXH@Z 0000000140085cb0 f   moc_gamedatabasemanager.obj
 0001:00084cf0       ?databasesReset@GameDatabaseManager@@QEAAXXZ 0000000140085cf0 f   moc_gamedatabasemanager.obj
 0001:00084d10       ?qt_static_metacall@GameDatabaseSearchDialog@@CAXPEAVQObject@@W4Call@QMetaObject@@HPEAPEAX@Z 0000000140085d10 f   moc_gamedatabasesearchdlg.obj
 0001:00084d70       ?metaObject@GameDatabaseSearchDialog@@UEBAPEBUQMetaObject@@XZ 0000000140085d70 f   moc_gamedatabasesearchdlg.obj
 0001:00084d90       ?qt_metacast@GameDatabaseSearchDialog@@UEAAPEAXPEBD@Z 0000000140085d90 f   moc_gamedatabasesearchdlg.obj
 0001:00084de0       ?qt_metacall@GameDatabaseSearchDialog@@UEAAHW4Call@QMetaObject@@HPEAPEAX@Z 0000000140085de0 f   moc_gamedatabasesearchdlg.obj
 0001:00084e50       ?qt_static_metacall@GameSettingsWidget@@CAXPEAVQObject@@W4Call@QMetaObject@@HPEAPEAX@Z 0000000140085e50 f   moc_gamesettingswidget.obj
 0001:000850c0       ?metaObject@GameSettingsWidget@@UEBAPEBUQMetaObject@@XZ 00000001400860c0 f   moc_gamesettingswidget.obj
 0001:000850e0       ?qt_metacast@GameSettingsWidget@@UEAAPEAXPEBD@Z 00000001400860e0 f   moc_gamesettingswidget.obj
 0001:00085130       ?qt_metacall@GameSettingsWidget@@UEAAHW4Call@QMetaObject@@HPEAPEAX@Z 0000000140086130 f   moc_gamesettingswidget.obj
 0001:000851a0       ?variantChanged@GameSettingsWidget@@QEAAXAEBVQString@@@Z 00000001400861a0 f   moc_gamesettingswidget.obj
 0001:000851d0       ?timeControlChanged@GameSettingsWidget@@QEAAXXZ 00000001400861d0 f   moc_gamesettingswidget.obj
 0001:000851f0       ?statusChanged@GameSettingsWidget@@QEAAX_N@Z 00000001400861f0 f   moc_gamesettingswidget.obj
 0001:00085230       ?qt_static_metacall@GameTabBar@@CAXPEAVQObject@@W4Call@QMetaObject@@HPEAPEAX@Z 0000000140086230 f   moc_gametabbar.obj
 0001:00085300       ?metaObject@GameTabBar@@UEBAPEBUQMetaObject@@XZ 0000000140086300 f   moc_gametabbar.obj
 0001:00085320       ?qt_metacast@GameTabBar@@UEAAPEAXPEBD@Z 0000000140086320 f   moc_gametabbar.obj
 0001:00085370       ?qt_metacall@GameTabBar@@UEAAHW4Call@QMetaObject@@HPEAPEAX@Z 0000000140086370 f   moc_gametabbar.obj
 0001:000853e0       ?qt_static_metacall@GameViewer@@CAXPEAVQObject@@W4Call@QMetaObject@@HPEAPEAX@Z 00000001400863e0 f   moc_gameviewer.obj
 0001:000857c0       ?metaObject@GameViewer@@UEBAPEBUQMetaObject@@XZ 00000001400867c0 f   moc_gameviewer.obj
 0001:000857e0       ?qt_metacast@GameViewer@@UEAAPEAXPEBD@Z 00000001400867e0 f   moc_gameviewer.obj
 0001:00085830       ?qt_metacall@GameViewer@@UEAAHW4Call@QMetaObject@@HPEAPEAX@Z 0000000140086830 f   moc_gameviewer.obj
 0001:000858a0       ?moveSelected@GameViewer@@QEAAXH@Z 00000001400868a0 f   moc_gameviewer.obj
 0001:000858e0       ?qt_static_metacall@GameWall@@CAXPEAVQObject@@W4Call@QMetaObject@@HPEAPEAX@Z 00000001400868e0 f   moc_gamewall.obj
 0001:000859e0       ?metaObject@GameWall@@UEBAPEBUQMetaObject@@XZ 00000001400869e0 f   moc_gamewall.obj
 0001:00085a00       ?qt_metacast@GameWall@@UEAAPEAXPEBD@Z 0000000140086a00 f   moc_gamewall.obj
 0001:00085a50       ?qt_metacall@GameWall@@UEAAHW4Call@QMetaObject@@HPEAPEAX@Z 0000000140086a50 f   moc_gamewall.obj
 0001:00085ac0       ?qt_static_metacall@BoardEditorDlg@@CAXPEAVQObject@@W4Call@QMetaObject@@HPEAPEAX@Z 0000000140086ac0 f   moc_BoardEditor.obj
 0001:00085b30       ?metaObject@BoardEditorDlg@@UEBAPEBUQMetaObject@@XZ 0000000140086b30 f   moc_BoardEditor.obj
 0001:00085b50       ?qt_metacast@BoardEditorDlg@@UEAAPEAXPEBD@Z 0000000140086b50 f   moc_BoardEditor.obj
 0001:00085ba0       ?qt_metacall@BoardEditorDlg@@UEAAHW4Call@QMetaObject@@HPEAPEAX@Z 0000000140086ba0 f   moc_BoardEditor.obj
 0001:00085c10       ?qt_static_metacall@BasicBoardScene@@CAXPEAVQObject@@W4Call@QMetaObject@@HPEAPEAX@Z 0000000140086c10 f   moc_BasicBoardScene.obj
 0001:00085cd0       ?metaObject@BasicBoardScene@@UEBAPEBUQMetaObject@@XZ 0000000140086cd0 f   moc_BasicBoardScene.obj
 0001:00085cf0       ?qt_metacast@BasicBoardScene@@UEAAPEAXPEBD@Z 0000000140086cf0 f   moc_BasicBoardScene.obj
 0001:00085d40       ?qt_metacall@BasicBoardScene@@UEAAHW4Call@QMetaObject@@HPEAPEAX@Z 0000000140086d40 f   moc_BasicBoardScene.obj
 0001:00085db0       ?humanMove@BasicBoardScene@@QEAAXAEBVGenericMove@Chess@@AEBVSide@3@@Z 0000000140086db0 f   moc_BasicBoardScene.obj
 0001:00085e00       ?qt_static_metacall@GraphicsPiece@@CAXPEAVQObject@@W4Call@QMetaObject@@HPEAPEAX@Z 0000000140086e00 f   moc_graphicspiece.obj
 0001:00085e80       ?metaObject@GraphicsPiece@@UEBAPEBUQMetaObject@@XZ 0000000140086e80 f   moc_graphicspiece.obj
 0001:00085ea0       ?qt_metacast@GraphicsPiece@@UEAAPEAXPEBD@Z 0000000140086ea0 f   moc_graphicspiece.obj
 0001:00085ef0       ?qt_metacall@GraphicsPiece@@UEAAHW4Call@QMetaObject@@HPEAPEAX@Z 0000000140086ef0 f   moc_graphicspiece.obj
 0001:00085f60       ?qt_static_metacall@ImportProgressDialog@@CAXPEAVQObject@@W4Call@QMetaObject@@HPEAPEAX@Z 0000000140086f60 f   moc_importprogressdlg.obj
 0001:000860e0       ?metaObject@ImportProgressDialog@@UEBAPEBUQMetaObject@@XZ 00000001400870e0 f   moc_importprogressdlg.obj
 0001:00086100       ?qt_metacast@ImportProgressDialog@@UEAAPEAXPEBD@Z 0000000140087100 f   moc_importprogressdlg.obj
 0001:00086150       ?qt_metacall@ImportProgressDialog@@UEAAHW4Call@QMetaObject@@HPEAPEAX@Z 0000000140087150 f   moc_importprogressdlg.obj
 0001:000861c0       ?qt_static_metacall@MainWindow@@CAXPEAVQObject@@W4Call@QMetaObject@@HPEAPEAX@Z 00000001400871c0 f   moc_mainwindow.obj
 0001:00086b80       ?metaObject@MainWindow@@UEBAPEBUQMetaObject@@XZ 0000000140087b80 f   moc_mainwindow.obj
 0001:00086ba0       ?qt_metacast@MainWindow@@UEAAPEAXPEBD@Z 0000000140087ba0 f   moc_mainwindow.obj
 0001:00086bf0       ?qt_metacall@MainWindow@@UEAAHW4Call@QMetaObject@@HPEAPEAX@Z 0000000140087bf0 f   moc_mainwindow.obj
 0001:00086c60       ?qt_static_metacall@ModelTest@@CAXPEAVQObject@@W4Call@QMetaObject@@HPEAPEAX@Z 0000000140087c60 f   moc_modeltest.obj
 0001:000870b0       ?metaObject@ModelTest@@UEBAPEBUQMetaObject@@XZ 00000001400880b0 f   moc_modeltest.obj
 0001:000870d0       ?qt_metacast@ModelTest@@UEAAPEAXPEBD@Z 00000001400880d0 f   moc_modeltest.obj
 0001:00087120       ?qt_metacall@ModelTest@@UEAAHW4Call@QMetaObject@@HPEAPEAX@Z 0000000140088120 f   moc_modeltest.obj
 0001:00087190       ?qt_static_metacall@Capture@Chess@@CAXPEAVQObject@@W4Call@QMetaObject@@HPEAPEAX@Z 0000000140088190 f   moc_capture.obj
 0001:00087280       ?metaObject@Capture@Chess@@UEBAPEBUQMetaObject@@XZ 0000000140088280 f   moc_capture.obj
 0001:000872a0       ?qt_metacast@Capture@Chess@@UEAAPEAXPEBD@Z 00000001400882a0 f   moc_capture.obj
 0001:000872f0       ?qt_metacall@Capture@Chess@@UEAAHW4Call@QMetaObject@@HPEAPEAX@Z 00000001400882f0 f   moc_capture.obj
 0001:00087360       ?CapSendSignal@Capture@Chess@@QEAAXUstCaptureMsg@@@Z 0000000140088360 f   moc_capture.obj
 0001:000873b0       ?qt_static_metacall@MoveList@@CAXPEAVQObject@@W4Call@QMetaObject@@HPEAPEAX@Z 00000001400883b0 f   moc_movelist.obj
 0001:00087600       ?metaObject@MoveList@@UEBAPEBUQMetaObject@@XZ 0000000140088600 f   moc_movelist.obj
 0001:00087620       ?qt_metacast@MoveList@@UEAAPEAXPEBD@Z 0000000140088620 f   moc_movelist.obj
 0001:00087670       ?qt_metacall@MoveList@@UEAAHW4Call@QMetaObject@@HPEAPEAX@Z 0000000140088670 f   moc_movelist.obj
 0001:000876e0       ?moveClicked@MoveList@@QEAAXH_N@Z 00000001400886e0 f   moc_movelist.obj
 0001:00087740       ?commentClicked@MoveList@@QEAAXHAEBVQString@@@Z 0000000140088740 f   moc_movelist.obj
 0001:000877a0       ?qt_static_metacall@NewGameDialog@@CAXPEAVQObject@@W4Call@QMetaObject@@HPEAPEAX@Z 00000001400887a0 f   moc_newgamedlg.obj
 0001:00087920       ?metaObject@NewGameDialog@@UEBAPEBUQMetaObject@@XZ 0000000140088920 f   moc_newgamedlg.obj
 0001:00087940       ?qt_metacast@NewGameDialog@@UEAAPEAXPEBD@Z 0000000140088940 f   moc_newgamedlg.obj
 0001:00087990       ?qt_metacall@NewGameDialog@@UEAAHW4Call@QMetaObject@@HPEAPEAX@Z 0000000140088990 f   moc_newgamedlg.obj
 0001:00087a00       ?qt_static_metacall@NewTournamentDialog@@CAXPEAVQObject@@W4Call@QMetaObject@@HPEAPEAX@Z 0000000140088a00 f   moc_newtournamentdialog.obj
 0001:00087be0       ?metaObject@NewTournamentDialog@@UEBAPEBUQMetaObject@@XZ 0000000140088be0 f   moc_newtournamentdialog.obj
 0001:00087c00       ?qt_metacast@NewTournamentDialog@@UEAAPEAXPEBD@Z 0000000140088c00 f   moc_newtournamentdialog.obj
 0001:00087c50       ?qt_metacall@NewTournamentDialog@@UEAAHW4Call@QMetaObject@@HPEAPEAX@Z 0000000140088c50 f   moc_newtournamentdialog.obj
 0001:00087cc0       ?qt_static_metacall@PathLineEdit@@CAXPEAVQObject@@W4Call@QMetaObject@@HPEAPEAX@Z 0000000140088cc0 f   moc_pathlineedit.obj
 0001:00087ce0       ?metaObject@PathLineEdit@@UEBAPEBUQMetaObject@@XZ 0000000140088ce0 f   moc_pathlineedit.obj
 0001:00087d00       ?qt_metacast@PathLineEdit@@UEAAPEAXPEBD@Z 0000000140088d00 f   moc_pathlineedit.obj
 0001:00087d50       ?qt_metacall@PathLineEdit@@UEAAHW4Call@QMetaObject@@HPEAPEAX@Z 0000000140088d50 f   moc_pathlineedit.obj
 0001:00087de0       ?metaObject@PgnDatabase@@UEBAPEBUQMetaObject@@XZ 0000000140088de0 f   moc_pgndatabase.obj
 0001:00087e00       ?qt_metacast@PgnDatabase@@UEAAPEAXPEBD@Z 0000000140088e00 f   moc_pgndatabase.obj
 0001:00087e50       ?qt_metacall@PgnDatabase@@UEAAHW4Call@QMetaObject@@HPEAPEAX@Z 0000000140088e50 f   moc_pgndatabase.obj
 0001:00087e60       ?qt_static_metacall@PgnDatabaseModel@@CAXPEAVQObject@@W4Call@QMetaObject@@HPEAPEAX@Z 0000000140088e60 f   moc_pgndatabasemodel.obj
 0001:00087f10       ?metaObject@PgnDatabaseModel@@UEBAPEBUQMetaObject@@XZ 0000000140088f10 f   moc_pgndatabasemodel.obj
 0001:00087f30       ?qt_metacast@PgnDatabaseModel@@UEAAPEAXPEBD@Z 0000000140088f30 f   moc_pgndatabasemodel.obj
 0001:00087f80       ?qt_metacall@PgnDatabaseModel@@UEAAHW4Call@QMetaObject@@HPEAPEAX@Z 0000000140088f80 f   moc_pgndatabasemodel.obj
 0001:00087ff0       ?qt_static_metacall@PgnGameEntryModel@@CAXPEAVQObject@@W4Call@QMetaObject@@HPEAPEAX@Z 0000000140088ff0 f   moc_pgngameentrymodel.obj
 0001:00088050       ?metaObject@PgnGameEntryModel@@UEBAPEBUQMetaObject@@XZ 0000000140089050 f   moc_pgngameentrymodel.obj
 0001:00088070       ?qt_metacast@PgnGameEntryModel@@UEAAPEAXPEBD@Z 0000000140089070 f   moc_pgngameentrymodel.obj
 0001:000880c0       ?qt_metacall@PgnGameEntryModel@@UEAAHW4Call@QMetaObject@@HPEAPEAX@Z 00000001400890c0 f   moc_pgngameentrymodel.obj
 0001:00088130       ?qt_static_metacall@PgnImporter@@CAXPEAVQObject@@W4Call@QMetaObject@@HPEAPEAX@Z 0000000140089130 f   moc_pgnimporter.obj
 0001:00088200       ?metaObject@PgnImporter@@UEBAPEBUQMetaObject@@XZ 0000000140089200 f   moc_pgnimporter.obj
 0001:00088220       ?qt_metacast@PgnImporter@@UEAAPEAXPEBD@Z 0000000140089220 f   moc_pgnimporter.obj
 0001:000882e0       ?qt_metacall@PgnImporter@@UEAAHW4Call@QMetaObject@@HPEAPEAX@Z 00000001400892e0 f   moc_pgnimporter.obj
 0001:000883f0       ?databaseRead@PgnImporter@@QEAAXPEAVPgnDatabase@@@Z 00000001400893f0 f   moc_pgnimporter.obj
 0001:00088430       ?databaseReadStatus@PgnImporter@@QEAAXAEBVQTime@@H_J@Z 0000000140089430 f   moc_pgnimporter.obj
 0001:000884a0       ?qt_static_metacall@PgnTagsModel@@CAXPEAVQObject@@W4Call@QMetaObject@@HPEAPEAX@Z 00000001400894a0 f   moc_pgntagsmodel.obj
 0001:000884c0       ?metaObject@PgnTagsModel@@UEBAPEBUQMetaObject@@XZ 00000001400894c0 f   moc_pgntagsmodel.obj
 0001:000884e0       ?qt_metacast@PgnTagsModel@@UEAAPEAXPEBD@Z 00000001400894e0 f   moc_pgntagsmodel.obj
 0001:00088530       ?qt_metacall@PgnTagsModel@@UEAAHW4Call@QMetaObject@@HPEAPEAX@Z 0000000140089530 f   moc_pgntagsmodel.obj
 0001:000885a0       ?qt_static_metacall@PieceChooser@@CAXPEAVQObject@@W4Call@QMetaObject@@HPEAPEAX@Z 00000001400895a0 f   moc_piecechooser.obj
 0001:00088630       ?pieceChosen@PieceChooser@@QEAAXAEBVPiece@Chess@@@Z 0000000140089630 f   moc_piecechooser.obj
 0001:00088660       ?qt_static_metacall@PlainTextLog@@CAXPEAVQObject@@W4Call@QMetaObject@@HPEAPEAX@Z 0000000140089660 f   moc_plaintextlog.obj
 0001:00088680       ?metaObject@PlainTextLog@@UEBAPEBUQMetaObject@@XZ 0000000140089680 f   moc_plaintextlog.obj
 0001:000886a0       ?qt_metacast@PlainTextLog@@UEAAPEAXPEBD@Z 00000001400896a0 f   moc_plaintextlog.obj
 0001:000886f0       ?qt_metacall@PlainTextLog@@UEAAHW4Call@QMetaObject@@HPEAPEAX@Z 00000001400896f0 f   moc_plaintextlog.obj
 0001:00088760       ?qt_static_metacall@QCPLayer@@CAXPEAVQObject@@W4Call@QMetaObject@@HPEAPEAX@Z 0000000140089760 f   moc_qcustomplot.obj
 0001:00088900       ?metaObject@QCPLayer@@UEBAPEBUQMetaObject@@XZ 0000000140089900 f   moc_qcustomplot.obj
 0001:00088920       ?qt_metacast@QCPLayer@@UEAAPEAXPEBD@Z 0000000140089920 f   moc_qcustomplot.obj
 0001:00088970       ?qt_metacall@QCPLayer@@UEAAHW4Call@QMetaObject@@HPEAPEAX@Z 0000000140089970 f   moc_qcustomplot.obj
 0001:000889f0       ?qt_static_metacall@QCPLayerable@@CAXPEAVQObject@@W4Call@QMetaObject@@HPEAPEAX@Z 00000001400899f0 f   moc_qcustomplot.obj
 0001:00088be0       ?metaObject@QCPLayerable@@UEBAPEBUQMetaObject@@XZ 0000000140089be0 f   moc_qcustomplot.obj
 0001:00088c00       ?qt_metacast@QCPLayerable@@UEAAPEAXPEBD@Z 0000000140089c00 f   moc_qcustomplot.obj
 0001:00088c50       ?qt_metacall@QCPLayerable@@UEAAHW4Call@QMetaObject@@HPEAPEAX@Z 0000000140089c50 f   moc_qcustomplot.obj
 0001:00088d10       ?layerChanged@QCPLayerable@@QEAAXPEAVQCPLayer@@@Z 0000000140089d10 f   moc_qcustomplot.obj
 0001:00088d50       ?qt_static_metacall@QCPSelectionRect@@CAXPEAVQObject@@W4Call@QMetaObject@@HPEAPEAX@Z 0000000140089d50 f   moc_qcustomplot.obj
 0001:00088e20       ?metaObject@QCPSelectionRect@@UEBAPEBUQMetaObject@@XZ 0000000140089e20 f   moc_qcustomplot.obj
 0001:00088e40       ?qt_metacast@QCPSelectionRect@@UEAAPEAXPEBD@Z 0000000140089e40 f   moc_qcustomplot.obj
 0001:00088ec0       ?qt_metacall@QCPSelectionRect@@UEAAHW4Call@QMetaObject@@HPEAPEAX@Z 0000000140089ec0 f   moc_qcustomplot.obj
 0001:00088fa0       ?started@QCPSelectionRect@@QEAAXPEAVQMouseEvent@@@Z 0000000140089fa0 f   moc_qcustomplot.obj
 0001:00088fe0       ?changed@QCPSelectionRect@@QEAAXAEBVQRect@@PEAVQMouseEvent@@@Z 0000000140089fe0 f   moc_qcustomplot.obj
 0001:00089040       ?canceled@QCPSelectionRect@@QEAAXAEBVQRect@@PEAVQInputEvent@@@Z 000000014008a040 f   moc_qcustomplot.obj
 0001:000890a0       ?accepted@QCPSelectionRect@@QEAAXAEBVQRect@@PEAVQMouseEvent@@@Z 000000014008a0a0 f   moc_qcustomplot.obj
 0001:00089100       ?qt_static_metacall@QCPLayoutElement@@CAXPEAVQObject@@W4Call@QMetaObject@@HPEAPEAX@Z 000000014008a100 f   moc_qcustomplot.obj
 0001:000892b0       ?metaObject@QCPLayoutElement@@UEBAPEBUQMetaObject@@XZ 000000014008a2b0 f   moc_qcustomplot.obj
 0001:000892d0       ?qt_metacast@QCPLayoutElement@@UEAAPEAXPEBD@Z 000000014008a2d0 f   moc_qcustomplot.obj
 0001:00089350       ?qt_metacall@QCPLayoutElement@@UEAAHW4Call@QMetaObject@@HPEAPEAX@Z 000000014008a350 f   moc_qcustomplot.obj
 0001:00089550       ?qt_metacast@QCPLayout@@UEAAPEAXPEBD@Z 000000014008a550 f   moc_qcustomplot.obj
 0001:00089600       ?qt_static_metacall@QCPLayoutGrid@@CAXPEAVQObject@@W4Call@QMetaObject@@HPEAPEAX@Z 000000014008a600 f   moc_qcustomplot.obj
 0001:00089840       ?metaObject@QCPLayoutGrid@@UEBAPEBUQMetaObject@@XZ 000000014008a840 f   moc_qcustomplot.obj
 0001:00089860       ?qt_metacast@QCPLayoutGrid@@UEAAPEAXPEBD@Z 000000014008a860 f   moc_qcustomplot.obj
 0001:000898b0       ?qt_metacall@QCPLayoutGrid@@UEAAHW4Call@QMetaObject@@HPEAPEAX@Z 000000014008a8b0 f   moc_qcustomplot.obj
 0001:00089930       ?metaObject@QCPLayoutInset@@UEBAPEBUQMetaObject@@XZ 000000014008a930 f   moc_qcustomplot.obj
 0001:00089950       ?qt_metacast@QCPLayoutInset@@UEAAPEAXPEBD@Z 000000014008a950 f   moc_qcustomplot.obj
 0001:000899a0       ?qt_metacall@QCPLayoutInset@@UEAAHW4Call@QMetaObject@@HPEAPEAX@Z 000000014008a9a0 f   moc_qcustomplot.obj
 0001:000899b0       ?qt_static_metacall@QCPGrid@@CAXPEAVQObject@@W4Call@QMetaObject@@HPEAPEAX@Z 000000014008a9b0 f   moc_qcustomplot.obj
 0001:00089b00       ?metaObject@QCPGrid@@UEBAPEBUQMetaObject@@XZ 000000014008ab00 f   moc_qcustomplot.obj
 0001:00089b20       ?qt_metacast@QCPGrid@@UEAAPEAXPEBD@Z 000000014008ab20 f   moc_qcustomplot.obj
 0001:00089ba0       ?qt_metacall@QCPGrid@@UEAAHW4Call@QMetaObject@@HPEAPEAX@Z 000000014008aba0 f   moc_qcustomplot.obj
 0001:00089d40       ?qt_static_metacall@QCPAxis@@CAXPEAVQObject@@W4Call@QMetaObject@@HPEAPEAX@Z 000000014008ad40 f   moc_qcustomplot.obj
 0001:0008aa60       ?metaObject@QCPAxis@@UEBAPEBUQMetaObject@@XZ 000000014008ba60 f   moc_qcustomplot.obj
 0001:0008aa80       ?qt_metacast@QCPAxis@@UEAAPEAXPEBD@Z 000000014008ba80 f   moc_qcustomplot.obj
 0001:0008ab00       ?qt_metacall@QCPAxis@@UEAAHW4Call@QMetaObject@@HPEAPEAX@Z 000000014008bb00 f   moc_qcustomplot.obj
 0001:0008abc0       ?rangeChanged@QCPAxis@@QEAAXAEBVQCPRange@@@Z 000000014008bbc0 f   moc_qcustomplot.obj
 0001:0008abf0       ?rangeChanged@QCPAxis@@QEAAXAEBVQCPRange@@0@Z 000000014008bbf0 f   moc_qcustomplot.obj
 0001:0008ac40       ?scaleTypeChanged@QCPAxis@@QEAAXW4ScaleType@1@@Z 000000014008bc40 f   moc_qcustomplot.obj
 0001:0008ac80       ?selectionChanged@QCPAxis@@QEAAXAEBV?$QFlags@W4SelectablePart@QCPAxis@@@@@Z 000000014008bc80 f   moc_qcustomplot.obj
 0001:0008acb0       ?selectableChanged@QCPAxis@@QEAAXAEBV?$QFlags@W4SelectablePart@QCPAxis@@@@@Z 000000014008bcb0 f   moc_qcustomplot.obj
 0001:0008ace0       ?qt_static_metacall@QCPAbstractPlottable@@CAXPEAVQObject@@W4Call@QMetaObject@@HPEAPEAX@Z 000000014008bce0 f   moc_qcustomplot.obj
 0001:0008b350       ?metaObject@QCPAbstractPlottable@@UEBAPEBUQMetaObject@@XZ 000000014008c350 f   moc_qcustomplot.obj
 0001:0008b370       ?qt_metacast@QCPAbstractPlottable@@UEAAPEAXPEBD@Z 000000014008c370 f   moc_qcustomplot.obj
 0001:0008b3f0       ?qt_metacall@QCPAbstractPlottable@@UEAAHW4Call@QMetaObject@@HPEAPEAX@Z 000000014008c3f0 f   moc_qcustomplot.obj
 0001:0008b4b0       ?selectionChanged@QCPAbstractPlottable@@QEAAX_N@Z 000000014008c4b0 f   moc_qcustomplot.obj
 0001:0008b4f0       ?selectionChanged@QCPAbstractPlottable@@QEAAXAEBVQCPDataSelection@@@Z 000000014008c4f0 f   moc_qcustomplot.obj
 0001:0008b520       ?selectableChanged@QCPAbstractPlottable@@QEAAXW4SelectionType@QCP@@@Z 000000014008c520 f   moc_qcustomplot.obj
 0001:0008b560       ?qt_static_metacall@QCPAbstractItem@@CAXPEAVQObject@@W4Call@QMetaObject@@HPEAPEAX@Z 000000014008c560 f   moc_qcustomplot.obj
 0001:0008b740       ?selectionChanged@QCPAbstractItem@@QEAAX_N@Z 000000014008c740 f   moc_qcustomplot.obj
 0001:0008b780       ?selectableChanged@QCPAbstractItem@@QEAAX_N@Z 000000014008c780 f   moc_qcustomplot.obj
 0001:0008b7c0       ?qt_static_metacall@QCustomPlot@@CAXPEAVQObject@@W4Call@QMetaObject@@HPEAPEAX@Z 000000014008c7c0 f   moc_qcustomplot.obj
 0001:0008c220       ?metaObject@QCustomPlot@@UEBAPEBUQMetaObject@@XZ 000000014008d220 f   moc_qcustomplot.obj
 0001:0008c240       ?qt_metacast@QCustomPlot@@UEAAPEAXPEBD@Z 000000014008d240 f   moc_qcustomplot.obj
 0001:0008c290       ?qt_metacall@QCustomPlot@@UEAAHW4Call@QMetaObject@@HPEAPEAX@Z 000000014008d290 f   moc_qcustomplot.obj
 0001:0008c350       ?mouseDoubleClick@QCustomPlot@@QEAAXPEAVQMouseEvent@@@Z 000000014008d350 f   moc_qcustomplot.obj
 0001:0008c390       ?mousePress@QCustomPlot@@QEAAXPEAVQMouseEvent@@@Z 000000014008d390 f   moc_qcustomplot.obj
 0001:0008c3d0       ?mouseMove@QCustomPlot@@QEAAXPEAVQMouseEvent@@@Z 000000014008d3d0 f   moc_qcustomplot.obj
 0001:0008c410       ?mouseRelease@QCustomPlot@@QEAAXPEAVQMouseEvent@@@Z 000000014008d410 f   moc_qcustomplot.obj
 0001:0008c450       ?mouseWheel@QCustomPlot@@QEAAXPEAVQWheelEvent@@@Z 000000014008d450 f   moc_qcustomplot.obj
 0001:0008c490       ?plottableClick@QCustomPlot@@QEAAXPEAVQCPAbstractPlottable@@HPEAVQMouseEvent@@@Z 000000014008d490 f   moc_qcustomplot.obj
 0001:0008c500       ?plottableDoubleClick@QCustomPlot@@QEAAXPEAVQCPAbstractPlottable@@HPEAVQMouseEvent@@@Z 000000014008d500 f   moc_qcustomplot.obj
 0001:0008c570       ?itemClick@QCustomPlot@@QEAAXPEAVQCPAbstractItem@@PEAVQMouseEvent@@@Z 000000014008d570 f   moc_qcustomplot.obj
 0001:0008c5d0       ?itemDoubleClick@QCustomPlot@@QEAAXPEAVQCPAbstractItem@@PEAVQMouseEvent@@@Z 000000014008d5d0 f   moc_qcustomplot.obj
 0001:0008c630       ?axisClick@QCustomPlot@@QEAAXPEAVQCPAxis@@W4SelectablePart@2@PEAVQMouseEvent@@@Z 000000014008d630 f   moc_qcustomplot.obj
 0001:0008c6a0       ?axisDoubleClick@QCustomPlot@@QEAAXPEAVQCPAxis@@W4SelectablePart@2@PEAVQMouseEvent@@@Z 000000014008d6a0 f   moc_qcustomplot.obj
 0001:0008c710       ?legendClick@QCustomPlot@@QEAAXPEAVQCPLegend@@PEAVQCPAbstractLegendItem@@PEAVQMouseEvent@@@Z 000000014008d710 f   moc_qcustomplot.obj
 0001:0008c780       ?legendDoubleClick@QCustomPlot@@QEAAXPEAVQCPLegend@@PEAVQCPAbstractLegendItem@@PEAVQMouseEvent@@@Z 000000014008d780 f   moc_qcustomplot.obj
 0001:0008c7f0       ?selectionChangedByUser@QCustomPlot@@QEAAXXZ 000000014008d7f0 f   moc_qcustomplot.obj
 0001:0008c810       ?beforeReplot@QCustomPlot@@QEAAXXZ 000000014008d810 f   moc_qcustomplot.obj
 0001:0008c830       ?afterReplot@QCustomPlot@@QEAAXXZ 000000014008d830 f   moc_qcustomplot.obj
 0001:0008c850       ?qt_static_metacall@QCPAxisRect@@CAXPEAVQObject@@W4Call@QMetaObject@@HPEAPEAX@Z 000000014008d850 f   moc_qcustomplot.obj
 0001:0008c9b0       ?metaObject@QCPAxisRect@@UEBAPEBUQMetaObject@@XZ 000000014008d9b0 f   moc_qcustomplot.obj
 0001:0008c9d0       ?qt_metacast@QCPAxisRect@@UEAAPEAXPEBD@Z 000000014008d9d0 f   moc_qcustomplot.obj
 0001:0008ca80       ?qt_metacall@QCPAxisRect@@UEAAHW4Call@QMetaObject@@HPEAPEAX@Z 000000014008da80 f   moc_qcustomplot.obj
 0001:0008cc00       ?qt_static_metacall@QCPAbstractLegendItem@@CAXPEAVQObject@@W4Call@QMetaObject@@HPEAPEAX@Z 000000014008dc00 f   moc_qcustomplot.obj
 0001:0008cec0       ?metaObject@QCPAbstractLegendItem@@UEBAPEBUQMetaObject@@XZ 000000014008dec0 f   moc_qcustomplot.obj
 0001:0008cee0       ?qt_metacast@QCPAbstractLegendItem@@UEAAPEAXPEBD@Z 000000014008dee0 f   moc_qcustomplot.obj
 0001:0008cf90       ?qt_metacall@QCPAbstractLegendItem@@UEAAHW4Call@QMetaObject@@HPEAPEAX@Z 000000014008df90 f   moc_qcustomplot.obj
 0001:0008d040       ?selectionChanged@QCPAbstractLegendItem@@QEAAX_N@Z 000000014008e040 f   moc_qcustomplot.obj
 0001:0008d080       ?selectableChanged@QCPAbstractLegendItem@@QEAAX_N@Z 000000014008e080 f   moc_qcustomplot.obj
 0001:0008d0c0       ?metaObject@QCPPlottableLegendItem@@UEBAPEBUQMetaObject@@XZ 000000014008e0c0 f   moc_qcustomplot.obj
 0001:0008d0e0       ?qt_metacast@QCPPlottableLegendItem@@UEAAPEAXPEBD@Z 000000014008e0e0 f   moc_qcustomplot.obj
 0001:0008d1b0       ?qt_metacall@QCPPlottableLegendItem@@UEAAHW4Call@QMetaObject@@HPEAPEAX@Z 000000014008e1b0 f   moc_qcustomplot.obj
 0001:0008d260       ?qt_static_metacall@QCPLegend@@CAXPEAVQObject@@W4Call@QMetaObject@@HPEAPEAX@Z 000000014008e260 f   moc_qcustomplot.obj
 0001:0008d7b0       ?metaObject@QCPLegend@@UEBAPEBUQMetaObject@@XZ 000000014008e7b0 f   moc_qcustomplot.obj
 0001:0008d7d0       ?qt_metacast@QCPLegend@@UEAAPEAXPEBD@Z 000000014008e7d0 f   moc_qcustomplot.obj
 0001:0008d850       ?qt_metacall@QCPLegend@@UEAAHW4Call@QMetaObject@@HPEAPEAX@Z 000000014008e850 f   moc_qcustomplot.obj
 0001:0008d960       ?selectionChanged@QCPLegend@@QEAAXV?$QFlags@W4SelectablePart@QCPLegend@@@@@Z 000000014008e960 f   moc_qcustomplot.obj
 0001:0008d9a0       ?selectableChanged@QCPLegend@@QEAAXV?$QFlags@W4SelectablePart@QCPLegend@@@@@Z 000000014008e9a0 f   moc_qcustomplot.obj
 0001:0008d9e0       ?qt_static_metacall@QCPTextElement@@CAXPEAVQObject@@W4Call@QMetaObject@@HPEAPEAX@Z 000000014008e9e0 f   moc_qcustomplot.obj
 0001:0008dcf0       ?selectionChanged@QCPTextElement@@QEAAX_N@Z 000000014008ecf0 f   moc_qcustomplot.obj
 0001:0008dd30       ?selectableChanged@QCPTextElement@@QEAAX_N@Z 000000014008ed30 f   moc_qcustomplot.obj
 0001:0008dd70       ?clicked@QCPTextElement@@QEAAXPEAVQMouseEvent@@@Z 000000014008ed70 f   moc_qcustomplot.obj
 0001:0008ddb0       ?doubleClicked@QCPTextElement@@QEAAXPEAVQMouseEvent@@@Z 000000014008edb0 f   moc_qcustomplot.obj
 0001:0008ddf0       ?qt_static_metacall@QCPColorScaleAxisRectPrivate@@CAXPEAVQObject@@W4Call@QMetaObject@@HPEAPEAX@Z 000000014008edf0 f   moc_qcustomplot.obj
 0001:0008de20       ?qt_static_metacall@QCPColorScale@@CAXPEAVQObject@@W4Call@QMetaObject@@HPEAPEAX@Z 000000014008ee20 f   moc_qcustomplot.obj
 0001:0008e4e0       ??4QCPColorGradient@@QEAAAEAV0@$$QEAV0@@Z 000000014008f4e0 f i moc_qcustomplot.obj
 0001:0008e590       ?dataRangeChanged@QCPColorScale@@QEAAXAEBVQCPRange@@@Z 000000014008f590 f   moc_qcustomplot.obj
 0001:0008e5c0       ?dataScaleTypeChanged@QCPColorScale@@QEAAXW4ScaleType@QCPAxis@@@Z 000000014008f5c0 f   moc_qcustomplot.obj
 0001:0008e600       ?gradientChanged@QCPColorScale@@QEAAXAEBVQCPColorGradient@@@Z 000000014008f600 f   moc_qcustomplot.obj
 0001:0008e630       ?qt_static_metacall@QCPGraph@@CAXPEAVQObject@@W4Call@QMetaObject@@HPEAPEAX@Z 000000014008f630 f   moc_qcustomplot.obj
 0001:0008e880       ?metaObject@QCPGraph@@UEBAPEBUQMetaObject@@XZ 000000014008f880 f   moc_qcustomplot.obj
 0001:0008e8a0       ?qt_metacast@QCPGraph@@UEAAPEAXPEBD@Z 000000014008f8a0 f   moc_qcustomplot.obj
 0001:0008e950       ?qt_metacall@QCPGraph@@UEAAHW4Call@QMetaObject@@HPEAPEAX@Z 000000014008f950 f   moc_qcustomplot.obj
 0001:0008e9d0       ?qt_static_metacall@QCPCurve@@CAXPEAVQObject@@W4Call@QMetaObject@@HPEAPEAX@Z 000000014008f9d0 f   moc_qcustomplot.obj
 0001:0008eb50       ?qt_static_metacall@QCPBarsGroup@@CAXPEAVQObject@@W4Call@QMetaObject@@HPEAPEAX@Z 000000014008fb50 f   moc_qcustomplot.obj
 0001:0008eba0       ?qt_static_metacall@QCPBars@@CAXPEAVQObject@@W4Call@QMetaObject@@HPEAPEAX@Z 000000014008fba0 f   moc_qcustomplot.obj
 0001:0008ed50       ?qt_static_metacall@QCPStatisticalBox@@CAXPEAVQObject@@W4Call@QMetaObject@@HPEAPEAX@Z 000000014008fd50 f   moc_qcustomplot.obj
 0001:0008f010       ?qt_static_metacall@QCPColorMap@@CAXPEAVQObject@@W4Call@QMetaObject@@HPEAPEAX@Z 0000000140090010 f   moc_qcustomplot.obj
 0001:0008f450       ?dataRangeChanged@QCPColorMap@@QEAAXAEBVQCPRange@@@Z 0000000140090450 f   moc_qcustomplot.obj
 0001:0008f480       ?dataScaleTypeChanged@QCPColorMap@@QEAAXW4ScaleType@QCPAxis@@@Z 0000000140090480 f   moc_qcustomplot.obj
 0001:0008f4c0       ?gradientChanged@QCPColorMap@@QEAAXAEBVQCPColorGradient@@@Z 00000001400904c0 f   moc_qcustomplot.obj
 0001:0008f4f0       ?qt_static_metacall@QCPFinancial@@CAXPEAVQObject@@W4Call@QMetaObject@@HPEAPEAX@Z 00000001400904f0 f   moc_qcustomplot.obj
 0001:0008f6e0       ?qt_static_metacall@QCPErrorBars@@CAXPEAVQObject@@W4Call@QMetaObject@@HPEAPEAX@Z 00000001400906e0 f   moc_qcustomplot.obj
 0001:0008f960       ?qt_static_metacall@QCPItemStraightLine@@CAXPEAVQObject@@W4Call@QMetaObject@@HPEAPEAX@Z 0000000140090960 f   moc_qcustomplot.obj
 0001:0008f9f0       ?qt_static_metacall@QCPItemLine@@CAXPEAVQObject@@W4Call@QMetaObject@@HPEAPEAX@Z 00000001400909f0 f   moc_qcustomplot.obj
 0001:0008fb10       ?qt_static_metacall@QCPItemCurve@@CAXPEAVQObject@@W4Call@QMetaObject@@HPEAPEAX@Z 0000000140090b10 f   moc_qcustomplot.obj
 0001:0008fc30       ?qt_static_metacall@QCPItemRect@@CAXPEAVQObject@@W4Call@QMetaObject@@HPEAPEAX@Z 0000000140090c30 f   moc_qcustomplot.obj
 0001:0008fd40       ?qt_static_metacall@QCPItemText@@CAXPEAVQObject@@W4Call@QMetaObject@@HPEAPEAX@Z 0000000140090d40 f   moc_qcustomplot.obj
 0001:00090100       ?qt_static_metacall@QCPItemEllipse@@CAXPEAVQObject@@W4Call@QMetaObject@@HPEAPEAX@Z 0000000140091100 f   moc_qcustomplot.obj
 0001:00090210       ?qt_static_metacall@QCPItemPixmap@@CAXPEAVQObject@@W4Call@QMetaObject@@HPEAPEAX@Z 0000000140091210 f   moc_qcustomplot.obj
 0001:00090420       ?qt_static_metacall@QCPItemTracer@@CAXPEAVQObject@@W4Call@QMetaObject@@HPEAPEAX@Z 0000000140091420 f   moc_qcustomplot.obj
 0001:00090650       ?qt_static_metacall@QCPItemBracket@@CAXPEAVQObject@@W4Call@QMetaObject@@HPEAPEAX@Z 0000000140091650 f   moc_qcustomplot.obj
 0001:00090740       ?qt_metatype_id@?$QMetaTypeId2@VQSequentialIterableImpl@QtMetaTypePrivate@@@@SAHXZ 0000000140091740 f i moc_qcustomplot.obj
 0001:00090850       ?qt_metatype_id@?$QMetaTypeId2@PEAVQCPColorScale@@@@SAHXZ 0000000140091850 f i moc_qcustomplot.obj
 0001:000909a0       ?qt_metatype_id@?$QMetaTypeId2@PEAVQCPBarsGroup@@@@SAHXZ 00000001400919a0 f i moc_qcustomplot.obj
 0001:00090af0       ?qt_metatype_id@?$QMetaTypeId2@PEAVQCPBars@@@@SAHXZ 0000000140091af0 f i moc_qcustomplot.obj
 0001:00090c40       ?qt_metatype_id@?$QMetaTypeId2@PEAVQCPGraph@@@@SAHXZ 0000000140091c40 f i moc_qcustomplot.obj
 0001:00090d90       ?qt_metatype_id@?$QMetaTypeId2@PEAVQCPLayoutGrid@@@@SAHXZ 0000000140091d90 f i moc_qcustomplot.obj
 0001:00090ee0       ?qt_metatype_id@?$QMetaTypeId2@PEAVQCPLegend@@@@SAHXZ 0000000140091ee0 f i moc_qcustomplot.obj
 0001:00091030       ?qt_metatype_id@?$QMetaTypeId2@PEAVQCPAbstractLegendItem@@@@SAHXZ 0000000140092030 f i moc_qcustomplot.obj
 0001:00091180       ?qt_metatype_id@?$QMetaTypeId2@PEAVQCPAbstractItem@@@@SAHXZ 0000000140092180 f i moc_qcustomplot.obj
 0001:000912d0       ?qt_metatype_id@?$QMetaTypeId2@PEAVQCPAbstractPlottable@@@@SAHXZ 00000001400922d0 f i moc_qcustomplot.obj
 0001:00091420       ?qt_metatype_id@?$QMetaTypeId2@PEAVQCPAxis@@@@SAHXZ 0000000140092420 f i moc_qcustomplot.obj
 0001:00091570       ?qt_metatype_id@?$QMetaTypeId2@PEAVQCPGrid@@@@SAHXZ 0000000140092570 f i moc_qcustomplot.obj
 0001:000916c0       ?qt_metatype_id@?$QMetaTypeId2@PEAVQCPAxisRect@@@@SAHXZ 00000001400926c0 f i moc_qcustomplot.obj
 0001:00091810       ?qt_metatype_id@?$QMetaTypeId2@PEAVQCPLayout@@@@SAHXZ 0000000140092810 f i moc_qcustomplot.obj
 0001:00091960       ?qt_metatype_id@?$QMetaTypeId2@PEAVQCPLayer@@@@SAHXZ 0000000140092960 f i moc_qcustomplot.obj
 0001:00091ab0       ?qt_metatype_id@?$QMetaTypeId2@PEAVQCPLayerable@@@@SAHXZ 0000000140092ab0 f i moc_qcustomplot.obj
 0001:00091c00       ?qt_metatype_id@?$QMetaTypeId2@PEAVQCustomPlot@@@@SAHXZ 0000000140092c00 f i moc_qcustomplot.obj
 0001:00091d50       ?Construct@?$QMetaTypeFunctionHelper@V?$QSharedPointer@VQCPAxisTicker@@@@$00@QtMetaTypePrivate@@SAPEAXPEAXPEBX@Z 0000000140092d50 f i moc_qcustomplot.obj
 0001:00091d90       ?Destruct@?$QMetaTypeFunctionHelper@V?$QSharedPointer@VQCPAxisTicker@@@@$00@QtMetaTypePrivate@@SAXPEAX@Z 0000000140092d90 f i moc_qcustomplot.obj
 0001:00091de0       ?Construct@?$QMetaTypeFunctionHelper@VQSequentialIterableImpl@QtMetaTypePrivate@@$00@QtMetaTypePrivate@@SAPEAXPEAXPEBX@Z 0000000140092de0 f i moc_qcustomplot.obj
 0001:00091e60       ?qt_metatype_id@?$QMetaTypeId2@W4RefreshPriority@QCustomPlot@@@@SAHXZ 0000000140092e60 f i moc_qcustomplot.obj
 0001:00091f70       ?qt_metatype_id@?$QMetaTypeId2@PEAVQCPSelectionDecorator@@@@SAHXZ 0000000140092f70 f i moc_qcustomplot.obj
 0001:00092090       ?qt_metatype_id@?$QMetaTypeId2@W4ScaleType@QCPAxis@@@@SAHXZ 0000000140093090 f i moc_qcustomplot.obj
 0001:000921a0       ?qt_metatype_id@?$QMetaTypeId2@W4AxisType@QCPAxis@@@@SAHXZ 00000001400931a0 f i moc_qcustomplot.obj
 0001:000922b0       ?qt_metatype_id@?$QMetaTypeId2@V?$QSharedPointer@VQCPAxisTicker@@@@@@SAHXZ 00000001400932b0 f i moc_qcustomplot.obj
 0001:000923c0       ?qt_metatype_id@?$QMetaTypeId2@W4SelectionType@QCP@@@@SAHXZ 00000001400933c0 f i moc_qcustomplot.obj
 0001:000924d0       ?qt_metatype_id@?$QMetaTypeId@V?$QVector@N@@@@SAHXZ 00000001400934d0 f i moc_qcustomplot.obj
 0001:00092710       ?qt_metatype_id@?$QMetaTypeId@V?$QVector@VQString@@@@@@SAHXZ 0000000140093710 f i moc_qcustomplot.obj
 0001:00092950       ?qt_metatype_id@?$QMetaTypeId@V?$QList@N@@@@SAHXZ 0000000140093950 f i moc_qcustomplot.obj
 0001:00092b90       ?qt_metatype_id@?$QMetaTypeId@V?$QList@PEAVQCPLayerable@@@@@@SAHXZ 0000000140093b90 f i moc_qcustomplot.obj
 0001:00092dd0       ?Construct@?$QMetaTypeFunctionHelper@V?$QList@N@@$00@QtMetaTypePrivate@@SAPEAXPEAXPEBX@Z 0000000140093dd0 f i moc_qcustomplot.obj
 0001:00092dd0       ?Construct@?$QMetaTypeFunctionHelper@V?$QList@PEAVQCPLayerable@@@@$00@QtMetaTypePrivate@@SAPEAXPEAXPEBX@Z 0000000140093dd0 f i moc_qcustomplot.obj
 0001:00092df0       ?Construct@?$QMetaTypeFunctionHelper@V?$QVector@VQString@@@@$00@QtMetaTypePrivate@@SAPEAXPEAXPEBX@Z 0000000140093df0 f i moc_qcustomplot.obj
 0001:00092e20       ?Destruct@?$QMetaTypeFunctionHelper@V?$QVector@VQString@@@@$00@QtMetaTypePrivate@@SAXPEAX@Z 0000000140093e20 f i moc_qcustomplot.obj
 0001:00092e50       ?Construct@?$QMetaTypeFunctionHelper@V?$QVector@N@@$00@QtMetaTypePrivate@@SAPEAXPEAXPEBX@Z 0000000140093e50 f i moc_qcustomplot.obj
 0001:00092e80       ?Destruct@?$QMetaTypeFunctionHelper@V?$QVector@N@@$00@QtMetaTypePrivate@@SAXPEAX@Z 0000000140093e80 f i moc_qcustomplot.obj
 0001:00092ed0       ?convert@?$ConverterFunctor@V?$QVector@N@@VQSequentialIterableImpl@QtMetaTypePrivate@@U?$QSequentialIterableConvertFunctor@V?$QVector@N@@@3@@QtPrivate@@SA_NPEBUAbstractConverterFunction@2@PEBXPEAX@Z 0000000140093ed0 f i moc_qcustomplot.obj
 0001:00092fb0       ?convert@?$ConverterFunctor@V?$QVector@VQString@@@@VQSequentialIterableImpl@QtMetaTypePrivate@@U?$QSequentialIterableConvertFunctor@V?$QVector@VQString@@@@@3@@QtPrivate@@SA_NPEBUAbstractConverterFunction@2@PEBXPEAX@Z 0000000140093fb0 f i moc_qcustomplot.obj
 0001:00093090       ?convert@?$ConverterFunctor@V?$QList@N@@VQSequentialIterableImpl@QtMetaTypePrivate@@U?$QSequentialIterableConvertFunctor@V?$QList@N@@@3@@QtPrivate@@SA_NPEBUAbstractConverterFunction@2@PEBXPEAX@Z 0000000140094090 f i moc_qcustomplot.obj
 0001:00093170       ?convert@?$ConverterFunctor@V?$QList@PEAVQCPLayerable@@@@VQSequentialIterableImpl@QtMetaTypePrivate@@U?$QSequentialIterableConvertFunctor@V?$QList@PEAVQCPLayerable@@@@@3@@QtPrivate@@SA_NPEBUAbstractConverterFunction@2@PEBXPEAX@Z 0000000140094170 f i moc_qcustomplot.obj
 0001:00093260       ?equal@?$IteratorOwnerCommon@Vconst_iterator@?$QList@PEAVQCPLayerable@@@@@QtMetaTypePrivate@@SA_NPEBQEAX0@Z 0000000140094260 f i moc_qcustomplot.obj
 0001:00093260       ?equal@?$IteratorOwnerCommon@Vconst_iterator@?$QList@N@@@QtMetaTypePrivate@@SA_NPEBQEAX0@Z 0000000140094260 f i moc_qcustomplot.obj
 0001:00093270       ?destroy@?$IteratorOwnerCommon@Vconst_iterator@?$QList@PEAVQCPLayerable@@@@@QtMetaTypePrivate@@SAXPEAPEAX@Z 0000000140094270 f i moc_qcustomplot.obj
 0001:00093270       ?destroy@?$IteratorOwnerCommon@Vconst_iterator@?$QList@N@@@QtMetaTypePrivate@@SAXPEAPEAX@Z 0000000140094270 f i moc_qcustomplot.obj
 0001:00093280       ?advance@?$IteratorOwnerCommon@Vconst_iterator@?$QList@PEAVQCPLayerable@@@@@QtMetaTypePrivate@@SAXPEAPEAXH@Z 0000000140094280 f i moc_qcustomplot.obj
 0001:00093280       ?advance@?$IteratorOwnerCommon@Vconst_iterator@?$QList@N@@@QtMetaTypePrivate@@SAXPEAPEAXH@Z 0000000140094280 f i moc_qcustomplot.obj
 0001:00093290       ?assign@?$IteratorOwnerCommon@Vconst_iterator@?$QList@PEAVQCPLayerable@@@@@QtMetaTypePrivate@@SAXPEAPEAXPEBQEAX@Z 0000000140094290 f i moc_qcustomplot.obj
 0001:00093290       ?assign@?$IteratorOwnerCommon@Vconst_iterator@?$QList@N@@@QtMetaTypePrivate@@SAXPEAPEAXPEBQEAX@Z 0000000140094290 f i moc_qcustomplot.obj
 0001:000932d0       ?equal@?$IteratorOwner@PEBVQString@@@QtMetaTypePrivate@@SA_NPEBQEAX0@Z 00000001400942d0 f i moc_qcustomplot.obj
 0001:000932d0       ?equal@?$IteratorOwner@PEBN@QtMetaTypePrivate@@SA_NPEBQEAX0@Z 00000001400942d0 f i moc_qcustomplot.obj
 0001:000932e0       ?advance@?$IteratorOwner@PEBVQString@@@QtMetaTypePrivate@@SAXPEAPEAXH@Z 00000001400942e0 f i moc_qcustomplot.obj
 0001:000932e0       ?advance@?$IteratorOwner@PEBN@QtMetaTypePrivate@@SAXPEAPEAXH@Z 00000001400942e0 f i moc_qcustomplot.obj
 0001:000932f0       ?assign@?$IteratorOwner@PEBVQString@@@QtMetaTypePrivate@@SAXPEAPEAXPEBQEAX@Z 00000001400942f0 f i moc_qcustomplot.obj
 0001:000932f0       ?assign@?$IteratorOwner@PEBN@QtMetaTypePrivate@@SAXPEAPEAXPEBQEAX@Z 00000001400942f0 f i moc_qcustomplot.obj
 0001:00093300       ??$sizeImpl@V?$QVector@VQString@@@@@QSequentialIterableImpl@QtMetaTypePrivate@@SAHPEBX@Z 0000000140094300 f i moc_qcustomplot.obj
 0001:00093300       ??$sizeImpl@V?$QVector@N@@@QSequentialIterableImpl@QtMetaTypePrivate@@SAHPEBX@Z 0000000140094300 f i moc_qcustomplot.obj
 0001:00093310       ??$atImpl@V?$QVector@VQString@@@@@QSequentialIterableImpl@QtMetaTypePrivate@@SAPEBXPEBXH@Z 0000000140094310 f i moc_qcustomplot.obj
 0001:00093310       ??$atImpl@V?$QVector@N@@@QSequentialIterableImpl@QtMetaTypePrivate@@SAPEBXPEBXH@Z 0000000140094310 f i moc_qcustomplot.obj
 0001:00093330       ??$moveToBeginImpl@V?$QVector@VQString@@@@@QSequentialIterableImpl@QtMetaTypePrivate@@SAXPEBXPEAPEAX@Z 0000000140094330 f i moc_qcustomplot.obj
 0001:00093330       ??$moveToBeginImpl@V?$QVector@N@@@QSequentialIterableImpl@QtMetaTypePrivate@@SAXPEBXPEAPEAX@Z 0000000140094330 f i moc_qcustomplot.obj
 0001:00093350       ??$moveToEndImpl@V?$QVector@N@@@QSequentialIterableImpl@QtMetaTypePrivate@@SAXPEBXPEAPEAX@Z 0000000140094350 f i moc_qcustomplot.obj
 0001:00093350       ??$moveToEndImpl@V?$QVector@VQString@@@@@QSequentialIterableImpl@QtMetaTypePrivate@@SAXPEBXPEAPEAX@Z 0000000140094350 f i moc_qcustomplot.obj
 0001:00093380       ??$getImpl@V?$QVector@VQString@@@@@QSequentialIterableImpl@QtMetaTypePrivate@@SA?AUVariantData@1@PEBQEAXHI@Z 0000000140094380 f i moc_qcustomplot.obj
 0001:00093380       ??$getImpl@V?$QVector@N@@@QSequentialIterableImpl@QtMetaTypePrivate@@SA?AUVariantData@1@PEBQEAXHI@Z 0000000140094380 f i moc_qcustomplot.obj
 0001:000933a0       ??$sizeImpl@V?$QList@N@@@QSequentialIterableImpl@QtMetaTypePrivate@@SAHPEBX@Z 00000001400943a0 f i moc_qcustomplot.obj
 0001:000933a0       ??$sizeImpl@V?$QList@PEAVQCPLayerable@@@@@QSequentialIterableImpl@QtMetaTypePrivate@@SAHPEBX@Z 00000001400943a0 f i moc_qcustomplot.obj
 0001:000933b0       ??$atImpl@V?$QList@N@@@QSequentialIterableImpl@QtMetaTypePrivate@@SAPEBXPEBXH@Z 00000001400943b0 f i moc_qcustomplot.obj
 0001:000933b0       ??$atImpl@V?$QList@PEAVQCPLayerable@@@@@QSequentialIterableImpl@QtMetaTypePrivate@@SAPEBXPEBXH@Z 00000001400943b0 f i moc_qcustomplot.obj
 0001:000933d0       ??$moveToBeginImpl@V?$QList@PEAVQCPLayerable@@@@@QSequentialIterableImpl@QtMetaTypePrivate@@SAXPEBXPEAPEAX@Z 00000001400943d0 f i moc_qcustomplot.obj
 0001:000933d0       ??$moveToBeginImpl@V?$QList@N@@@QSequentialIterableImpl@QtMetaTypePrivate@@SAXPEBXPEAPEAX@Z 00000001400943d0 f i moc_qcustomplot.obj
 0001:00093410       ??$moveToEndImpl@V?$QList@N@@@QSequentialIterableImpl@QtMetaTypePrivate@@SAXPEBXPEAPEAX@Z 0000000140094410 f i moc_qcustomplot.obj
 0001:00093410       ??$moveToEndImpl@V?$QList@PEAVQCPLayerable@@@@@QSequentialIterableImpl@QtMetaTypePrivate@@SAXPEBXPEAPEAX@Z 0000000140094410 f i moc_qcustomplot.obj
 0001:00093450       ??$getImpl@V?$QList@PEAVQCPLayerable@@@@@QSequentialIterableImpl@QtMetaTypePrivate@@SA?AUVariantData@1@PEBQEAXHI@Z 0000000140094450 f i moc_qcustomplot.obj
 0001:00093450       ??$getImpl@V?$QList@N@@@QSequentialIterableImpl@QtMetaTypePrivate@@SA?AUVariantData@1@PEBQEAXHI@Z 0000000140094450 f i moc_qcustomplot.obj
 0001:00093470       ?qt_static_metacall@SettingsDialog@@CAXPEAVQObject@@W4Call@QMetaObject@@HPEAPEAX@Z 0000000140094470 f   moc_settingsdlg.obj
 0001:000934a0       ?metaObject@SettingsDialog@@UEBAPEBUQMetaObject@@XZ 00000001400944a0 f   moc_settingsdlg.obj
 0001:000934c0       ?qt_metacast@SettingsDialog@@UEAAPEAXPEBD@Z 00000001400944c0 f   moc_settingsdlg.obj
 0001:00093510       ?qt_metacall@SettingsDialog@@UEAAHW4Call@QMetaObject@@HPEAPEAX@Z 0000000140094510 f   moc_settingsdlg.obj
 0001:000935b0       ?metaObject@StringValidator@@UEBAPEBUQMetaObject@@XZ 00000001400945b0 f   moc_stringvalidator.obj
 0001:000935d0       ?qt_metacast@StringValidator@@UEAAPEAXPEBD@Z 00000001400945d0 f   moc_stringvalidator.obj
 0001:00093620       ?qt_metacall@StringValidator@@UEAAHW4Call@QMetaObject@@HPEAPEAX@Z 0000000140094620 f   moc_stringvalidator.obj
 0001:00093630       ?qt_static_metacall@ThreadedTask@@CAXPEAVQObject@@W4Call@QMetaObject@@HPEAPEAX@Z 0000000140094630 f   moc_threadedtask.obj
 0001:00093710       ?metaObject@ThreadedTask@@UEBAPEBUQMetaObject@@XZ 0000000140094710 f   moc_threadedtask.obj
 0001:00093730       ?qt_metacast@ThreadedTask@@UEAAPEAXPEBD@Z 0000000140094730 f   moc_threadedtask.obj
 0001:00093780       ?qt_metacall@ThreadedTask@@UEAAHW4Call@QMetaObject@@HPEAPEAX@Z 0000000140094780 f   moc_threadedtask.obj
 0001:000937f0       ?progressValueChanged@ThreadedTask@@QEAAXH@Z 00000001400947f0 f   moc_threadedtask.obj
 0001:00093830       ?statusMessageChanged@ThreadedTask@@QEAAXAEBVQString@@@Z 0000000140094830 f   moc_threadedtask.obj
 0001:00093860       ?metaObject@TileLayout@@UEBAPEBUQMetaObject@@XZ 0000000140094860 f   moc_tilelayout.obj
 0001:00093880       ?qt_metacast@TileLayout@@UEAAPEAXPEBD@Z 0000000140094880 f   moc_tilelayout.obj
 0001:000938d0       ?qt_metacall@TileLayout@@UEAAHW4Call@QMetaObject@@HPEAPEAX@Z 00000001400948d0 f   moc_tilelayout.obj
 0001:000938e0       ?qt_static_metacall@TimeControlDialog@@CAXPEAVQObject@@W4Call@QMetaObject@@HPEAPEAX@Z 00000001400948e0 f   moc_timecontroldlg.obj
 0001:00093910       ?metaObject@TimeControlDialog@@UEBAPEBUQMetaObject@@XZ 0000000140094910 f   moc_timecontroldlg.obj
 0001:00093930       ?qt_metacast@TimeControlDialog@@UEAAPEAXPEBD@Z 0000000140094930 f   moc_timecontroldlg.obj
 0001:00093980       ?qt_metacall@TimeControlDialog@@UEAAHW4Call@QMetaObject@@HPEAPEAX@Z 0000000140094980 f   moc_timecontroldlg.obj
 0001:00093a10       ?qt_static_metacall@TournamentResultsDialog@@CAXPEAVQObject@@W4Call@QMetaObject@@HPEAPEAX@Z 0000000140094a10 f   moc_tournamentresultsdlg.obj
 0001:00093a20       ?metaObject@TournamentResultsDialog@@UEBAPEBUQMetaObject@@XZ 0000000140094a20 f   moc_tournamentresultsdlg.obj
 0001:00093a40       ?qt_metacast@TournamentResultsDialog@@UEAAPEAXPEBD@Z 0000000140094a40 f   moc_tournamentresultsdlg.obj
 0001:00093a90       ?qt_metacall@TournamentResultsDialog@@UEAAHW4Call@QMetaObject@@HPEAPEAX@Z 0000000140094a90 f   moc_tournamentresultsdlg.obj
 0001:00093b00       ?metaObject@TournamentSettingsWidget@@UEBAPEBUQMetaObject@@XZ 0000000140094b00 f   moc_tournamentsettingswidget.obj
 0001:00093b20       ?qt_metacast@TournamentSettingsWidget@@UEAAPEAXPEBD@Z 0000000140094b20 f   moc_tournamentsettingswidget.obj
 0001:00093b70       ?qt_metacall@GameWallWidget@@UEAAHW4Call@QMetaObject@@HPEAPEAX@Z 0000000140094b70 f   gamewall.obj
 0001:00093b70       ?qt_metacall@TournamentSettingsWidget@@UEAAHW4Call@QMetaObject@@HPEAPEAX@Z 0000000140094b70 f   moc_tournamentsettingswidget.obj
 0001:00093b80       ?setupUi@Ui_GameDatabaseDialog@@QEAAXPEAVQDialog@@@Z 0000000140094b80 f i gamedatabasedlg.obj
 0001:00095120       ?retranslateUi@Ui_GameDatabaseDialog@@QEAAXPEAVQDialog@@@Z 0000000140096120 f i gamedatabasedlg.obj
 0001:00095600       ??_EQGridLayout@@UEAAPEAXI@Z 0000000140096600 f i * CIL library *:* CIL module *
 0001:00095600       ??_GQGridLayout@@UEAAPEAXI@Z 0000000140096600 f i gamedatabasedlg.obj
 0001:00095640       ??_EQSplitter@@UEAAPEAXI@Z 0000000140096640 f i * CIL library *:* CIL module *
 0001:00095640       ??_GQSplitter@@UEAAPEAXI@Z 0000000140096640 f i gamedatabasedlg.obj
 0001:00095680       ??_GQScrollArea@@UEAAPEAXI@Z 0000000140096680 f i gamedatabasedlg.obj
 0001:00095680       ??_EQScrollArea@@UEAAPEAXI@Z 0000000140096680 f i * CIL library *:* CIL module *
 0001:000956c0       ??0PgnGameIterator@@QEAA@PEBVGameDatabaseDialog@@@Z 00000001400966c0 f   gamedatabasedlg.obj
 0001:00095790       ?next@PgnGameIterator@@QEAA?AVPgnGame@@PEA_NH@Z 0000000140096790 f   gamedatabasedlg.obj
 0001:00095bb0       ??_EBookExportTask@@UEAAPEAXI@Z 0000000140096bb0 f i * CIL library *:* CIL module *
 0001:00095bb0       ??_GBookExportTask@@UEAAPEAXI@Z 0000000140096bb0 f i gamedatabasedlg.obj
 0001:00095c00       ?run@BookExportTask@@MEAAXXZ 0000000140096c00 f   gamedatabasedlg.obj
 0001:00095f00       ??1PolyglotBook@@UEAA@XZ   0000000140096f00 f i gamedatabasedlg.obj
 0001:00095f50       ??_GPgnGameIterator@@QEAAPEAXI@Z 0000000140096f50 f i gamedatabasedlg.obj
 0001:00095fb0       ??_EPgnExportTask@@UEAAPEAXI@Z 0000000140096fb0 f i * CIL library *:* CIL module *
 0001:00095fb0       ??_GPgnExportTask@@UEAAPEAXI@Z 0000000140096fb0 f i gamedatabasedlg.obj
 0001:00096000       ?run@PgnExportTask@@MEAAXXZ 0000000140097000 f   gamedatabasedlg.obj
 0001:000961f0       ??0GameDatabaseDialog@@QEAA@PEAVGameDatabaseManager@@PEAVQWidget@@@Z 00000001400971f0 f   gamedatabasedlg.obj
 0001:00096c80       ??_GGameDatabaseDialog@@UEAAPEAXI@Z 0000000140097c80 f i gamedatabasedlg.obj
 0001:00096c80       ??_EGameDatabaseDialog@@UEAAPEAXI@Z 0000000140097c80 f i * CIL library *:* CIL module *
 0001:00096d90       ?databaseSelectionChanged@GameDatabaseDialog@@AEAAXAEBVQItemSelection@@0@Z 0000000140097d90 f   gamedatabasedlg.obj
 0001:000971f0       ?gameSelectionChanged@GameDatabaseDialog@@AEAAXAEBVQModelIndex@@0@Z 00000001400981f0 f   gamedatabasedlg.obj
 0001:00097ab0       ?updateSearch@GameDatabaseDialog@@AEAAXAEBVQString@@@Z 0000000140098ab0 f   gamedatabasedlg.obj
 0001:00097b10       ?databaseIndexFromGame@GameDatabaseDialog@@AEBAHH@Z 0000000140098b10 f   gamedatabasedlg.obj
 0001:00097c00       ?exportPgn@GameDatabaseDialog@@AEAAXAEBVQString@@@Z 0000000140098c00 f   gamedatabasedlg.obj
 0001:00097e80       ??_GQFile@@UEAAPEAXI@Z     0000000140098e80 f i gamedatabasedlg.obj
 0001:00097e80       ??_EQFile@@UEAAPEAXI@Z     0000000140098e80 f i * CIL library *:* CIL module *
 0001:00097ec0       ?createOpeningBook@GameDatabaseDialog@@AEAAXXZ 0000000140098ec0 f   gamedatabasedlg.obj
 0001:00098260       ?metaObject@BookExportTask@@UEBAPEBUQMetaObject@@XZ 0000000140099260 f   gamedatabasedlg.obj
 0001:00098280       ?qt_metacast@BookExportTask@@UEAAPEAXPEBD@Z 0000000140099280 f   gamedatabasedlg.obj
 0001:00098300       ?qt_metacall@BookExportTask@@UEAAHW4Call@QMetaObject@@HPEAPEAX@Z 0000000140099300 f   gamedatabasedlg.obj
 0001:00098300       ?qt_metacall@PgnExportTask@@UEAAHW4Call@QMetaObject@@HPEAPEAX@Z 0000000140099300 f   gamedatabasedlg.obj
 0001:00098310       ?metaObject@PgnExportTask@@UEBAPEBUQMetaObject@@XZ 0000000140099310 f   gamedatabasedlg.obj
 0001:00098330       ?qt_metacast@PgnExportTask@@UEAAPEAXPEBD@Z 0000000140099330 f   gamedatabasedlg.obj
 0001:000983b0       ?detach@?$QMap@HPEAVPgnDatabase@@@@QEAAXXZ 00000001400993b0 f i gamedatabasedlg.obj
 0001:00098950       ?impl@?$QSlotObject@P8GameDatabaseManager@@EAAXAEBVQString@@@ZU?$List@AEBVQString@@@QtPrivate@@X@QtPrivate@@CAXHPEAVQSlotObjectBase@2@PEAVQObject@@PEAPEAXPEA_N@Z 0000000140099950 f i gamedatabasedlg.obj
 0001:000989a0       ?createNode@?$QMapData@HPEAVPgnDatabase@@@@QEAAPEAU?$QMapNode@HPEAVPgnDatabase@@@@AEBHAEBQEAVPgnDatabase@@PEAU2@_N@Z 00000001400999a0 f i gamedatabasedlg.obj
 0001:000989e0       ?copy@?$QMapNode@HPEAVPgnDatabase@@@@QEBAPEAU1@PEAU?$QMapData@HPEAVPgnDatabase@@@@@Z 00000001400999e0 f i gamedatabasedlg.obj
 0001:00098a9c       ??_EQSplitter@@WBA@EAAPEAXI@Z 0000000140099a9c f i gamedatabasedlg.obj
 0001:00098aa8       ??_EGameDatabaseDialog@@WBA@EAAPEAXI@Z 0000000140099aa8 f i gamedatabasedlg.obj
 0001:00098ab4       ??_EQGridLayout@@WBA@EAAPEAXI@Z 0000000140099ab4 f i gamedatabasedlg.obj
 0001:00098ac0       ??_EQScrollArea@@WBA@EAAPEAXI@Z 0000000140099ac0 f i gamedatabasedlg.obj
 0001:00098ad0       ??0GameWallWidget@@QEAA@PEAVQWidget@@@Z 0000000140099ad0 f   gamewall.obj
 0001:00098d30       ??_GGameWallWidget@@UEAAPEAXI@Z 0000000140099d30 f i gamewall.obj
 0001:00098d30       ??_EGameWallWidget@@UEAAPEAXI@Z 0000000140099d30 f i * CIL library *:* CIL module *
 0001:00098da0       ?setGame@GameWallWidget@@QEAAXPEAVChessGame@@@Z 0000000140099da0 f   gamewall.obj
 0001:00099280       ??0GameWall@@QEAA@PEAVGameManager@@PEAVQWidget@@@Z 000000014009a280 f   gamewall.obj
 0001:00099470       ??_GGameWall@@UEAAPEAXI@Z  000000014009a470 f i gamewall.obj
 0001:00099470       ??_EGameWall@@UEAAPEAXI@Z  000000014009a470 f i * CIL library *:* CIL module *
 0001:00099520       ?getFreeWidget@GameWall@@AEAAPEAVGameWallWidget@@XZ 000000014009a520 f   gamewall.obj
 0001:000996c0       ?addGame@GameWall@@QEAAXPEAVChessGame@@@Z 000000014009a6c0 f   gamewall.obj
 0001:00099810       ?metaObject@GameWallWidget@@UEBAPEBUQMetaObject@@XZ 000000014009a810 f   gamewall.obj
 0001:00099830       ?qt_metacast@GameWallWidget@@UEAAPEAXPEBD@Z 000000014009a830 f   gamewall.obj
 0001:00099880       ?detach@?$QMap@PEAVChessGame@@PEAUGameData@Tournament@@@@QEAAXXZ 000000014009a880 f i cutechess:tournament.obj
 0001:00099880       ?detach@?$QMap@U?$QPair@HH@@PEAVTournamentPair@@@@QEAAXXZ 000000014009a880 f i cutechess:tournament.obj
 0001:00099880       ?detach@?$QMap@PEAVChessGame@@PEAVGameWallWidget@@@@QEAAXXZ 000000014009a880 f i gamewall.obj
 0001:0009992c       ??_EGameWallWidget@@WBA@EAAPEAXI@Z 000000014009a92c f i gamewall.obj
 0001:00099938       ??_EGameWall@@WBA@EAAPEAXI@Z 000000014009a938 f i gamewall.obj
 0001:00099950       ?registry@BoardFactory@Chess@@SAPEAV?$ClassRegistry@VBoard@Chess@@@@XZ 000000014009a950 f   cutechess:boardfactory.obj
 0001:000999d0       ?create@BoardFactory@Chess@@SAPEAVBoard@2@AEBVQString@@@Z 000000014009a9d0 f   cutechess:boardfactory.obj
 0001:00099a20       ?variants@BoardFactory@Chess@@SA?AVQStringList@@XZ 000000014009aa20 f   cutechess:boardfactory.obj
 0001:00099b50       ?destroy@?$QMapData@VQString@@P6APEAVBoard@Chess@@XZ@@QEAAXXZ 000000014009ab50 f i cutechess:boardfactory.obj
 0001:00099b50       ?destroy@?$QMapData@VQString@@P6APEAVChessEngine@@XZ@@QEAAXXZ 000000014009ab50 f i cutechess:enginefactory.obj
 0001:00099b50       ?destroy@?$QMapData@VQString@@PEAVEcoNode@@@@QEAAXXZ 000000014009ab50 f i cutechess:econode.obj
 0001:00099bc0       ?destroySubTree@?$QMapNode@VQString@@P6APEAVChessEngine@@XZ@@QEAAXXZ 000000014009abc0 f i cutechess:enginefactory.obj
 0001:00099bc0       ?destroySubTree@?$QMapNode@VQString@@P6APEAVBoard@Chess@@XZ@@QEAAXXZ 000000014009abc0 f i cutechess:boardfactory.obj
 0001:00099bc0       ?destroySubTree@?$QMapNode@VQString@@PEAVEcoNode@@@@QEAAXXZ 000000014009abc0 f i cutechess:econode.obj
 0001:00099c00       ??A?$QMap@VQString@@P6APEAVBoard@Chess@@XZ@@QEAAAEAP6APEAVBoard@Chess@@XZAEBVQString@@@Z 000000014009ac00 f i cutechess:boardfactory.obj
 0001:00099c00       ??A?$QMap@VQString@@P6APEAVChessEngine@@XZ@@QEAAAEAP6APEAVChessEngine@@XZAEBVQString@@@Z 000000014009ac00 f i cutechess:enginefactory.obj
 0001:00099cf0       ??$factory@VStandardBoard@Chess@@@?$ClassRegistry@VBoard@Chess@@@@SAPEAVBoard@Chess@@XZ 000000014009acf0 f i cutechess:boardfactory.obj
 0001:00099d70       ?detach@?$QMap@VQString@@P6APEAVBoard@Chess@@XZ@@QEAAXXZ 000000014009ad70 f i cutechess:boardfactory.obj
 0001:00099d70       ?detach@?$QMap@VQString@@P6APEAVChessEngine@@XZ@@QEAAXXZ 000000014009ad70 f i cutechess:enginefactory.obj
 0001:00099d70       ?detach@?$QMap@VQString@@PEAVEcoNode@@@@QEAAXXZ 000000014009ad70 f i cutechess:econode.obj
 0001:00099df0       ?createNode@?$QMapData@VQString@@P6APEAVBoard@Chess@@XZ@@QEAAPEAU?$QMapNode@VQString@@P6APEAVBoard@Chess@@XZ@@AEBVQString@@AEBQ6APEAVBoard@Chess@@XZPEAU2@_N@Z 000000014009adf0 f i cutechess:boardfactory.obj
 0001:00099df0       ?createNode@?$QMapData@VQString@@PEAVEcoNode@@@@QEAAPEAU?$QMapNode@VQString@@PEAVEcoNode@@@@AEBVQString@@AEBQEAVEcoNode@@PEAU2@_N@Z 000000014009adf0 f i cutechess:econode.obj
 0001:00099df0       ?createNode@?$QMapData@VQString@@P6APEAVChessEngine@@XZ@@QEAAPEAU?$QMapNode@VQString@@P6APEAVChessEngine@@XZ@@AEBVQString@@AEBQ6APEAVChessEngine@@XZPEAU2@_N@Z 000000014009adf0 f i cutechess:enginefactory.obj
 0001:00099e50       ?copy@?$QMapNode@VQString@@PEAVEcoNode@@@@QEBAPEAU1@PEAU?$QMapData@VQString@@PEAVEcoNode@@@@@Z 000000014009ae50 f i cutechess:econode.obj
 0001:00099e50       ?copy@?$QMapNode@VQString@@P6APEAVBoard@Chess@@XZ@@QEBAPEAU1@PEAU?$QMapData@VQString@@P6APEAVBoard@Chess@@XZ@@@Z 000000014009ae50 f i cutechess:boardfactory.obj
 0001:00099e50       ?copy@?$QMapNode@VQString@@P6APEAVChessEngine@@XZ@@QEBAPEAU1@PEAU?$QMapData@VQString@@P6APEAVChessEngine@@XZ@@@Z 000000014009ae50 f i cutechess:enginefactory.obj
 0001:00099f10       ??0Move@Chess@@QEAA@HH@Z   000000014009af10 f i cutechess:board.obj
 0001:00099f80       ??0Board@Chess@@QEAA@PEAVZobrist@1@@Z 000000014009af80 f   cutechess:board.obj
 0001:0009a0e0       ??_EBoard@Chess@@UEAAPEAXI@Z 000000014009b0e0 f i * CIL library *:* CIL module *
 0001:0009a0e0       ??_GBoard@Chess@@UEAAPEAXI@Z 000000014009b0e0 f i cutechess:board.obj
 0001:0009a120       ??1Board@Chess@@UEAA@XZ    000000014009b120 f   cutechess:board.obj
 0001:0009a200       ?upperCaseSide@Board@Chess@@UEBA?AVSide@2@XZ 000000014009b200 f   cutechess:board.obj
 0001:0009a210       ?setPieceType@Board@Chess@@IEAAXHAEBVQString@@00@Z 000000014009b210 f   cutechess:board.obj
 0001:0009a320       ?reserveType@Board@Chess@@MEBAHH@Z 000000014009b320 f   cutechess:board.obj
 0001:0009a330       ?chessSquare@Board@Chess@@IEBA?AVSquare@2@AEBVQString@@@Z 000000014009b330 f   cutechess:board.obj
 0001:0009a410       ?lanMoveString@Board@Chess@@MEAA?AVQString@@AEBVMove@2@@Z 000000014009b410 f   cutechess:board.obj
 0001:0009a5b0       ?moveFromEnglishString@Board@Chess@@MEAA?AVMove@2@AEBVQString@@@Z 000000014009b5b0 f   cutechess:board.obj
 0001:0009a7a0       ?moveFromString@Board@Chess@@QEAA?AVMove@2@AEBVQString@@@Z 000000014009b7a0 f   cutechess:board.obj
 0001:0009a910       ?moveFromGenericMove@Board@Chess@@QEBA?AVMove@2@AEBVGenericMove@2@@Z 000000014009b910 f   cutechess:board.obj
 0001:0009a9c0       ?fenString@Board@Chess@@QEBA?AVQString@@W4FenNotation@12@@Z 000000014009b9c0 f   cutechess:board.obj
 0001:0009ad20       ?setFenString@Board@Chess@@QEAA_NAEBVQString@@@Z 000000014009bd20 f   cutechess:board.obj
 0001:0009b600       ?makeMove@Board@Chess@@QEAAXAEBVMove@2@PEAVBoardTransition@2@@Z 000000014009c600 f   cutechess:board.obj
 0001:0009b730       ?undoMove@Board@Chess@@QEAAXXZ 000000014009c730 f   cutechess:board.obj
 0001:0009b8d0       ?generateMoves@Board@Chess@@IEBAXAEAV?$QVarLengthArray@VMove@Chess@@$0BAA@@@H@Z 000000014009c8d0 f   cutechess:board.obj
 0001:0009b9b0       ?captureType@Board@Chess@@MEBAHAEBVMove@2@@Z 000000014009c9b0 f   cutechess:board.obj
 0001:0009ba80       ?vIsBan@Board@Chess@@MEAA_NAEBVMove@2@@Z 000000014009ca80 f   cutechess:board.obj
 0001:0009bb40       ?vIsLegalMove@Board@Chess@@MEAA_NAEBVMove@2@@Z 000000014009cb40 f   cutechess:board.obj
 0001:0009bc10       ?isLegalMove@Board@Chess@@QEAA_NAEBVMove@2@@Z 000000014009cc10 f   cutechess:board.obj
 0001:0009bd50       ?repeatCount@Board@Chess@@QEBAHXZ 000000014009cd50 f   cutechess:board.obj
 0001:0009be20       ?reversibleMoveCount@Board@Chess@@UEBAHXZ 000000014009ce20 f   cutechess:board.obj
 0001:0009be30       ?legalMoves@Board@Chess@@QEAA?AV?$QVector@VMove@Chess@@@@XZ 000000014009ce30 f   cutechess:board.obj
 0001:0009c020       ?tablebaseResult@Board@Chess@@UEBA?AVResult@2@PEAI@Z 000000014009d020 f   cutechess:board.obj
 0001:0009c020       ?tablebaseResult@StandardBoard@Chess@@UEBA?AVResult@2@PEAI@Z 000000014009d020 f   cutechess:standardboard.obj
 0001:0009c070       ??1?$QVarLengthArray@VQStringRef@@$0BAA@@@QEAA@XZ 000000014009d070 f i cutechess:uciengine.obj
 0001:0009c070       ??1?$QVarLengthArray@H$0BAA@@@QEAA@XZ 000000014009d070 f i cutechess:standardboard.obj
 0001:0009c070       ??1?$QVarLengthArray@VPiece@Chess@@$0BAA@@@QEAA@XZ 000000014009d070 f i cutechess:board.obj
 0001:0009c070       ??1?$QVarLengthArray@VMove@Chess@@$0BAA@@@QEAA@XZ 000000014009d070 f i cutechess:board.obj
 0001:0009c090       ??A?$QVarLengthArray@UPieceData@Board@Chess@@$0BAA@@@QEBAAEBUPieceData@Board@Chess@@H@Z 000000014009d090 f i cutechess:board.obj
 0001:0009c0e0       ??1?$QVarLengthArray@UPieceData@Board@Chess@@$0BAA@@@QEAA@XZ 000000014009d0e0 f i cutechess:board.obj
 0001:0009c150       ?erase@?$QList@VQString@@@@QEAA?AViterator@1@V21@0@Z 000000014009d150 f i cutechess:board.obj
 0001:0009c330       ?append@?$QVector@VMove@Chess@@@@QEAAXAEBVMove@Chess@@@Z 000000014009d330 f i cutechess:board.obj
 0001:0009c3d0       ?realloc@?$QVarLengthArray@VMove@Chess@@$0BAA@@@AEAAXHH@Z 000000014009d3d0 f i cutechess:board.obj
 0001:0009c510       ?realloc@?$QVarLengthArray@VPiece@Chess@@$0BAA@@@AEAAXHH@Z 000000014009d510 f i cutechess:board.obj
 0001:0009c650       ?realloc@?$QVector@VMove@Chess@@@@AEAAXHV?$QFlags@W4AllocationOption@QArrayData@@@@@Z 000000014009d650 f i cutechess:board.obj
 0001:0009c900       ?realloc@?$QVarLengthArray@UPieceData@Board@Chess@@$0BAA@@@AEAAXHH@Z 000000014009d900 f i cutechess:board.obj
 0001:0009cb90       ??0PgnGame@@QEAA@XZ        000000014009db90 f   cutechess:pgngame.obj
 0001:0009cc00       ?tags@PgnGame@@QEBA?AV?$QList@U?$QPair@VQString@@V1@@@@@XZ 000000014009dc00 f   cutechess:pgngame.obj
 0001:0009d010       ?addMove@PgnGame@@QEAAXAEBUMoveData@1@_N@Z 000000014009e010 f   cutechess:pgngame.obj
 0001:0009d3e0       ?createBoard@PgnGame@@QEBAPEAVBoard@Chess@@XZ 000000014009e3e0 f   cutechess:pgngame.obj
 0001:0009d4d0       ?parseMove@PgnGame@@AEAA_NAEAVPgnStream@@_N@Z 000000014009e4d0 f   cutechess:pgngame.obj
 0001:0009da10       ?read@PgnGame@@QEAA_NAEAVPgnStream@@H_N@Z 000000014009ea10 f   cutechess:pgngame.obj
 0001:0009dfd0       ?write@PgnGame@@QEBA_NAEAVQTextStream@@W4PgnMode@1@@Z 000000014009efd0 f   cutechess:pgngame.obj
 0001:0009ebd0       ?bh54_write@PgnGame@@QEBA_NAEAVQTextStream@@W4PgnMode@1@@Z 000000014009fbd0 f   cutechess:pgngame.obj
 0001:0009f2a0       ?write@PgnGame@@QEBA_NAEBVQString@@W4PgnMode@1@@Z 00000001400a02a0 f   cutechess:pgngame.obj
 0001:0009f320       ?playerName@PgnGame@@QEBA?AVQString@@VSide@Chess@@@Z 00000001400a0320 f   cutechess:pgngame.obj
 0001:0009f4b0       ?result@PgnGame@@QEBA?AVResult@Chess@@XZ 00000001400a04b0 f   cutechess:pgngame.obj
 0001:0009f5a0       ?variant@PgnGame@@QEBA?AVQString@@XZ 00000001400a05a0 f   cutechess:pgngame.obj
 0001:0009f7c0       ?startingFenString@PgnGame@@QEBA?AVQString@@XZ 00000001400a07c0 f   cutechess:pgngame.obj
 0001:0009f890       ?setTag@PgnGame@@QEAAXAEBVQString@@0@Z 00000001400a0890 f   cutechess:pgngame.obj
 0001:0009fb30       ?setSite@PgnGame@@QEAAXAEBVQString@@@Z 00000001400a0b30 f   cutechess:pgngame.obj
 0001:0009fb80       ?setResult@PgnGame@@QEAAXAEBVResult@Chess@@@Z 00000001400a0b80 f   cutechess:pgngame.obj
 0001:0009fe60       ?setStartingFenString@PgnGame@@QEAAXVSide@Chess@@AEBVQString@@@Z 00000001400a0e60 f   cutechess:pgngame.obj
 0001:0009ffa0       ?extractScores@PgnGame@@QEBA?AV?$QMap@HH@@XZ 00000001400a0fa0 f   cutechess:pgngame.obj
 0001:000a02b0       ??0?$QList@VQString@@@@QEAA@AEBV0@@Z 00000001400a12b0 f i cutechess:pgngame.obj
 0001:000a0340       ?detach@?$QVector@UMoveData@PgnGame@@@@QEAAXXZ 00000001400a1340 f i cutechess:pgngame.obj
 0001:000a03c0       ??A?$QMap@HH@@QEAAAEAHAEBH@Z 00000001400a13c0 f i cutechess:pgngame.obj
 0001:000a04a0       ?detach@?$QMap@HH@@QEAAXXZ 00000001400a14a0 f i cutechess:pgngame.obj
 0001:000a0550       ?detach@?$QMap@VQString@@V1@@@QEAAXXZ 00000001400a1550 f i cutechess:pgngame.obj
 0001:000a05d0       ?realloc@?$QVector@UMoveData@PgnGame@@@@AEAAXHV?$QFlags@W4AllocationOption@QArrayData@@@@@Z 00000001400a15d0 f i cutechess:pgngame.obj
 0001:000a08b0       ?createNode@?$QMapData@VQString@@V1@@@QEAAPEAU?$QMapNode@VQString@@V1@@@AEBVQString@@0PEAU2@_N@Z 00000001400a18b0 f i cutechess:pgngame.obj
 0001:000a0910       ?createNode@?$QMapData@HH@@QEAAPEAU?$QMapNode@HH@@AEBH0PEAU2@_N@Z 00000001400a1910 f i cutechess:pgngame.obj
 0001:000a0950       ?copy@?$QMapNode@VQString@@V1@@@QEBAPEAU1@PEAU?$QMapData@VQString@@V1@@@@Z 00000001400a1950 f i cutechess:pgngame.obj
 0001:000a0a10       ?copy@?$QMapNode@HH@@QEBAPEAU1@PEAU?$QMapData@HH@@@Z 00000001400a1a10 f i cutechess:pgngame.obj
 0001:000a0ad0       ?clear@BoardTransition@Chess@@QEAAXXZ 00000001400a1ad0 f   cutechess:boardtransition.obj
 0001:000a0c80       ??0Result@Chess@@QEAA@AEBVQString@@@Z 00000001400a1c80 f   cutechess:result.obj
 0001:000a0e40       ?description@Result@Chess@@QEBA?AVQString@@XZ 00000001400a1e40 f   cutechess:result.obj
 0001:000a1550       ?toVerboseString@Result@Chess@@QEBA?AVQString@@XZ 00000001400a2550 f   cutechess:result.obj
 0001:000a1840       ??0TimeControl@@QEAA@AEBVQString@@@Z 00000001400a2840 f   cutechess:timecontrol.obj
 0001:000a1d50       ?toString@TimeControl@@QEBA?AVQString@@XZ 00000001400a2d50 f   cutechess:timecontrol.obj
 0001:000a2000       ?toVerboseString@TimeControl@@QEBA?AVQString@@XZ 00000001400a3000 f   cutechess:timecontrol.obj
 0001:000a25a0       ?setTimePerTc@TimeControl@@QEAAXH@Z 00000001400a35a0 f   cutechess:timecontrol.obj
 0001:000a25f0       ?setMovesPerTc@TimeControl@@QEAAXH@Z 00000001400a35f0 f   cutechess:timecontrol.obj
 0001:000a2640       ?setTimeIncrement@TimeControl@@QEAAXH@Z 00000001400a3640 f   cutechess:timecontrol.obj
 0001:000a2690       ?setMovesLeft@TimeControl@@QEAAXH@Z 00000001400a3690 f   cutechess:timecontrol.obj
 0001:000a26e0       ?update@TimeControl@@QEAAX_N@Z 00000001400a36e0 f   cutechess:timecontrol.obj
 0001:000a27b0       ?readSettings@TimeControl@@QEAAXPEAVQSettings@@@Z 00000001400a37b0 f   cutechess:timecontrol.obj
 0001:000a2b30       ?writeSettings@TimeControl@@QEAAXPEAVQSettings@@@Z 00000001400a3b30 f   cutechess:timecontrol.obj
 0001:000a2dc0       ?random@Mersenne@@SAIXZ    00000001400a3dc0 f   cutechess:mersenne.obj
 0001:000a2f60       ??_GEngineManager@@UEAAPEAXI@Z 00000001400a3f60 f i cutechess:enginemanager.obj
 0001:000a2f60       ??_EEngineManager@@UEAAPEAXI@Z 00000001400a3f60 f i * CIL library *:* CIL module *
 0001:000a2fd0       ?engineAt@EngineManager@@QEBA?AVEngineConfiguration@@H@Z 00000001400a3fd0 f   cutechess:enginemanager.obj
 0001:000a3050       ?updateEngineAt@EngineManager@@QEAAXHAEBVEngineConfiguration@@@Z 00000001400a4050 f   cutechess:enginemanager.obj
 0001:000a3200       ?removeEngineAt@EngineManager@@QEAAXH@Z 00000001400a4200 f   cutechess:enginemanager.obj
 0001:000a32c0       ?loadEngines@EngineManager@@QEAAXAEBVQString@@@Z 00000001400a42c0 f   cutechess:enginemanager.obj
 0001:000a3690       ?saveEngines@EngineManager@@QEAAXAEBVQString@@@Z 00000001400a4690 f   cutechess:enginemanager.obj
 0001:000a38a0       ??1JsonSerializer@@QEAA@XZ 00000001400a48a0 f i cutechess:enginemanager.obj
 0001:000a38d0       ?engineNames@EngineManager@@QEBA?AV?$QSet@VQString@@@@XZ 00000001400a48d0 f   cutechess:enginemanager.obj
 0001:000a3a00       ??0?$QList@VEngineConfiguration@@@@QEAA@AEBV0@@Z 00000001400a4a00 f i cutechess:enginemanager.obj
 0001:000a3a90       ?append@?$QList@VEngineConfiguration@@@@QEAAXAEBVEngineConfiguration@@@Z 00000001400a4a90 f i cutechess:enginemanager.obj
 0001:000a3b10       ?detach_helper_grow@?$QList@VEngineConfiguration@@@@AEAAPEAUNode@1@HH@Z 00000001400a4b10 f i cutechess:enginemanager.obj
 0001:000a3bf0       ?node_copy@?$QList@VEngineConfiguration@@@@AEAAXPEAUNode@1@00@Z 00000001400a4bf0 f i cutechess:enginemanager.obj
 0001:000a3c50       ?detach_helper@?$QList@VEngineConfiguration@@@@AEAAXH@Z 00000001400a4c50 f i cutechess:enginemanager.obj
 0001:000a3f30       ??0ChessGame@@QEAA@PEAVBoard@Chess@@PEAVPgnGame@@PEAVQObject@@@Z 00000001400a4f30 f   cutechess:chessgame.obj
 0001:000a40e0       ??_GChessGame@@UEAAPEAXI@Z 00000001400a50e0 f i cutechess:chessgame.obj
 0001:000a40e0       ??_EChessGame@@UEAAPEAXI@Z 00000001400a50e0 f i * CIL library *:* CIL module *
 0001:000a4120       ??1ChessGame@@UEAA@XZ      00000001400a5120 f   cutechess:chessgame.obj
 0001:000a4290       ?playerToMove@ChessGame@@QEBAPEAVChessPlayer@@XZ 00000001400a5290 f   cutechess:chessgame.obj
 0001:000a42b0       ?stop@ChessGame@@QEAAX_N@Z 00000001400a52b0 f   cutechess:chessgame.obj
 0001:000a46a0       ?finish@ChessGame@@AEAAXXZ 00000001400a56a0 f   cutechess:chessgame.obj
 0001:000a47c0       ?addPgnMove@ChessGame@@AEAAXAEBVMove@Chess@@AEBVQString@@@Z 00000001400a57c0 f   cutechess:chessgame.obj
 0001:000a48f0       ?emitLastMove@ChessGame@@AEAAXXZ 00000001400a58f0 f   cutechess:chessgame.obj
 0001:000a4a20       ?onMoveMade@ChessGame@@QEAAXAEBVMove@Chess@@@Z 00000001400a5a20 f   cutechess:chessgame.obj
 0001:000a4d00       ?startTurn@ChessGame@@AEAAXXZ 00000001400a5d00 f   cutechess:chessgame.obj
 0001:000a4e40       ?onResultClaim@ChessGame@@AEAAXAEBVResult@Chess@@@Z 00000001400a5e40 f   cutechess:chessgame.obj
 0001:000a5140       ?bookMove@ChessGame@@AEAA?AVMove@Chess@@VSide@3@@Z 00000001400a6140 f   cutechess:chessgame.obj
 0001:000a5450       ?setStartingFen@ChessGame@@QEAAXAEBVQString@@@Z 00000001400a6450 f   cutechess:chessgame.obj
 0001:000a57a0       ?setMoves@ChessGame@@QEAA_NAEBVPgnGame@@@Z 00000001400a67a0 f   cutechess:chessgame.obj
 0001:000a5a40       ?setOpeningBook@ChessGame@@QEAAXPEBVOpeningBook@@VSide@Chess@@H@Z 00000001400a6a40 f   cutechess:chessgame.obj
 0001:000a5ad0       ??4GameAdjudicator@@QEAAAEAV0@AEBV0@@Z 00000001400a6ad0 f i cutechess:chessgame.obj
 0001:000a5b50       ?generateOpening@ChessGame@@QEAAXXZ 00000001400a6b50 f   cutechess:chessgame.obj
 0001:000a5d40       ?emitStartFailed@ChessGame@@QEAAXXZ 00000001400a6d40 f   cutechess:chessgame.obj
 0001:000a5d80       ?lockThread@ChessGame@@QEAAXXZ 00000001400a6d80 f   cutechess:chessgame.obj
 0001:000a5ec0       ?resetBoard@ChessGame@@AEAA_NXZ 00000001400a6ec0 f   cutechess:chessgame.obj
 0001:000a6020       ?syncPlayers@ChessGame@@AEAAXXZ 00000001400a7020 f   cutechess:chessgame.obj
 0001:000a6180       ?start@ChessGame@@QEAAXXZ  00000001400a7180 f   cutechess:chessgame.obj
 0001:000a6450       ?initializePgn@ChessGame@@AEAAXXZ 00000001400a7450 f   cutechess:chessgame.obj
 0001:000a6780       ?startGame@ChessGame@@AEAAXXZ 00000001400a7780 f   cutechess:chessgame.obj
 0001:000a7100       ?clear@?$QMap@HH@@QEAAXXZ  00000001400a8100 f i cutechess:chessgame.obj
 0001:000a71b0       ??4?$QVector@VMove@Chess@@@@QEAAAEAV0@AEBV0@@Z 00000001400a81b0 f i cutechess:chessgame.obj
 0001:000a7300       ?clear@?$QVector@VMove@Chess@@@@QEAAXXZ 00000001400a8300 f i cutechess:chessgame.obj
 0001:000a7350       ?detach@?$QVector@VMove@Chess@@@@QEAAXXZ 00000001400a8350 f i cutechess:chessgame.obj
 0001:000a73d0       ??0HumanBuilder@@QEAA@AEBVQString@@_N@Z 00000001400a83d0 f   cutechess:humanbuilder.obj
 0001:000a7420       ??_EHumanBuilder@@UEAAPEAXI@Z 00000001400a8420 f i * CIL library *:* CIL module *
 0001:000a7420       ??_GHumanBuilder@@UEAAPEAXI@Z 00000001400a8420 f i cutechess:humanbuilder.obj
 0001:000a7470       ?create@HumanBuilder@@UEBAPEAVChessPlayer@@PEAVQObject@@PEBD0PEAVQString@@@Z 00000001400a8470 f   cutechess:humanbuilder.obj
 0001:000a7640       ??_EGameInitializer@@UEAAPEAXI@Z 00000001400a8640 f i * CIL library *:* CIL module *
 0001:000a7640       ??_GGameInitializer@@UEAAPEAXI@Z 00000001400a8640 f i cutechess:gamemanager.obj
 0001:000a76d0       ?deletePlayer@GameInitializer@@AEAAXH@Z 00000001400a86d0 f   cutechess:gamemanager.obj
 0001:000a7770       ?initializeGame@GameInitializer@@QEAAXXZ 00000001400a8770 f   cutechess:gamemanager.obj
 0001:000a7990       ??_EGameThread@@UEAAPEAXI@Z 00000001400a8990 f i * CIL library *:* CIL module *
 0001:000a7990       ??_GGameThread@@UEAAPEAXI@Z 00000001400a8990 f i cutechess:gamemanager.obj
 0001:000a79d0       ?finish@GameThread@@QEAAXXZ 00000001400a89d0 f   cutechess:gamemanager.obj
 0001:000a7b20       ?finishAndDelete@GameThread@@QEAAXXZ 00000001400a8b20 f   cutechess:gamemanager.obj
 0001:000a7b90       ??_GGameManager@@UEAAPEAXI@Z 00000001400a8b90 f i cutechess:gamemanager.obj
 0001:000a7b90       ??_EGameManager@@UEAAPEAXI@Z 00000001400a8b90 f i * CIL library *:* CIL module *
 0001:000a7c90       ?cleanupIdleThreads@GameManager@@QEAAXXZ 00000001400a8c90 f   cutechess:gamemanager.obj
 0001:000a7e50       ?cleanup@GameManager@@AEAAXXZ 00000001400a8e50 f   cutechess:gamemanager.obj
 0001:000a80e0       ?finish@GameManager@@QEAAXXZ 00000001400a90e0 f   cutechess:gamemanager.obj
 0001:000a81f0       ?onThreadReady@GameManager@@AEAAXXZ 00000001400a91f0 f   cutechess:gamemanager.obj
 0001:000a83a0       ?onGameInitialized@GameManager@@AEAAX_N@Z 00000001400a93a0 f   cutechess:gamemanager.obj
 0001:000a85f0       ?getThread@GameManager@@AEAAPEAVGameThread@@PEBVPlayerBuilder@@0@Z 00000001400a95f0 f   cutechess:gamemanager.obj
 0001:000a89a0       ?startGame@GameManager@@AEAAXAEBUGameEntry@1@@Z 00000001400a99a0 f   cutechess:gamemanager.obj
 0001:000a8b60       ?startQueuedGame@GameManager@@AEAAXXZ 00000001400a9b60 f   cutechess:gamemanager.obj
 0001:000a8d30       ?qt_static_metacall@GameInitializer@@CAXPEAVQObject@@W4Call@QMetaObject@@HPEAPEAX@Z 00000001400a9d30 f   cutechess:gamemanager.obj
 0001:000a8ea0       ?metaObject@GameInitializer@@UEBAPEBUQMetaObject@@XZ 00000001400a9ea0 f   cutechess:gamemanager.obj
 0001:000a8ec0       ?qt_metacast@GameInitializer@@UEAAPEAXPEBD@Z 00000001400a9ec0 f   cutechess:gamemanager.obj
 0001:000a8f10       ?qt_metacall@GameInitializer@@UEAAHW4Call@QMetaObject@@HPEAPEAX@Z 00000001400a9f10 f   cutechess:gamemanager.obj
 0001:000a8f80       ?gameInitialized@GameInitializer@@QEAAX_N@Z 00000001400a9f80 f   cutechess:gamemanager.obj
 0001:000a8fc0       ?finished@GameInitializer@@QEAAXXZ 00000001400a9fc0 f   cutechess:gamemanager.obj
 0001:000a8fe0       ?qt_static_metacall@GameThread@@CAXPEAVQObject@@W4Call@QMetaObject@@HPEAPEAX@Z 00000001400a9fe0 f   cutechess:gamemanager.obj
 0001:000a90a0       ?metaObject@GameThread@@UEBAPEBUQMetaObject@@XZ 00000001400aa0a0 f   cutechess:gamemanager.obj
 0001:000a90c0       ?qt_metacast@GameThread@@UEAAPEAXPEBD@Z 00000001400aa0c0 f   cutechess:gamemanager.obj
 0001:000a9110       ?qt_metacall@GameThread@@UEAAHW4Call@QMetaObject@@HPEAPEAX@Z 00000001400aa110 f   cutechess:gamemanager.obj
 0001:000a9180       ?gameInitialized@GameThread@@QEAAX_N@Z 00000001400aa180 f   cutechess:gamemanager.obj
 0001:000a91c0       ?ready@GameThread@@QEAAXXZ 00000001400aa1c0 f   cutechess:gamemanager.obj
 0001:000a91e0       ?removeAll@?$QList@V?$QPointer@VGameThread@@@@@@QEAAHAEBV?$QPointer@VGameThread@@@@@Z 00000001400aa1e0 f i cutechess:gamemanager.obj
 0001:000a9380       ?removeOne@?$QList@V?$QPointer@VGameThread@@@@@@QEAA_NAEBV?$QPointer@VGameThread@@@@@Z 00000001400aa380 f i cutechess:gamemanager.obj
 0001:000a9440       ?removeOne@?$QList@PEAVGameThread@@@@QEAA_NAEBQEAVGameThread@@@Z 00000001400aa440 f i cutechess:gamemanager.obj
 0001:000a94f0       ?indexOf@?$QList@V?$QPointer@VGameThread@@@@@@QEBAHAEBV?$QPointer@VGameThread@@@@H@Z 00000001400aa4f0 f i cutechess:gamemanager.obj
 0001:000a95a0       ??0ChessPlayer@@QEAA@PEAVQObject@@@Z 00000001400aa5a0 f   cutechess:chessplayer.obj
 0001:000a9720       ??_EChessPlayer@@UEAAPEAXI@Z 00000001400aa720 f i * CIL library *:* CIL module *
 0001:000a9720       ??_GChessPlayer@@UEAAPEAXI@Z 00000001400aa720 f i cutechess:chessplayer.obj
 0001:000a9790       ??1ChessPlayer@@UEAA@XZ    00000001400aa790 f   cutechess:chessplayer.obj
 0001:000a97e0       ?isReady@ChessPlayer@@UEBA_NXZ 00000001400aa7e0 f   cutechess:chessplayer.obj
 0001:000a9800       ?endGame@ChessPlayer@@UEAAXAEBVResult@Chess@@@Z 00000001400aa800 f   cutechess:chessplayer.obj
 0001:000a98c0       ?go@ChessPlayer@@UEAAXXZ   00000001400aa8c0 f   cutechess:chessplayer.obj
 0001:000a9ac0       ?quit@ChessPlayer@@UEAAXXZ 00000001400aaac0 f   cutechess:chessplayer.obj
 0001:000a9ac0       ?kill@ChessPlayer@@UEAAXXZ 00000001400aaac0 f   cutechess:chessplayer.obj
 0001:000a9b10       ?makeBookMove@ChessPlayer@@UEAAXAEBVMove@Chess@@@Z 00000001400aab10 f   cutechess:chessplayer.obj
 0001:000a9b80       ?setName@ChessPlayer@@QEAAXAEBVQString@@@Z 00000001400aab80 f   cutechess:chessplayer.obj
 0001:000a9bd0       ?canPlayAfterTimeout@ChessPlayer@@UEBA_NXZ 00000001400aabd0 f   cutechess:chessplayer.obj
 0001:000a9be0       ?claimResult@ChessPlayer@@QEAAXAEBVResult@Chess@@@Z 00000001400aabe0 f   cutechess:chessplayer.obj
 0001:000a9c70       ?forfeit@ChessPlayer@@QEAAXW4Type@Result@Chess@@AEBVQString@@@Z 00000001400aac70 f   cutechess:chessplayer.obj
 0001:000a9cf0       ?emitMove@ChessPlayer@@QEAAXAEBVMove@Chess@@@Z 00000001400aacf0 f   cutechess:chessplayer.obj
 0001:000a9dd0       ?onCrashed@ChessPlayer@@UEAAXXZ 00000001400aadd0 f   cutechess:chessplayer.obj
 0001:000a9e10       ?onTimeout@ChessPlayer@@UEAAXXZ 00000001400aae10 f   cutechess:chessplayer.obj
 0001:000a9e60       ??_GEngineBuilder@@UEAAPEAXI@Z 00000001400aae60 f i cutechess:enginebuilder.obj
 0001:000a9e60       ??_EEngineBuilder@@UEAAPEAXI@Z 00000001400aae60 f i * CIL library *:* CIL module *
 0001:000a9eb0       ?create@EngineBuilder@@UEBAPEAVChessPlayer@@PEAVQObject@@PEBD0PEAVQString@@@Z 00000001400aaeb0 f   cutechess:enginebuilder.obj
 0001:000aa5c0       ?setError@EngineBuilder@@AEBAXPEAVQString@@AEBV2@@Z 00000001400ab5c0 f   cutechess:enginebuilder.obj
 0001:000aa770       ?qt_static_metacall@ChessEngine@@CAXPEAVQObject@@W4Call@QMetaObject@@HPEAPEAX@Z 00000001400ab770 f   cutechess:moc_chessengine.obj
 0001:000aada0       ?metaObject@ChessEngine@@UEBAPEBUQMetaObject@@XZ 00000001400abda0 f   cutechess:moc_chessengine.obj
 0001:000aadc0       ?qt_metacast@ChessEngine@@UEAAPEAXPEBD@Z 00000001400abdc0 f   cutechess:moc_chessengine.obj
 0001:000aae40       ?qt_metacall@ChessEngine@@UEAAHW4Call@QMetaObject@@HPEAPEAX@Z 00000001400abe40 f   cutechess:moc_chessengine.obj
 0001:000aae40       ?qt_metacall@UciEngine@@UEAAHW4Call@QMetaObject@@HPEAPEAX@Z 00000001400abe40 f   cutechess:moc_uciengine.obj
 0001:000aaf00       ??_GPlayerBuilder@@UEAAPEAXI@Z 00000001400abf00 f i cutechess:playerbuilder.obj
 0001:000aaf00       ??_EPlayerBuilder@@UEAAPEAXI@Z 00000001400abf00 f i * CIL library *:* CIL module *
 0001:000aaf50       ??1PlayerBuilder@@UEAA@XZ  00000001400abf50 f   cutechess:playerbuilder.obj
 0001:000aaf70       ??0ChessEngine@@QEAA@PEAVQObject@@@Z 00000001400abf70 f   cutechess:chessengine.obj
 0001:000ab260       ??_GChessEngine@@UEAAPEAXI@Z 00000001400ac260 f i cutechess:chessengine.obj
 0001:000ab260       ??_EChessEngine@@UEAAPEAXI@Z 00000001400ac260 f i * CIL library *:* CIL module *
 0001:000ab2a0       ??1ChessEngine@@UEAA@XZ    00000001400ac2a0 f   cutechess:chessengine.obj
 0001:000ab3c0       ?applyConfiguration@ChessEngine@@QEAAXAEBVEngineConfiguration@@@Z 00000001400ac3c0 f   cutechess:chessengine.obj
 0001:000ab5f0       ?setOption@ChessEngine@@QEAAXAEBVQString@@AEBVQVariant@@@Z 00000001400ac5f0 f   cutechess:chessengine.obj
 0001:000ab8d0       ?onProtocolStart@ChessEngine@@IEAAXXZ 00000001400ac8d0 f   cutechess:chessengine.obj
 0001:000aba50       ?go@ChessEngine@@UEAAXXZ   00000001400aca50 f   cutechess:chessengine.obj
 0001:000abac0       ?restartsBetweenGames@ChessEngine@@MEBA_NXZ 00000001400acac0 f   cutechess:chessengine.obj
 0001:000abad0       ?endGame@ChessEngine@@UEAAXAEBVResult@Chess@@@Z 00000001400acad0 f   cutechess:chessengine.obj
 0001:000abb50       ?isReady@ChessEngine@@UEBA_NXZ 00000001400acb50 f   cutechess:chessengine.obj
 0001:000abb70       ?supportsVariant@ChessEngine@@UEBA_NAEBVQString@@@Z 00000001400acb70 f   cutechess:chessengine.obj
 0001:000abb90       ?stopThinking@ChessEngine@@IEAA_NXZ 00000001400acb90 f   cutechess:chessengine.obj
 0001:000abbf0       ?kill@ChessEngine@@UEAAXXZ 00000001400acbf0 f   cutechess:chessengine.obj
 0001:000abd40       ?onTimeout@ChessEngine@@MEAAXXZ 00000001400acd40 f   cutechess:chessengine.obj
 0001:000abda0       ?pong@ChessEngine@@IEAAX_N@Z 00000001400acda0 f   cutechess:chessengine.obj
 0001:000abe60       ?write@ChessEngine@@QEAAXAEBVQString@@W4WriteMode@1@@Z 00000001400ace60 f   cutechess:chessengine.obj
 0001:000ac0f0       ?onReadyRead@ChessEngine@@IEAAXXZ 00000001400ad0f0 f   cutechess:chessengine.obj
 0001:000ac340       ?flushWriteBuffer@ChessEngine@@IEAAXXZ 00000001400ad340 f   cutechess:chessengine.obj
 0001:000ac3d0       ?quit@ChessEngine@@UEAAXXZ 00000001400ad3d0 f   cutechess:chessengine.obj
 0001:000ac500       ?clear@?$QList@VQString@@@@QEAAXXZ 00000001400ad500 f i cutechess:chessengine.obj
 0001:000ac5e0       ??A?$QMap@VQString@@VQVariant@@@@QEAAAEAVQVariant@@AEBVQString@@@Z 00000001400ad5e0 f i cutechess:chessengine.obj
 0001:000ac650       ?createNode@?$QMapData@VQString@@VQVariant@@@@QEAAPEAU?$QMapNode@VQString@@VQVariant@@@@AEBVQString@@AEBVQVariant@@PEAU2@_N@Z 00000001400ad650 f i cutechess:chessengine.obj
 0001:000ac6c0       ?detach@?$QMap@VQString@@VQVariant@@@@QEAAXXZ 00000001400ad6c0 f i cutechess:chessengine.obj
 0001:000ac740       ?insert@?$QMap@VQString@@VQVariant@@@@QEAA?AViterator@1@AEBVQString@@AEBVQVariant@@@Z 00000001400ad740 f i cutechess:chessengine.obj
 0001:000ac820       ?copy@?$QMapNode@VQString@@VQVariant@@@@QEBAPEAU1@PEAU?$QMapData@VQString@@VQVariant@@@@@Z 00000001400ad820 f i cutechess:chessengine.obj
 0001:000ac8e0       ??0EngineConfiguration@@QEAA@XZ 00000001400ad8e0 f   cutechess:engineconfiguration.obj
 0001:000aca20       ??0EngineConfiguration@@QEAA@AEBVQVariant@@@Z 00000001400ada20 f   cutechess:engineconfiguration.obj
 0001:000adb80       ??0EngineConfiguration@@QEAA@AEBV0@@Z 00000001400aeb80 f   cutechess:engineconfiguration.obj
 0001:000add00       ??4EngineConfiguration@@QEAAAEAV0@$$QEAV0@@Z 00000001400aed00 f   cutechess:engineconfiguration.obj
 0001:000adde0       ??1EngineConfiguration@@QEAA@XZ 00000001400aede0 f   cutechess:engineconfiguration.obj
 0001:000adec0       ?toVariant@EngineConfiguration@@QEBA?AVQVariant@@XZ 00000001400aeec0 f   cutechess:engineconfiguration.obj
 0001:000af130       ??4?$QList@VQString@@@@QEAAAEAV0@AEBV0@@Z 00000001400b0130 f i cutechess:engineconfiguration.obj
 0001:000af1e0       ?registry@EngineFactory@@SAPEAV?$ClassRegistry@VChessEngine@@@@XZ 00000001400b01e0 f   cutechess:enginefactory.obj
 0001:000af260       ?protocols@EngineFactory@@SA?AVQStringList@@XZ 00000001400b0260 f   cutechess:enginefactory.obj
 0001:000af390       ??$factory@VUciEngine@@@?$ClassRegistry@VChessEngine@@@@SAPEAVChessEngine@@XZ 00000001400b0390 f i cutechess:enginefactory.obj
 0001:000af3c0       ??_EEngineOption@@UEAAPEAXI@Z 00000001400b03c0 f i * CIL library *:* CIL module *
 0001:000af3c0       ??_EEngineButtonOption@@UEAAPEAXI@Z 00000001400b03c0 f i * CIL library *:* CIL module *
 0001:000af3c0       ??_GEngineOption@@UEAAPEAXI@Z 00000001400b03c0 f i cutechess:engineoption.obj
 0001:000af3c0       ??_GEngineCheckOption@@UEAAPEAXI@Z 00000001400b03c0 f i cutechess:enginecheckoption.obj
 0001:000af3c0       ??_GEngineButtonOption@@UEAAPEAXI@Z 00000001400b03c0 f i cutechess:enginebuttonoption.obj
 0001:000af3c0       ??_EEngineCheckOption@@UEAAPEAXI@Z 00000001400b03c0 f i * CIL library *:* CIL module *
 0001:000af430       ??1EngineOption@@UEAA@XZ   00000001400b0430 f   cutechess:engineoption.obj
 0001:000af480       ?isEmpty@MoveEvaluation@@QEBA_NXZ 00000001400b0480 f   cutechess:moveevaluation.obj
 0001:000af4e0       ?scoreText@MoveEvaluation@@QEBA?AVQString@@XZ 00000001400b04e0 f   cutechess:moveevaluation.obj
 0001:000af6a0       ?clear@MoveEvaluation@@QEAAXXZ 00000001400b06a0 f   cutechess:moveevaluation.obj
 0001:000af8a0       ?match@PgnGameEntry@@QEBA_NAEBVPgnGameFilter@@@Z 00000001400b08a0 f   cutechess:pgngameentry.obj
 0001:000afdf0       ?read@PgnGameEntry@@QEAA_NAEAVPgnStream@@@Z 00000001400b0df0 f   cutechess:pgngameentry.obj
 0001:000b04e0       ??1?$QMap@VQByteArray@@V1@@@QEAA@XZ 00000001400b14e0 f i cutechess:pgngameentry.obj
 0001:000b0510       ?destroy@?$QMapData@VQByteArray@@V1@@@QEAAXXZ 00000001400b1510 f i cutechess:pgngameentry.obj
 0001:000b0580       ?destroySubTree@?$QMapNode@VQByteArray@@V1@@@QEAAXXZ 00000001400b1580 f i cutechess:pgngameentry.obj
 0001:000b05d0       ??A?$QMap@VQByteArray@@V1@@@QEAAAEAVQByteArray@@AEBV1@@Z 00000001400b15d0 f i cutechess:pgngameentry.obj
 0001:000b0700       ?detach@?$QMap@VQByteArray@@V1@@@QEAAXXZ 00000001400b1700 f i cutechess:pgngameentry.obj
 0001:000b0780       ?createNode@?$QMapData@VQByteArray@@V1@@@QEAAPEAU?$QMapNode@VQByteArray@@V1@@@AEBVQByteArray@@0PEAU2@_N@Z 00000001400b1780 f i cutechess:pgngameentry.obj
 0001:000b07e0       ?copy@?$QMapNode@VQByteArray@@V1@@@QEBAPEAU1@PEAU?$QMapData@VQByteArray@@V1@@@@Z 00000001400b17e0 f i cutechess:pgngameentry.obj
 0001:000b08a0       ??0PgnGameFilter@@QEAA@XZ  00000001400b18a0 f   cutechess:pgngamefilter.obj
 0001:000b0920       ??_GPgnStream@@QEAAPEAXI@Z 00000001400b1920 f i cutechess:openingsuite.obj
 0001:000b0970       ?initialize@OpeningSuite@@QEAA_NXZ 00000001400b1970 f   cutechess:openingsuite.obj
 0001:000b0d10       ??_EQTextStream@@UEAAPEAXI@Z 00000001400b1d10 f i * CIL library *:* CIL module *
 0001:000b0d10       ??_GQTextStream@@UEAAPEAXI@Z 00000001400b1d10 f i cutechess:openingsuite.obj
 0001:000b0d50       ?nextGame@OpeningSuite@@QEAA?AVPgnGame@@H@Z 00000001400b1d50 f   cutechess:openingsuite.obj
 0001:000b1270       ??1EpdRecord@@QEAA@XZ      00000001400b2270 f i cutechess:openingsuite.obj
 0001:000b12b0       ?getPgnPos@OpeningSuite@@AEAA?AUFilePosition@1@XZ 00000001400b22b0 f   cutechess:openingsuite.obj
 0001:000b1410       ?getEpdPos@OpeningSuite@@AEAA?AUFilePosition@1@XZ 00000001400b2410 f   cutechess:openingsuite.obj
 0001:000b14e0       ?destroy@?$QMapData@VQString@@VQStringList@@@@QEAAXXZ 00000001400b24e0 f i cutechess:openingsuite.obj
 0001:000b1550       ?destroySubTree@?$QMapNode@VQString@@VQStringList@@@@QEAAXXZ 00000001400b2550 f i cutechess:openingsuite.obj
 0001:000b1590       ?at@?$QVector@UFilePosition@OpeningSuite@@@@QEBAAEBUFilePosition@OpeningSuite@@H@Z 00000001400b2590 f i cutechess:openingsuite.obj
 0001:000b15f0       ?append@?$QVector@UFilePosition@OpeningSuite@@@@QEAAXAEBUFilePosition@OpeningSuite@@@Z 00000001400b25f0 f i cutechess:openingsuite.obj
 0001:000b16a0       ??0GameAdjudicator@@QEAA@XZ 00000001400b26a0 f   cutechess:gameadjudicator.obj
 0001:000b1710       ?setDrawThreshold@GameAdjudicator@@QEAAXHHH@Z 00000001400b2710 f   cutechess:gameadjudicator.obj
 0001:000b1790       ?addEval@GameAdjudicator@@QEAAXPEBVBoard@Chess@@AEBVMoveEvaluation@@@Z 00000001400b2790 f   cutechess:gameadjudicator.obj
 0001:000b1a40       ??1Entry@OpeningBook@@QEAA@XZ 00000001400b2a40 f i cutechess:openingbook.obj
 0001:000b1a50       ??_EOpeningBook@@UEAAPEAXI@Z 00000001400b2a50 f i * CIL library *:* CIL module *
 0001:000b1a50       ??_GPolyglotBook@@UEAAPEAXI@Z 00000001400b2a50 f i cutechess:polyglotbook.obj
 0001:000b1a50       ??_EPolyglotBook@@UEAAPEAXI@Z 00000001400b2a50 f i * CIL library *:* CIL module *
 0001:000b1a50       ??_GOpeningBook@@UEAAPEAXI@Z 00000001400b2a50 f i cutechess:openingbook.obj
 0001:000b1ac0       ?getRandomString@@YA?AVQString@@H@Z 00000001400b2ac0 f   cutechess:openingbook.obj
 0001:000b1be0       ?addEntry@OpeningBook@@IEAAXAEBUEntry@1@_K@Z 00000001400b2be0 f   cutechess:openingbook.obj
 0001:000b1d10       ?import@OpeningBook@@QEAAHAEBVPgnGame@@H@Z 00000001400b2d10 f   cutechess:openingbook.obj
 0001:000b1ec0       ?entriesFromDisk@OpeningBook@@AEBA?AV?$QList@UEntry@OpeningBook@@@@_K@Z 00000001400b2ec0 f   cutechess:openingbook.obj
 0001:000b23a0       ?move@OpeningBook@@QEBA?AVGenericMove@Chess@@_K@Z 00000001400b33a0 f   cutechess:openingbook.obj
 0001:000b2a80       ?destroy@?$QMapData@_KUEntry@OpeningBook@@@@QEAAXXZ 00000001400b3a80 f i cutechess:openingbook.obj
 0001:000b2af0       ?detach@?$QMap@_KUEntry@OpeningBook@@@@QEAAXXZ 00000001400b3af0 f i cutechess:openingbook.obj
 0001:000b2b70       ?destroySubTree@?$QMapNode@_KUEntry@OpeningBook@@@@QEAAXXZ 00000001400b3b70 f i cutechess:openingbook.obj
 0001:000b2bb0       ??1?$QList@UEntry@OpeningBook@@@@QEAA@XZ 00000001400b3bb0 f i cutechess:openingbook.obj
 0001:000b2be0       ?append@?$QList@UEntry@OpeningBook@@@@QEAAXAEBUEntry@OpeningBook@@@Z 00000001400b3be0 f i cutechess:openingbook.obj
 0001:000b2c30       ??_GEntry@OpeningBook@@QEAAPEAXI@Z 00000001400b3c30 f i cutechess:openingbook.obj
 0001:000b2c70       ?createNode@?$QMapData@_KUEntry@OpeningBook@@@@QEAAPEAU?$QMapNode@_KUEntry@OpeningBook@@@@AEB_KAEBUEntry@OpeningBook@@PEAU2@_N@Z 00000001400b3c70 f i cutechess:openingbook.obj
 0001:000b2d00       ?detach_helper_grow@?$QList@UEntry@OpeningBook@@@@AEAAPEAUNode@1@HH@Z 00000001400b3d00 f i cutechess:openingbook.obj
 0001:000b2de0       ?detach_helper@?$QList@UEntry@OpeningBook@@@@AEAAXH@Z 00000001400b3de0 f i cutechess:openingbook.obj
 0001:000b2e70       ?dealloc@?$QList@UEntry@OpeningBook@@@@AEAAXPEAUData@QListData@@@Z 00000001400b3e70 f i cutechess:openingbook.obj
 0001:000b2f00       ?node_construct@?$QList@UEntry@OpeningBook@@@@AEAAXPEAUNode@1@AEBUEntry@OpeningBook@@@Z 00000001400b3f00 f i cutechess:openingbook.obj
 0001:000b2f70       ?copy@?$QMapNode@_KUEntry@OpeningBook@@@@QEBAPEAU1@PEAU?$QMapData@_KUEntry@OpeningBook@@@@@Z 00000001400b3f70 f i cutechess:openingbook.obj
 0001:000b3030       ?node_destruct@?$QList@UEntry@OpeningBook@@@@AEAAXPEAUNode@1@0@Z 00000001400b4030 f i cutechess:openingbook.obj
 0001:000b3090       ?node_copy@?$QList@UEntry@OpeningBook@@@@AEAAXPEAUNode@1@00@Z 00000001400b4090 f i cutechess:openingbook.obj
 0001:000b3130       ?readEntry@PolyglotBook@@MEBA?AUEntry@OpeningBook@@AEAVQDataStream@@PEA_K@Z 00000001400b4130 f   cutechess:polyglotbook.obj
 0001:000b31e0       ?writeEntry@PolyglotBook@@MEBAXAEBVconst_iterator@?$QMap@_KUEntry@OpeningBook@@@@AEAVQDataStream@@@Z 00000001400b41e0 f   cutechess:polyglotbook.obj
 0001:000b3260       ?qt_static_metacall@ChessGame@@CAXPEAVQObject@@W4Call@QMetaObject@@HPEAPEAX@Z 00000001400b4260 f   cutechess:moc_chessgame.obj
 0001:000b3a50       ?metaObject@ChessGame@@UEBAPEBUQMetaObject@@XZ 00000001400b4a50 f   cutechess:moc_chessgame.obj
 0001:000b3a70       ?qt_metacast@ChessGame@@UEAAPEAXPEBD@Z 00000001400b4a70 f   cutechess:moc_chessgame.obj
 0001:000b3ac0       ?qt_metacall@ChessGame@@UEAAHW4Call@QMetaObject@@HPEAPEAX@Z 00000001400b4ac0 f   cutechess:moc_chessgame.obj
 0001:000b3b30       ?humanEnabled@ChessGame@@QEAAX_N@Z 00000001400b4b30 f   cutechess:moc_chessgame.obj
 0001:000b3b70       ?fenChanged@ChessGame@@QEAAXAEBVQString@@@Z 00000001400b4b70 f   cutechess:moc_chessgame.obj
 0001:000b3ba0       ?moveMade@ChessGame@@QEAAXAEBVGenericMove@Chess@@AEBVQString@@1@Z 00000001400b4ba0 f   cutechess:moc_chessgame.obj
 0001:000b3c00       ?moveChanged@ChessGame@@QEAAXHAEBVGenericMove@Chess@@AEBVQString@@1@Z 00000001400b4c00 f   cutechess:moc_chessgame.obj
 0001:000b3c70       ?scoreChanged@ChessGame@@QEAAXHH@Z 00000001400b4c70 f   cutechess:moc_chessgame.obj
 0001:000b3cd0       ?initialized@ChessGame@@QEAAXPEAV1@@Z 00000001400b4cd0 f   cutechess:moc_chessgame.obj
 0001:000b3d10       ?started@ChessGame@@QEAAXPEAV1@@Z 00000001400b4d10 f   cutechess:moc_chessgame.obj
 0001:000b3d50       ?finished@ChessGame@@QEAAXPEAV1@VResult@Chess@@@Z 00000001400b4d50 f   cutechess:moc_chessgame.obj
 0001:000b3dc0       ?startFailed@ChessGame@@QEAAXPEAV1@@Z 00000001400b4dc0 f   cutechess:moc_chessgame.obj
 0001:000b3e00       ?playersReady@ChessGame@@QEAAXXZ 00000001400b4e00 f   cutechess:moc_chessgame.obj
 0001:000b3e20       ??$qRegisterMetaType@VMove@Chess@@@@YAHXZ 00000001400b4e20 f i cutechess:moc_chessgame.obj
 0001:000b3e80       ??0Tournament@@QEAA@PEAVGameManager@@PEAVQObject@@@Z 00000001400b4e80 f   cutechess:tournament.obj
 0001:000b4050       ??_GTournament@@UEAAPEAXI@Z 00000001400b5050 f i cutechess:tournament.obj
 0001:000b4050       ??_ETournament@@UEAAPEAXI@Z 00000001400b5050 f i * CIL library *:* CIL module *
 0001:000b4090       ??1Tournament@@UEAA@XZ     00000001400b5090 f   cutechess:tournament.obj
 0001:000b4600       ?setCurrentRound@Tournament@@IEAAXH@Z 00000001400b5600 f   cutechess:tournament.obj
 0001:000b4650       ?pair@Tournament@@IEAAPEAVTournamentPair@@HH@Z 00000001400b5650 f   cutechess:tournament.obj
 0001:000b4770       ?areAllGamesFinished@Tournament@@MEBA_NXZ 00000001400b5770 f   cutechess:tournament.obj
 0001:000b4780       ?startGame@Tournament@@IEAAXPEAVTournamentPair@@@Z 00000001400b5780 f   cutechess:tournament.obj
 0001:000b4ee0       ?startNextGame@Tournament@@AEAAXXZ 00000001400b5ee0 f   cutechess:tournament.obj
 0001:000b4fb0       ?writePgn@Tournament@@AEAA_NPEAVPgnGame@@H@Z 00000001400b5fb0 f   cutechess:tournament.obj
 0001:000b57a0       ??4PgnGame@@QEAAAEAV0@AEBV0@@Z 00000001400b67a0 f i cutechess:tournament.obj
 0001:000b5930       ?writeEpd@Tournament@@AEAA_NPEAVChessGame@@@Z 00000001400b6930 f   cutechess:tournament.obj
 0001:000b5b90       ?addScore@Tournament@@MEAAXHH@Z 00000001400b6b90 f   cutechess:tournament.obj
 0001:000b5bf0       ?onGameFinished@Tournament@@AEAAXPEAVChessGame@@@Z 00000001400b6bf0 f   cutechess:tournament.obj
 0001:000b6250       ?onFinished@Tournament@@MEAAXXZ 00000001400b7250 f   cutechess:tournament.obj
 0001:000b6290       ?start@Tournament@@QEAAXXZ 00000001400b7290 f   cutechess:tournament.obj
 0001:000b64a0       ?stop@Tournament@@QEAAXXZ  00000001400b74a0 f   cutechess:tournament.obj
 0001:000b66c0       ?results@Tournament@@UEBA?AVQString@@XZ 00000001400b76c0 f   cutechess:tournament.obj
 0001:000b7550       ??1?$QMultiMap@NURankingData@Tournament@@@@QEAA@XZ 00000001400b8550 f i cutechess:tournament.obj
 0001:000b7580       ??1RankingData@Tournament@@QEAA@XZ 00000001400b8580 f i cutechess:tournament.obj
 0001:000b7590       ?destroy@?$QMapData@HVPgnGame@@@@QEAAXXZ 00000001400b8590 f i cutechess:tournament.obj
 0001:000b7600       ?destroy@?$QMapData@NURankingData@Tournament@@@@QEAAXXZ 00000001400b8600 f i cutechess:tournament.obj
 0001:000b7670       ?destroySubTree@?$QMapNode@HVPgnGame@@@@QEAAXXZ 00000001400b8670 f i cutechess:tournament.obj
 0001:000b76b0       ?destroySubTree@?$QMapNode@NURankingData@Tournament@@@@QEAAXXZ 00000001400b86b0 f i cutechess:tournament.obj
 0001:000b76f0       ??A?$QMap@U?$QPair@HH@@PEAVTournamentPair@@@@QEAAAEAPEAVTournamentPair@@AEBU?$QPair@HH@@@Z 00000001400b86f0 f i cutechess:tournament.obj
 0001:000b7810       ??A?$QList@VTournamentPlayer@@@@QEAAAEAVTournamentPlayer@@H@Z 00000001400b8810 f i cutechess:tournament.obj
 0001:000b7890       ?append@?$QList@VTournamentPlayer@@@@QEAAXAEBVTournamentPlayer@@@Z 00000001400b8890 f i cutechess:tournament.obj
 0001:000b7960       ??A?$QMap@HVPgnGame@@@@QEAAAEAVPgnGame@@AEBH@Z 00000001400b8960 f i cutechess:tournament.obj
 0001:000b7b20       ??A?$QMap@PEAVChessGame@@PEAUGameData@Tournament@@@@QEAAAEAPEAUGameData@Tournament@@AEBQEAVChessGame@@@Z 00000001400b8b20 f i cutechess:tournament.obj
 0001:000b7c00       ?createNode@?$QMapData@NURankingData@Tournament@@@@QEAAPEAU?$QMapNode@NURankingData@Tournament@@@@AEBNAEBURankingData@Tournament@@PEAU2@_N@Z 00000001400b8c00 f i cutechess:tournament.obj
 0001:000b7c80       ?detach@?$QMap@HVPgnGame@@@@QEAAXXZ 00000001400b8c80 f i cutechess:tournament.obj
 0001:000b7d00       ??0?$QVector@UMoveData@PgnGame@@@@QEAA@AEBV0@@Z 00000001400b8d00 f i cutechess:tournament.obj
 0001:000b7e70       ??0?$QMap@VQString@@V1@@@QEAA@AEBV0@@Z 00000001400b8e70 f i cutechess:tournament.obj
 0001:000b7f00       ?detach_helper_grow@?$QList@VTournamentPlayer@@@@AEAAPEAUNode@1@HH@Z 00000001400b8f00 f i cutechess:tournament.obj
 0001:000b7fe0       ?dealloc@?$QList@VTournamentPlayer@@@@AEAAXPEAUData@QListData@@@Z 00000001400b8fe0 f i cutechess:tournament.obj
 0001:000b8040       ?findNode@?$QHash@PEBVOpeningBook@@UQHashDummyValue@@@@AEBAPEAPEAU?$QHashNode@PEBVOpeningBook@@UQHashDummyValue@@@@AEBQEBVOpeningBook@@I@Z 00000001400b9040 f i cutechess:tournament.obj
 0001:000b8100       ?createNode@?$QMapData@HVPgnGame@@@@QEAAPEAU?$QMapNode@HVPgnGame@@@@AEBHAEBVPgnGame@@PEAU2@_N@Z 00000001400b9100 f i cutechess:tournament.obj
 0001:000b81a0       ?detach_helper@?$QList@VTournamentPlayer@@@@AEAAXH@Z 00000001400b91a0 f i cutechess:tournament.obj
 0001:000b8230       ?node_destruct@?$QList@VTournamentPlayer@@@@AEAAXPEAUNode@1@0@Z 00000001400b9230 f i cutechess:tournament.obj
 0001:000b8280       ?node_copy@?$QList@VTournamentPlayer@@@@AEAAXPEAUNode@1@00@Z 00000001400b9280 f i cutechess:tournament.obj
 0001:000b8320       ?copy@?$QMapNode@HVPgnGame@@@@QEBAPEAU1@PEAU?$QMapData@HVPgnGame@@@@@Z 00000001400b9320 f i cutechess:tournament.obj
 0001:000b83e0       ?duplicateNode@?$QHash@PEBVOpeningBook@@UQHashDummyValue@@@@CAXPEAUNode@QHashData@@PEAX@Z 00000001400b93e0 f i cutechess:tournament.obj
 0001:000b8400       ?copy@?$QMapNode@NURankingData@Tournament@@@@QEBAPEAU1@PEAU?$QMapData@NURankingData@Tournament@@@@@Z 00000001400b9400 f i cutechess:tournament.obj
 0001:000b84c0       ??0PgnStream@@QEAA@PEAVQIODevice@@AEBVQString@@@Z 00000001400b94c0 f   cutechess:pgnstream.obj
 0001:000b8590       ??1PgnStream@@QEAA@XZ      00000001400b9590 f   cutechess:pgnstream.obj
 0001:000b85d0       ?setDevice@PgnStream@@QEAAXPEAVQIODevice@@@Z 00000001400b95d0 f   cutechess:pgnstream.obj
 0001:000b8660       ?setVariant@PgnStream@@QEAA_NAEBVQString@@@Z 00000001400b9660 f   cutechess:pgnstream.obj
 0001:000b87c0       ?rewindChar@PgnStream@@QEAAXXZ 00000001400b97c0 f   cutechess:pgnstream.obj
 0001:000b8850       ?seek@PgnStream@@QEAA_N_J0@Z 00000001400b9850 f   cutechess:pgnstream.obj
 0001:000b88d0       ?parseUntil@PgnStream@@AEAAXPEBD@Z 00000001400b98d0 f   cutechess:pgnstream.obj
 0001:000b89a0       ?parseTag@PgnStream@@AEAAXXZ 00000001400b99a0 f   cutechess:pgnstream.obj
 0001:000b8b50       ?nextGame@PgnStream@@QEAA_NXZ 00000001400b9b50 f   cutechess:pgnstream.obj
 0001:000b8cd0       ?readNext@PgnStream@@QEAA?AW4TokenType@1@XZ 00000001400b9cd0 f   cutechess:pgnstream.obj
 0001:000b9090       ?qt_static_metacall@Tournament@@CAXPEAVQObject@@W4Call@QMetaObject@@HPEAPEAX@Z 00000001400ba090 f   cutechess:moc_tournament.obj
 0001:000b9480       ?metaObject@Tournament@@UEBAPEBUQMetaObject@@XZ 00000001400ba480 f   cutechess:moc_tournament.obj
 0001:000b94a0       ?qt_metacast@Tournament@@UEAAPEAXPEBD@Z 00000001400ba4a0 f   cutechess:moc_tournament.obj
 0001:000b94f0       ?qt_metacall@Tournament@@UEAAHW4Call@QMetaObject@@HPEAPEAX@Z 00000001400ba4f0 f   cutechess:moc_tournament.obj
 0001:000b9560       ?gameStarted@Tournament@@QEAAXPEAVChessGame@@HHH@Z 00000001400ba560 f   cutechess:moc_tournament.obj
 0001:000b95d0       ?gameFinished@Tournament@@QEAAXPEAVChessGame@@HHH@Z 00000001400ba5d0 f   cutechess:moc_tournament.obj
 0001:000b9650       ?finished@Tournament@@QEAAXXZ 00000001400ba650 f   cutechess:moc_tournament.obj
 0001:000b9670       ??_EWorker@@UEAAPEAXI@Z    00000001400ba670 f i * CIL library *:* CIL module *
 0001:000b9670       ??_GWorker@@UEAAPEAXI@Z    00000001400ba670 f i cutechess:worker.obj
 0001:000b96e0       ?run@Worker@@UEAAXXZ       00000001400ba6e0 f   cutechess:worker.obj
 0001:000b9760       ??_EWorker@@WBA@EAAPEAXI@Z 00000001400ba760 f i cutechess:worker.obj
 0001:000b9770       ?qt_static_metacall@Worker@@CAXPEAVQObject@@W4Call@QMetaObject@@HPEAPEAX@Z 00000001400ba770 f   cutechess:moc_worker.obj
 0001:000b98e0       ?metaObject@Worker@@UEBAPEBUQMetaObject@@XZ 00000001400ba8e0 f   cutechess:moc_worker.obj
 0001:000b9900       ?qt_metacast@Worker@@UEAAPEAXPEBD@Z 00000001400ba900 f   cutechess:moc_worker.obj
 0001:000b99a0       ?qt_metacall@Worker@@UEAAHW4Call@QMetaObject@@HPEAPEAX@Z 00000001400ba9a0 f   cutechess:moc_worker.obj
 0001:000b9a10       ?started@Worker@@QEAAXXZ   00000001400baa10 f   cutechess:moc_worker.obj
 0001:000b9a30       ?progressChanged@Worker@@QEAAXH@Z 00000001400baa30 f   cutechess:moc_worker.obj
 0001:000b9a70       ?statusChanged@Worker@@QEAAXAEBVQString@@@Z 00000001400baa70 f   cutechess:moc_worker.obj
 0001:000b9aa0       ?cancelled@Worker@@QEAAXXZ 00000001400baaa0 f   cutechess:moc_worker.obj
 0001:000b9ac0       ?finished@Worker@@QEAAXXZ  00000001400baac0 f   cutechess:moc_worker.obj
 0001:000b9ae0       ?error@Worker@@QEAAXH@Z    00000001400baae0 f   cutechess:moc_worker.obj
 0001:000b9b20       ??_GWesternBoard@Chess@@UEAAPEAXI@Z 00000001400bab20 f i cutechess:standardboard.obj
 0001:000b9b20       ??_EWesternBoard@Chess@@UEAAPEAXI@Z 00000001400bab20 f i * CIL library *:* CIL module *
 0001:000b9b20       ??_GStandardBoard@Chess@@UEAAPEAXI@Z 00000001400bab20 f i cutechess:standardboard.obj
 0001:000b9b20       ??_EStandardBoard@Chess@@UEAAPEAXI@Z 00000001400bab20 f i * CIL library *:* CIL module *
 0001:000b9b60       ??1WesternBoard@Chess@@UEAA@XZ 00000001400bab60 f i cutechess:standardboard.obj
 0001:000b9d90       ?copy@StandardBoard@Chess@@UEBAPEAVBoard@2@XZ 00000001400bad90 f   cutechess:standardboard.obj
 0001:000b9de0       ??0WesternBoard@Chess@@QEAA@AEBV01@@Z 00000001400bade0 f i cutechess:standardboard.obj
 0001:000ba070       ??0Board@Chess@@QEAA@AEBV01@@Z 00000001400bb070 f i cutechess:standardboard.obj
 0001:000ba370       ?variant@StandardBoard@Chess@@UEBA?AVQString@@XZ 00000001400bb370 f   cutechess:standardboard.obj
 0001:000ba3a0       ?defaultFenString@StandardBoard@Chess@@UEBA?AVQString@@XZ 00000001400bb3a0 f   cutechess:standardboard.obj
 0001:000ba3d0       ??1?$QVarLengthArray@VQString@@$0BAA@@@QEAA@XZ 00000001400bb3d0 f i cutechess:standardboard.obj
 0001:000ba420       ??0?$QVarLengthArray@VQString@@$0BAA@@@QEAA@AEBV0@@Z 00000001400bb420 f i cutechess:standardboard.obj
 0001:000ba4d0       ??0?$QVarLengthArray@H$0BAA@@@QEAA@AEBV0@@Z 00000001400bb4d0 f i cutechess:standardboard.obj
 0001:000ba580       ?realloc@?$QVarLengthArray@H$0BAA@@@AEAAXHH@Z 00000001400bb580 f i cutechess:standardboard.obj
 0001:000ba680       ?realloc@?$QVarLengthArray@VQString@@$0BAA@@@AEAAXHH@Z 00000001400bb680 f i cutechess:standardboard.obj
 0001:000ba7e0       ??1StreamStateSaver@QtPrivate@@QEAA@XZ 00000001400bb7e0 f i cutechess:econode.obj
 0001:000ba810       ??_GEcoNode@@QEAAPEAXI@Z   00000001400bb810 f i cutechess:econode.obj
 0001:000ba8c0       ??5@YAAEAVQDataStream@@AEAV0@AEAPEAVEcoNode@@@Z 00000001400bb8c0 f   cutechess:econode.obj
 0001:000baa90       ?initialize@EcoNode@@SAXXZ 00000001400bba90 f   cutechess:econode.obj
 0001:000bad20       ?opening@EcoNode@@QEBA?AVQString@@XZ 00000001400bbd20 f   cutechess:econode.obj
 0001:000bae00       ?clear@?$QMap@VQString@@PEAVEcoNode@@@@QEAAXXZ 00000001400bbe00 f i cutechess:econode.obj
 0001:000bb120       ?serializeNode@JsonSerializer@@AEAA_NAEAVQTextStream@@AEBVQVariant@@H@Z 00000001400bc120 f   cutechess:jsonserializer.obj
 0001:000bb6b0       ?qt_static_metacall@EngineManager@@CAXPEAVQObject@@W4Call@QMetaObject@@HPEAPEAX@Z 00000001400bc6b0 f   cutechess:moc_enginemanager.obj
 0001:000bb7b0       ?metaObject@EngineManager@@UEBAPEBUQMetaObject@@XZ 00000001400bc7b0 f   cutechess:moc_enginemanager.obj
 0001:000bb7d0       ?qt_metacast@EngineManager@@UEAAPEAXPEBD@Z 00000001400bc7d0 f   cutechess:moc_enginemanager.obj
 0001:000bb820       ?qt_metacall@EngineManager@@UEAAHW4Call@QMetaObject@@HPEAPEAX@Z 00000001400bc820 f   cutechess:moc_enginemanager.obj
 0001:000bb890       ?enginesReset@EngineManager@@QEAAXXZ 00000001400bc890 f   cutechess:moc_enginemanager.obj
 0001:000bb8b0       ?engineAdded@EngineManager@@QEAAXH@Z 00000001400bc8b0 f   cutechess:moc_enginemanager.obj
 0001:000bb8f0       ?engineAboutToBeRemoved@EngineManager@@QEAAXH@Z 00000001400bc8f0 f   cutechess:moc_enginemanager.obj
 0001:000bb930       ?engineUpdated@EngineManager@@QEAAXH@Z 00000001400bc930 f   cutechess:moc_enginemanager.obj
 0001:000bb970       ?tokenString@JsonParser@@CA?AVQString@@W4Token@1@AEBV2@@Z 00000001400bc970 f   cutechess:jsonparser.obj
 0001:000bbb00       ?parseToken@JsonParser@@AEAA?AW4Token@1@XZ 00000001400bcb00 f   cutechess:jsonparser.obj
 0001:000bc2b0       ?parseValue@JsonParser@@AEAA?AVQVariant@@PEAW4Token@1@@Z 00000001400bd2b0 f   cutechess:jsonparser.obj
 0001:000bc610       ?parseObject@JsonParser@@AEAA?AVQVariant@@XZ 00000001400bd610 f   cutechess:jsonparser.obj
 0001:000bcb90       ?parseArray@JsonParser@@AEAA?AVQVariant@@XZ 00000001400bdb90 f   cutechess:jsonparser.obj
 0001:000bcf10       ?qt_static_metacall@ChessPlayer@@CAXPEAVQObject@@W4Call@QMetaObject@@HPEAPEAX@Z 00000001400bdf10 f   cutechess:moc_chessplayer.obj
 0001:000bd1d0       ?metaObject@ChessPlayer@@UEBAPEBUQMetaObject@@XZ 00000001400be1d0 f   cutechess:moc_chessplayer.obj
 0001:000bd1f0       ?qt_metacast@ChessPlayer@@UEAAPEAXPEBD@Z 00000001400be1f0 f   cutechess:moc_chessplayer.obj
 0001:000bd240       ?qt_metacall@ChessPlayer@@UEAAHW4Call@QMetaObject@@HPEAPEAX@Z 00000001400be240 f   cutechess:moc_chessplayer.obj
 0001:000bd2b0       ?disconnected@ChessPlayer@@QEAAXXZ 00000001400be2b0 f   cutechess:moc_chessplayer.obj
 0001:000bd2d0       ?ready@ChessPlayer@@QEAAXXZ 00000001400be2d0 f   cutechess:moc_chessplayer.obj
 0001:000bd2f0       ?startedThinking@ChessPlayer@@QEAAXH@Z 00000001400be2f0 f   cutechess:moc_chessplayer.obj
 0001:000bd330       ?stoppedThinking@ChessPlayer@@QEAAXXZ 00000001400be330 f   cutechess:moc_chessplayer.obj
 0001:000bd350       ?thinking@ChessPlayer@@QEAAXAEBVMoveEvaluation@@@Z 00000001400be350 f   cutechess:moc_chessplayer.obj
 0001:000bd380       ?moveMade@ChessPlayer@@QEAAXAEBVMove@Chess@@@Z 00000001400be380 f   cutechess:moc_chessplayer.obj
 0001:000bd3b0       ?resultClaim@ChessPlayer@@QEAAXAEBVResult@Chess@@@Z 00000001400be3b0 f   cutechess:moc_chessplayer.obj
 0001:000bd3e0       ?debugMessage@ChessPlayer@@QEAAXAEBVQString@@@Z 00000001400be3e0 f   cutechess:moc_chessplayer.obj
 0001:000bd410       ?nameChanged@ChessPlayer@@QEAAXAEBVQString@@@Z 00000001400be410 f   cutechess:moc_chessplayer.obj
 0001:000bd440       ??_EHumanPlayer@@UEAAPEAXI@Z 00000001400be440 f i * CIL library *:* CIL module *
 0001:000bd440       ??_GHumanPlayer@@UEAAPEAXI@Z 00000001400be440 f i cutechess:humanplayer.obj
 0001:000bd4b0       ?startGame@HumanPlayer@@MEAAXXZ 00000001400be4b0 f   cutechess:humanplayer.obj
 0001:000bd4f0       ?startThinking@HumanPlayer@@MEAAXXZ 00000001400be4f0 f   cutechess:humanplayer.obj
 0001:000bd570       ?endGame@HumanPlayer@@UEAAXAEBVResult@Chess@@@Z 00000001400be570 f   cutechess:humanplayer.obj
 0001:000bd600       ?makeMove@HumanPlayer@@UEAAXAEBVMove@Chess@@@Z 00000001400be600 f   cutechess:humanplayer.obj
 0001:000bd640       ?qt_static_metacall@GameManager@@CAXPEAVQObject@@W4Call@QMetaObject@@HPEAPEAX@Z 00000001400be640 f   cutechess:moc_gamemanager.obj
 0001:000bd8c0       ?metaObject@GameManager@@UEBAPEBUQMetaObject@@XZ 00000001400be8c0 f   cutechess:moc_gamemanager.obj
 0001:000bd8e0       ?qt_metacast@GameManager@@UEAAPEAXPEBD@Z 00000001400be8e0 f   cutechess:moc_gamemanager.obj
 0001:000bd930       ?qt_metacall@GameManager@@UEAAHW4Call@QMetaObject@@HPEAPEAX@Z 00000001400be930 f   cutechess:moc_gamemanager.obj
 0001:000bd9a0       ?gameStarted@GameManager@@QEAAXPEAVChessGame@@@Z 00000001400be9a0 f   cutechess:moc_gamemanager.obj
 0001:000bd9e0       ?gameDestroyed@GameManager@@QEAAXPEAVChessGame@@@Z 00000001400be9e0 f   cutechess:moc_gamemanager.obj
 0001:000bda20       ?ready@GameManager@@QEAAXXZ 00000001400bea20 f   cutechess:moc_gamemanager.obj
 0001:000bda40       ?finished@GameManager@@QEAAXXZ 00000001400bea40 f   cutechess:moc_gamemanager.obj
 0001:000bda60       ?debugMessage@GameManager@@QEAAXAEBVQString@@@Z 00000001400bea60 f   cutechess:moc_gamemanager.obj
 0001:000bda90       ??_GEngineProcess@@UEAAPEAXI@Z 00000001400bea90 f i cutechess:engineprocess_win.obj
 0001:000bda90       ??_EEngineProcess@@UEAAPEAXI@Z 00000001400bea90 f i * CIL library *:* CIL module *
 0001:000bdb70       ?bytesAvailable@EngineProcess@@UEBA_JXZ 00000001400beb70 f   cutechess:engineprocess_win.obj
 0001:000bdbb0       ?canReadLine@EngineProcess@@UEBA_NXZ 00000001400bebb0 f   cutechess:engineprocess_win.obj
 0001:000bdc50       ?cleanup@EngineProcess@@AEAAXXZ 00000001400bec50 f   cutechess:engineprocess_win.obj
 0001:000bdd40       ?close@EngineProcess@@UEAAXXZ 00000001400bed40 f   cutechess:engineprocess_win.obj
 0001:000bddc0       ?cmdLine@EngineProcess@@CA?AVQString@@AEBV2@0AEBVQStringList@@@Z 00000001400bedc0 f   cutechess:engineprocess_win.obj
 0001:000be1c0       ?start@EngineProcess@@QEAAXAEBVQString@@AEBVQStringList@@V?$QFlags@W4OpenModeFlag@QIODevice@@@@@Z 00000001400bf1c0 f   cutechess:engineprocess_win.obj
 0001:000be700       ?start@EngineProcess@@QEAAXAEBVQString@@V?$QFlags@W4OpenModeFlag@QIODevice@@@@@Z 00000001400bf700 f   cutechess:engineprocess_win.obj
 0001:000be910       ?onFinished@EngineProcess@@AEAAXXZ 00000001400bf910 f   cutechess:engineprocess_win.obj
 0001:000be9c0       ?readData@EngineProcess@@MEAA_JPEAD_J@Z 00000001400bf9c0 f   cutechess:engineprocess_win.obj
 0001:000beb40       ?writeData@EngineProcess@@MEAA_JPEBD_J@Z 00000001400bfb40 f   cutechess:engineprocess_win.obj
 0001:000beb80       ?create@EngineOptionFactory@@SAPEAVEngineOption@@AEBV?$QMap@VQString@@VQVariant@@@@@Z 00000001400bfb80 f   cutechess:engineoptionfactory.obj
 0001:000bfa90       ??_EEngineTextOption@@UEAAPEAXI@Z 00000001400c0a90 f i * CIL library *:* CIL module *
 0001:000bfa90       ??_GEngineTextOption@@UEAAPEAXI@Z 00000001400c0a90 f i cutechess:enginetextoption.obj
 0001:000bfa90       ??_EEngineSpinOption@@UEAAPEAXI@Z 00000001400c0a90 f i * CIL library *:* CIL module *
 0001:000bfa90       ??_GEngineSpinOption@@UEAAPEAXI@Z 00000001400c0a90 f i cutechess:enginespinoption.obj
 0001:000bfb00       ?copy@EngineTextOption@@UEBAPEAVEngineOption@@XZ 00000001400c0b00 f   cutechess:enginetextoption.obj
 0001:000bfb50       ??0EngineOption@@QEAA@AEBV0@@Z 00000001400c0b50 f i cutechess:enginetextoption.obj
 0001:000bfbc0       ?isValid@EngineTextOption@@UEBA_NAEBVQVariant@@@Z 00000001400c0bc0 f   cutechess:enginetextoption.obj
 0001:000bfbd0       ?toVariant@EngineTextOption@@UEBA?AVQVariant@@XZ 00000001400c0bd0 f   cutechess:enginetextoption.obj
 0001:000c0840       ??0UciEngine@@QEAA@PEAVQObject@@@Z 00000001400c1840 f   cutechess:uciengine.obj
 0001:000c0a00       ??_EUciEngine@@UEAAPEAXI@Z 00000001400c1a00 f i * CIL library *:* CIL module *
 0001:000c0a00       ??_GUciEngine@@UEAAPEAXI@Z 00000001400c1a00 f i cutechess:uciengine.obj
 0001:000c0aa0       ?startProtocol@UciEngine@@MEAAXXZ 00000001400c1aa0 f   cutechess:uciengine.obj
 0001:000c0ae0       ?positionString@UciEngine@@AEAA?AVQString@@XZ 00000001400c1ae0 f   cutechess:uciengine.obj
 0001:000c0c00       ?startGame@UciEngine@@MEAAXXZ 00000001400c1c00 f   cutechess:uciengine.obj
 0001:000c1030       ?endGame@UciEngine@@UEAAXAEBVResult@Chess@@@Z 00000001400c2030 f   cutechess:uciengine.obj
 0001:000c1140       ?makeMove@UciEngine@@UEAAXAEBVMove@Chess@@@Z 00000001400c2140 f   cutechess:uciengine.obj
 0001:000c1360       ?makeBookMove@UciEngine@@UEAAXAEBVMove@Chess@@@Z 00000001400c2360 f   cutechess:uciengine.obj
 0001:000c1450       ?startThinking@UciEngine@@MEAAXXZ 00000001400c2450 f   cutechess:uciengine.obj
 0001:000c1970       ?startPondering@UciEngine@@UEAAXXZ 00000001400c2970 f   cutechess:uciengine.obj
 0001:000c1aa0       ?clearPonderState@UciEngine@@UEAAXXZ 00000001400c2aa0 f   cutechess:uciengine.obj
 0001:000c1ac0       ?isPondering@UciEngine@@MEBA_NXZ 00000001400c2ac0 f   cutechess:uciengine.obj
 0001:000c1ad0       ?sendStop@UciEngine@@MEAAXXZ 00000001400c2ad0 f   cutechess:uciengine.obj
 0001:000c1b10       ?protocol@UciEngine@@UEBA?AVQString@@XZ 00000001400c2b10 f   cutechess:uciengine.obj
 0001:000c1b40       ?sendPing@UciEngine@@MEAA_NXZ 00000001400c2b40 f   cutechess:uciengine.obj
 0001:000c1b80       ?sendQuit@UciEngine@@MEAAXXZ 00000001400c2b80 f   cutechess:uciengine.obj
 0001:000c1bc0       ?parseInfo@UciEngine@@AEAAXAEBVQStringRef@@@Z 00000001400c2bc0 f   cutechess:uciengine.obj
 0001:000c2890       ?parseOption@UciEngine@@AEAAPEAVEngineOption@@AEBVQStringRef@@@Z 00000001400c3890 f   cutechess:uciengine.obj
 0001:000c3670       ?parseLine@UciEngine@@MEAAXAEBVQString@@@Z 00000001400c4670 f   cutechess:uciengine.obj
 0001:000c44e0       ?addVariantsFromOption@UciEngine@@AEAAXPEBVEngineOption@@@Z 00000001400c54e0 f   cutechess:uciengine.obj
 0001:000c4710       ?setVariant@UciEngine@@AEAAXAEBVQString@@@Z 00000001400c5710 f   cutechess:uciengine.obj
 0001:000c48d0       ?setPonderMove@UciEngine@@AEAAXAEBVQString@@@Z 00000001400c58d0 f   cutechess:uciengine.obj
 0001:000c4ad0       ?directPv@UciEngine@@AEAA?AVQString@@AEBV?$QVarLengthArray@VQStringRef@@$0BAA@@@@Z 00000001400c5ad0 f   cutechess:uciengine.obj
 0001:000c4b90       ?sanPv@UciEngine@@AEAA?AVQString@@AEBV?$QVarLengthArray@VQStringRef@@$0BAA@@@@Z 00000001400c5b90 f   cutechess:uciengine.obj
 0001:000c4e50       ?sendOption@UciEngine@@MEAAXAEBVQString@@AEBVQVariant@@@Z 00000001400c5e50 f   cutechess:uciengine.obj
 0001:000c4f60       ?realloc@?$QVarLengthArray@VQStringRef@@$0BAA@@@AEAAXHH@Z 00000001400c5f60 f i cutechess:uciengine.obj
 0001:000c5060       ?parse@EpdRecord@@QEAA_NAEAVQTextStream@@@Z 00000001400c6060 f   cutechess:epdrecord.obj
 0001:000c5620       ?detach@?$QMap@VQString@@VQStringList@@@@QEAAXXZ 00000001400c6620 f i cutechess:epdrecord.obj
 0001:000c56a0       ?createNode@?$QMapData@VQString@@VQStringList@@@@QEAAPEAU?$QMapNode@VQString@@VQStringList@@@@AEBVQString@@AEBVQStringList@@PEAU2@_N@Z 00000001400c66a0 f i cutechess:epdrecord.obj
 0001:000c5710       ?copy@?$QMapNode@VQString@@VQStringList@@@@QEBAPEAU1@PEAU?$QMapData@VQString@@VQStringList@@@@@Z 00000001400c6710 f i cutechess:epdrecord.obj
 0001:000c57d0       __local_stdio_printf_options 00000001400c67d0 f i cutechess:tbprobe.obj
 0001:000c57e0       printf                     00000001400c67e0 f i cutechess:tbprobe.obj
 0001:000c5840       snprintf                   00000001400c6840 f i cutechess:tbprobe.obj
 0001:000c6180       init_tablebases            00000001400c7180 f   cutechess:tbprobe.obj
 0001:000c7650       tb_init_impl               00000001400c8650 f   cutechess:tbprobe.obj
 0001:000c7800       ?status@Sprt@@QEBA?AUStatus@1@XZ 00000001400c8800 f   cutechess:sprt.obj
 0001:000c7b70       ?phiInv@Elo@@CANN@Z        00000001400c8b70 f   cutechess:elo.obj
 0001:000c7c60       ??_EGauntletTournament@@UEAAPEAXI@Z 00000001400c8c60 f i * CIL library *:* CIL module *
 0001:000c7c60       ??_GGauntletTournament@@UEAAPEAXI@Z 00000001400c8c60 f i cutechess:gauntlettournament.obj
 0001:000c7c60       ??_EPyramidTournament@@UEAAPEAXI@Z 00000001400c8c60 f i * CIL library *:* CIL module *
 0001:000c7c60       ??_GPyramidTournament@@UEAAPEAXI@Z 00000001400c8c60 f i cutechess:pyramidtournament.obj
 0001:000c7ca0       ?type@PyramidTournament@@UEBA?AVQString@@XZ 00000001400c8ca0 f   cutechess:pyramidtournament.obj
 0001:000c7cd0       ?initializePairing@PyramidTournament@@MEAAXXZ 00000001400c8cd0 f   cutechess:pyramidtournament.obj
 0001:000c7cf0       ?gamesPerCycle@RoundRobinTournament@@MEBAHXZ 00000001400c8cf0 f   cutechess:roundrobintournament.obj
 0001:000c7cf0       ?gamesPerCycle@PyramidTournament@@MEBAHXZ 00000001400c8cf0 f   cutechess:pyramidtournament.obj
 0001:000c7d10       ?nextPair@PyramidTournament@@MEAAPEAVTournamentPair@@H@Z 00000001400c8d10 f   cutechess:pyramidtournament.obj
 0001:000c7db0       ?type@GauntletTournament@@UEBA?AVQString@@XZ 00000001400c8db0 f   cutechess:gauntlettournament.obj
 0001:000c7de0       ?onGameAboutToStart@GauntletTournament@@MEAAXPEAVChessGame@@PEBVPlayerBuilder@@1@Z 00000001400c8de0 f   cutechess:gauntlettournament.obj
 0001:000c7e50       ?initializePairing@GauntletTournament@@MEAAXXZ 00000001400c8e50 f   cutechess:gauntlettournament.obj
 0001:000c7e60       ?gamesPerCycle@GauntletTournament@@MEBAHXZ 00000001400c8e60 f   cutechess:gauntlettournament.obj
 0001:000c7e80       ?nextPair@GauntletTournament@@MEAAPEAVTournamentPair@@H@Z 00000001400c8e80 f   cutechess:gauntlettournament.obj
 0001:000c7f00       ??_ERoundRobinTournament@@UEAAPEAXI@Z 00000001400c8f00 f i * CIL library *:* CIL module *
 0001:000c7f00       ??_GRoundRobinTournament@@UEAAPEAXI@Z 00000001400c8f00 f i cutechess:roundrobintournament.obj
 0001:000c7fa0       ?type@RoundRobinTournament@@UEBA?AVQString@@XZ 00000001400c8fa0 f   cutechess:roundrobintournament.obj
 0001:000c7fd0       ?initializePairing@RoundRobinTournament@@MEAAXXZ 00000001400c8fd0 f   cutechess:roundrobintournament.obj
 0001:000c8090       ?nextPair@RoundRobinTournament@@MEAAPEAVTournamentPair@@H@Z 00000001400c9090 f   cutechess:roundrobintournament.obj
 0001:000c8390       ?insert@?$QList@H@@QEAAXHAEBH@Z 00000001400c9390 f i cutechess:roundrobintournament.obj
 0001:000c83e0       ?erase@?$QList@H@@QEAA?AViterator@1@V21@@Z 00000001400c93e0 f i cutechess:roundrobintournament.obj
 0001:000c84d0       ??_EKnockoutTournament@@UEAAPEAXI@Z 00000001400c94d0 f i * CIL library *:* CIL module *
 0001:000c84d0       ??_GKnockoutTournament@@UEAAPEAXI@Z 00000001400c94d0 f i cutechess:knockouttournament.obj
 0001:000c8540       ?type@KnockoutTournament@@UEBA?AVQString@@XZ 00000001400c9540 f   cutechess:knockouttournament.obj
 0001:000c8570       ?playerSeed@KnockoutTournament@@CAHHH@Z 00000001400c9570 f   cutechess:knockouttournament.obj
 0001:000c85c0       ?firstRoundPlayers@KnockoutTournament@@AEBA?AV?$QList@H@@XZ 00000001400c95c0 f   cutechess:knockouttournament.obj
 0001:000c8740       ?initializePairing@KnockoutTournament@@MEAAXXZ 00000001400c9740 f   cutechess:knockouttournament.obj
 0001:000c8d80       ?gamesPerCycle@KnockoutTournament@@MEBAHXZ 00000001400c9d80 f   cutechess:knockouttournament.obj
 0001:000c8dd0       ?addScore@KnockoutTournament@@MEAAXHH@Z 00000001400c9dd0 f   cutechess:knockouttournament.obj
 0001:000c8f30       ?lastRoundWinners@KnockoutTournament@@AEBA?AV?$QList@H@@XZ 00000001400c9f30 f   cutechess:knockouttournament.obj
 0001:000c9020       ?areAllGamesFinished@KnockoutTournament@@MEBA_NXZ 00000001400ca020 f   cutechess:knockouttournament.obj
 0001:000c9130       ?nextPair@KnockoutTournament@@MEAAPEAVTournamentPair@@H@Z 00000001400ca130 f   cutechess:knockouttournament.obj
 0001:000c9510       ?results@KnockoutTournament@@UEBA?AVQString@@XZ 00000001400ca510 f   cutechess:knockouttournament.obj
 0001:000c9d80       ?clear@?$QList@V?$QList@PEAVTournamentPair@@@@@@QEAAXXZ 00000001400cad80 f i cutechess:knockouttournament.obj
 0001:000c9ea0       ??0WesternBoard@Chess@@QEAA@PEAVWesternZobrist@1@@Z 00000001400caea0 f   cutechess:westernboard.obj
 0001:000ca430       ?width@WesternBoard@Chess@@UEBAHXZ 00000001400cb430 f   cutechess:westernboard.obj
 0001:000ca440       ?height@WesternBoard@Chess@@UEBAHXZ 00000001400cb440 f   cutechess:westernboard.obj
 0001:000ca450       ?kingsCountAssertion@WesternBoard@Chess@@MEBA_NHH@Z 00000001400cb450 f   cutechess:westernboard.obj
 0001:000ca470       ?vInitialize@WesternBoard@Chess@@MEAAXXZ 00000001400cb470 f   cutechess:westernboard.obj
 0001:000cb7b0       ?captureType@WesternBoard@Chess@@MEBAHAEBVMove@2@@Z 00000001400cc7b0 f   cutechess:westernboard.obj
 0001:000cb870       ?moveFromStringCN@WesternBoard@Chess@@MEAA?AVMove@2@AEBVQString@@@Z 00000001400cc870 f   cutechess:westernboard.obj
 0001:000cb9b0       ?lanMoveString@WesternBoard@Chess@@MEAA?AVQString@@AEBVMove@2@@Z 00000001400cc9b0 f   cutechess:westernboard.obj
 0001:000cb9d0       ?ChineseMoveString@WesternBoard@Chess@@MEAA?AVQString@@AEBVMove@2@@Z 00000001400cc9d0 f   cutechess:westernboard.obj
 0001:000cbf30       ?moveFromLanString@WesternBoard@Chess@@MEAA?AVMove@2@AEBVQString@@@Z 00000001400ccf30 f   cutechess:westernboard.obj
 0001:000cbf50       ?vFenIncludeString@WesternBoard@Chess@@MEBA?AVQString@@W4FenNotation@Board@2@@Z 00000001400ccf50 f   cutechess:westernboard.obj
 0001:000cbf80       ?vFenString@WesternBoard@Chess@@MEBA?AVQString@@W4FenNotation@Board@2@@Z 00000001400ccf80 f   cutechess:westernboard.obj
 0001:000cc050       ?vSetFenString@WesternBoard@Chess@@MEAA_NAEBVQStringList@@@Z 00000001400cd050 f   cutechess:westernboard.obj
 0001:000cc2c0       ?vMakeMove@WesternBoard@Chess@@MEAAXAEBVMove@2@PEAVBoardTransition@2@@Z 00000001400cd2c0 f   cutechess:westernboard.obj
 0001:000cc620       ?vUndoMove@WesternBoard@Chess@@MEAAXAEBVMove@2@@Z 00000001400cd620 f   cutechess:westernboard.obj
 0001:000cc790       ?generateMovesForPiece@WesternBoard@Chess@@MEBAXAEAV?$QVarLengthArray@VMove@Chess@@$0BAA@@@HH@Z 00000001400cd790 f   cutechess:westernboard.obj
 0001:000cd690       ?inCheck@WesternBoard@Chess@@MEBA_NVSide@2@@Z 00000001400ce690 f   cutechess:westernboard.obj
 0001:000cd9e0       ?isLegalPosition@WesternBoard@Chess@@MEAA_NXZ 00000001400ce9e0 f   cutechess:westernboard.obj
 0001:000cda30       ?vIsLegalMove@WesternBoard@Chess@@MEAA_NAEBVMove@2@@Z 00000001400cea30 f   cutechess:westernboard.obj
 0001:000cdb20       ?reversibleMoveCount@WesternBoard@Chess@@UEBAHXZ 00000001400ceb20 f   cutechess:westernboard.obj
 0001:000cdb30       ?result@WesternBoard@Chess@@UEAA?AVResult@2@XZ 00000001400ceb30 f   cutechess:westernboard.obj
 0001:000cdec0       ??A?$QVarLengthArray@VQString@@$0BAA@@@QEAAAEAVQString@@H@Z 00000001400ceec0 f i cutechess:westernboard.obj
 0001:000cdf10       ?detach@?$QVector@UMoveData@WesternBoard@Chess@@@@QEAAXXZ 00000001400cef10 f i cutechess:westernboard.obj
 0001:000cdf90       ??1Zobrist@Chess@@UEAA@XZ  00000001400cef90 f i cutechess:westernzobrist.obj
 0001:000cdfa0       ??_EZobrist@Chess@@UEAAPEAXI@Z 00000001400cefa0 f i * CIL library *:* CIL module *
 0001:000cdfa0       ??_GZobrist@Chess@@UEAAPEAXI@Z 00000001400cefa0 f i cutechess:westernzobrist.obj
 0001:000cdfd0       ??_EWesternZobrist@Chess@@UEAAPEAXI@Z 00000001400cefd0 f i * CIL library *:* CIL module *
 0001:000cdfd0       ??_GWesternZobrist@Chess@@UEAAPEAXI@Z 00000001400cefd0 f i cutechess:westernzobrist.obj
 0001:000ce020       ?initialize@WesternZobrist@Chess@@UEAAXHH@Z 00000001400cf020 f   cutechess:westernzobrist.obj
 0001:000ce0e0       ?side@WesternZobrist@Chess@@UEBA_KXZ 00000001400cf0e0 f   cutechess:westernzobrist.obj
 0001:000ce0f0       ?piece@WesternZobrist@Chess@@UEBA_KAEBVPiece@2@H@Z 00000001400cf0f0 f   cutechess:westernzobrist.obj
 0001:000ce220       ?qt_static_metacall@HumanPlayer@@CAXPEAVQObject@@W4Call@QMetaObject@@HPEAPEAX@Z 00000001400cf220 f   cutechess:moc_humanplayer.obj
 0001:000ce3f0       ?metaObject@HumanPlayer@@UEBAPEBUQMetaObject@@XZ 00000001400cf3f0 f   cutechess:moc_humanplayer.obj
 0001:000ce410       ?qt_metacast@HumanPlayer@@UEAAPEAXPEBD@Z 00000001400cf410 f   cutechess:moc_humanplayer.obj
 0001:000ce490       ?qt_metacall@HumanPlayer@@UEAAHW4Call@QMetaObject@@HPEAPEAX@Z 00000001400cf490 f   cutechess:moc_humanplayer.obj
 0001:000ce540       ?wokeUp@HumanPlayer@@QEAAXXZ 00000001400cf540 f   cutechess:moc_humanplayer.obj
 0001:000ce560       ?qt_static_metacall@EngineProcess@@CAXPEAVQObject@@W4Call@QMetaObject@@HPEAPEAX@Z 00000001400cf560 f   cutechess:moc_engineprocess_win.obj
 0001:000ce5d0       ?metaObject@EngineProcess@@UEBAPEBUQMetaObject@@XZ 00000001400cf5d0 f   cutechess:moc_engineprocess_win.obj
 0001:000ce5f0       ?qt_metacast@EngineProcess@@UEAAPEAXPEBD@Z 00000001400cf5f0 f   cutechess:moc_engineprocess_win.obj
 0001:000ce640       ?qt_metacall@EngineProcess@@UEAAHW4Call@QMetaObject@@HPEAPEAX@Z 00000001400cf640 f   cutechess:moc_engineprocess_win.obj
 0001:000ce6b0       ?finished@EngineProcess@@QEAAXHW4ExitStatus@1@@Z 00000001400cf6b0 f   cutechess:moc_engineprocess_win.obj
 0001:000ce710       ??_EPipeReader@@UEAAPEAXI@Z 00000001400cf710 f i * CIL library *:* CIL module *
 0001:000ce710       ??_GPipeReader@@UEAAPEAXI@Z 00000001400cf710 f i cutechess:pipereader_win.obj
 0001:000ce770       ?run@PipeReader@@MEAAXXZ   00000001400cf770 f   cutechess:pipereader_win.obj
 0001:000ce970       ??_EEngineComboOption@@UEAAPEAXI@Z 00000001400cf970 f i * CIL library *:* CIL module *
 0001:000ce970       ??_GEngineComboOption@@UEAAPEAXI@Z 00000001400cf970 f i cutechess:enginecombooption.obj
 0001:000ce9e0       ?copy@EngineComboOption@@UEBAPEAVEngineOption@@XZ 00000001400cf9e0 f   cutechess:enginecombooption.obj
 0001:000cea40       ?isValid@EngineComboOption@@UEBA_NAEBVQVariant@@@Z 00000001400cfa40 f   cutechess:enginecombooption.obj
 0001:000cea90       ?toVariant@EngineComboOption@@UEBA?AVQVariant@@XZ 00000001400cfa90 f   cutechess:enginecombooption.obj
 0001:000cf2e0       ??0EngineButtonOption@@QEAA@AEBVQString@@@Z 00000001400d02e0 f   cutechess:enginebuttonoption.obj
 0001:000cf3c0       ?copy@EngineButtonOption@@UEBAPEAVEngineOption@@XZ 00000001400d03c0 f   cutechess:enginebuttonoption.obj
 0001:000cf410       ?isValid@EngineButtonOption@@UEBA_NAEBVQVariant@@@Z 00000001400d0410 f   cutechess:enginebuttonoption.obj
 0001:000cf420       ?toVariant@EngineButtonOption@@UEBA?AVQVariant@@XZ 00000001400d0420 f   cutechess:enginebuttonoption.obj
 0001:000cf720       ?copy@EngineCheckOption@@UEBAPEAVEngineOption@@XZ 00000001400d0720 f   cutechess:enginecheckoption.obj
 0001:000cf770       ?isValid@EngineCheckOption@@UEBA_NAEBVQVariant@@@Z 00000001400d0770 f   cutechess:enginecheckoption.obj
 0001:000cf7f0       ?toVariant@EngineCheckOption@@UEBA?AVQVariant@@XZ 00000001400d07f0 f   cutechess:enginecheckoption.obj
 0001:000cfea0       ?copy@EngineSpinOption@@UEBAPEAVEngineOption@@XZ 00000001400d0ea0 f   cutechess:enginespinoption.obj
 0001:000cfef0       ?isValid@EngineSpinOption@@UEBA_NAEBVQVariant@@@Z 00000001400d0ef0 f   cutechess:enginespinoption.obj
 0001:000cff50       ?toVariant@EngineSpinOption@@UEBA?AVQVariant@@XZ 00000001400d0f50 f   cutechess:enginespinoption.obj
 0001:000d0860       ?metaObject@UciEngine@@UEBAPEBUQMetaObject@@XZ 00000001400d1860 f   cutechess:moc_uciengine.obj
 0001:000d0880       ?qt_metacast@UciEngine@@UEAAPEAXPEBD@Z 00000001400d1880 f   cutechess:moc_uciengine.obj
 0001:000d0930       ?metaObject@PyramidTournament@@UEBAPEBUQMetaObject@@XZ 00000001400d1930 f   cutechess:moc_pyramidtournament.obj
 0001:000d0950       ?qt_metacast@PyramidTournament@@UEAAPEAXPEBD@Z 00000001400d1950 f   cutechess:moc_pyramidtournament.obj
 0001:000d09d0       ?qt_metacall@PyramidTournament@@UEAAHW4Call@QMetaObject@@HPEAPEAX@Z 00000001400d19d0 f   cutechess:moc_pyramidtournament.obj
 0001:000d09d0       ?qt_metacall@KnockoutTournament@@UEAAHW4Call@QMetaObject@@HPEAPEAX@Z 00000001400d19d0 f   cutechess:moc_knockouttournament.obj
 0001:000d09d0       ?qt_metacall@GauntletTournament@@UEAAHW4Call@QMetaObject@@HPEAPEAX@Z 00000001400d19d0 f   cutechess:moc_gauntlettournament.obj
 0001:000d09d0       ?qt_metacall@RoundRobinTournament@@UEAAHW4Call@QMetaObject@@HPEAPEAX@Z 00000001400d19d0 f   cutechess:moc_roundrobintournament.obj
 0001:000d09e0       ?metaObject@GauntletTournament@@UEBAPEBUQMetaObject@@XZ 00000001400d19e0 f   cutechess:moc_gauntlettournament.obj
 0001:000d0a00       ?qt_metacast@GauntletTournament@@UEAAPEAXPEBD@Z 00000001400d1a00 f   cutechess:moc_gauntlettournament.obj
 0001:000d0a80       ?metaObject@RoundRobinTournament@@UEBAPEBUQMetaObject@@XZ 00000001400d1a80 f   cutechess:moc_roundrobintournament.obj
 0001:000d0aa0       ?qt_metacast@RoundRobinTournament@@UEAAPEAXPEBD@Z 00000001400d1aa0 f   cutechess:moc_roundrobintournament.obj
 0001:000d0b20       ?metaObject@KnockoutTournament@@UEBAPEBUQMetaObject@@XZ 00000001400d1b20 f   cutechess:moc_knockouttournament.obj
 0001:000d0b40       ?qt_metacast@KnockoutTournament@@UEAAPEAXPEBD@Z 00000001400d1b40 f   cutechess:moc_knockouttournament.obj
 0001:000d0bc0       ?initialize@Zobrist@Chess@@UEAAXHH@Z 00000001400d1bc0 f   cutechess:zobrist.obj
 0001:000d0c60       ?side@Zobrist@Chess@@UEBA_KXZ 00000001400d1c60 f   cutechess:zobrist.obj
 0001:000d0c70       ?piece@Zobrist@Chess@@UEBA_KAEBVPiece@2@H@Z 00000001400d1c70 f   cutechess:zobrist.obj
 0001:000d0d50       ?reservePiece@Zobrist@Chess@@UEBA_KAEBVPiece@2@H@Z 00000001400d1d50 f   cutechess:zobrist.obj
 0001:000d0db0       ?qt_static_metacall@PipeReader@@CAXPEAVQObject@@W4Call@QMetaObject@@HPEAPEAX@Z 00000001400d1db0 f   cutechess:moc_pipereader_win.obj
 0001:000d0df0       ?metaObject@PipeReader@@UEBAPEBUQMetaObject@@XZ 00000001400d1df0 f   cutechess:moc_pipereader_win.obj
 0001:000d0e10       ?qt_metacast@PipeReader@@UEAAPEAXPEBD@Z 00000001400d1e10 f   cutechess:moc_pipereader_win.obj
 0001:000d0e60       ?qt_metacall@PipeReader@@UEAAHW4Call@QMetaObject@@HPEAPEAX@Z 00000001400d1e60 f   cutechess:moc_pipereader_win.obj
 0001:000d0ee0       ?readyRead@PipeReader@@QEAAXXZ 00000001400d1ee0 f   cutechess:moc_pipereader_win.obj
 0001:000d0ef4       ?qt_metacall@QSvgRenderer@@UEAAHW4Call@QMetaObject@@HPEAPEAX@Z 00000001400d1ef4 f   Qt5Svg:Qt5Svg.dll
 0001:000d0efa       ?qt_metacast@QSvgRenderer@@UEAAPEAXPEBD@Z 00000001400d1efa f   Qt5Svg:Qt5Svg.dll
 0001:000d0f00       ?metaObject@QSvgRenderer@@UEBAPEBUQMetaObject@@XZ 00000001400d1f00 f   Qt5Svg:Qt5Svg.dll
 0001:000d0f06       ?qt_metacall@QVBoxLayout@@UEAAHW4Call@QMetaObject@@HPEAPEAX@Z 00000001400d1f06 f   Qt5Widgets:Qt5Widgets.dll
 0001:000d0f0c       ?qt_metacast@QVBoxLayout@@UEAAPEAXPEBD@Z 00000001400d1f0c f   Qt5Widgets:Qt5Widgets.dll
 0001:000d0f12       ?metaObject@QVBoxLayout@@UEBAPEBUQMetaObject@@XZ 00000001400d1f12 f   Qt5Widgets:Qt5Widgets.dll
 0001:000d0f18       ?setGeometry@QBoxLayout@@UEAAXAEBVQRect@@@Z 00000001400d1f18 f   Qt5Widgets:Qt5Widgets.dll
 0001:000d0f1e       ?count@QBoxLayout@@UEBAHXZ 00000001400d1f1e f   Qt5Widgets:Qt5Widgets.dll
 0001:000d0f24       ?takeAt@QBoxLayout@@UEAAPEAVQLayoutItem@@H@Z 00000001400d1f24 f   Qt5Widgets:Qt5Widgets.dll
 0001:000d0f2a       ?itemAt@QBoxLayout@@UEBAPEAVQLayoutItem@@H@Z 00000001400d1f2a f   Qt5Widgets:Qt5Widgets.dll
 0001:000d0f30       ?invalidate@QBoxLayout@@UEAAXXZ 00000001400d1f30 f   Qt5Widgets:Qt5Widgets.dll
 0001:000d0f36       ?expandingDirections@QBoxLayout@@UEBA?AV?$QFlags@W4Orientation@Qt@@@@XZ 00000001400d1f36 f   Qt5Widgets:Qt5Widgets.dll
 0001:000d0f3c       ?minimumHeightForWidth@QBoxLayout@@UEBAHH@Z 00000001400d1f3c f   Qt5Widgets:Qt5Widgets.dll
 0001:000d0f42       ?heightForWidth@QBoxLayout@@UEBAHH@Z 00000001400d1f42 f   Qt5Widgets:Qt5Widgets.dll
 0001:000d0f48       ?hasHeightForWidth@QBoxLayout@@UEBA_NXZ 00000001400d1f48 f   Qt5Widgets:Qt5Widgets.dll
 0001:000d0f4e       ?maximumSize@QBoxLayout@@UEBA?AVQSize@@XZ 00000001400d1f4e f   Qt5Widgets:Qt5Widgets.dll
 0001:000d0f54       ?minimumSize@QBoxLayout@@UEBA?AVQSize@@XZ 00000001400d1f54 f   Qt5Widgets:Qt5Widgets.dll
 0001:000d0f5a       ?sizeHint@QBoxLayout@@UEBA?AVQSize@@XZ 00000001400d1f5a f   Qt5Widgets:Qt5Widgets.dll
 0001:000d0f60       ?addItem@QBoxLayout@@UEAAXPEAVQLayoutItem@@@Z 00000001400d1f60 f   Qt5Widgets:Qt5Widgets.dll
 0001:000d0f66       ?viewportSizeHint@QAbstractScrollArea@@MEBA?AVQSize@@XZ 00000001400d1f66 f   Qt5Widgets:Qt5Widgets.dll
 0001:000d0f6c       ?eventFilter@QAbstractScrollArea@@MEAA_NPEAVQObject@@PEAVQEvent@@@Z 00000001400d1f6c f   Qt5Widgets:Qt5Widgets.dll
 0001:000d0f72       ?minimumSizeHint@QAbstractScrollArea@@UEBA?AVQSize@@XZ 00000001400d1f72 f   Qt5Widgets:Qt5Widgets.dll
 0001:000d0f78       ?spacerItem@QLayoutItem@@UEAAPEAVQSpacerItem@@XZ 00000001400d1f78 f   Qt5Widgets:Qt5Widgets.dll
 0001:000d0f7e       ?widget@QLayoutItem@@UEAAPEAVQWidget@@XZ 00000001400d1f7e f   Qt5Widgets:Qt5Widgets.dll
 0001:000d0f84       ?childEvent@QLayout@@MEAAXPEAVQChildEvent@@@Z 00000001400d1f84 f   Qt5Widgets:Qt5Widgets.dll
 0001:000d0f8a       ?layout@QLayout@@UEAAPEAV1@XZ 00000001400d1f8a f   Qt5Widgets:Qt5Widgets.dll
 0001:000d0f90       ?controlTypes@QLayout@@UEBA?AV?$QFlags@W4ControlType@QSizePolicy@@@@XZ 00000001400d1f90 f   Qt5Widgets:Qt5Widgets.dll
 0001:000d0f96       ?isEmpty@QLayout@@UEBA_NXZ 00000001400d1f96 f   Qt5Widgets:Qt5Widgets.dll
 0001:000d0f9c       ?indexOf@QLayout@@UEBAHPEAVQWidget@@@Z 00000001400d1f9c f   Qt5Widgets:Qt5Widgets.dll
 0001:000d0fa2       ?geometry@QLayout@@UEBA?AVQRect@@XZ 00000001400d1fa2 f   Qt5Widgets:Qt5Widgets.dll
 0001:000d0fa8       ?changeEvent@QFrame@@MEAAXPEAVQEvent@@@Z 00000001400d1fa8 f   Qt5Widgets:Qt5Widgets.dll
 0001:000d0fae       ?drawItems@QGraphicsView@@MEAAXPEAVQPainter@@HQEAPEAVQGraphicsItem@@QEBVQStyleOptionGraphicsItem@@@Z 00000001400d1fae f   Qt5Widgets:Qt5Widgets.dll
 0001:000d0fb4       ?drawForeground@QGraphicsView@@MEAAXPEAVQPainter@@AEBVQRectF@@@Z 00000001400d1fb4 f   Qt5Widgets:Qt5Widgets.dll
 0001:000d0fba       ?drawBackground@QGraphicsView@@MEAAXPEAVQPainter@@AEBVQRectF@@@Z 00000001400d1fba f   Qt5Widgets:Qt5Widgets.dll
 0001:000d0fc0       ?inputMethodEvent@QGraphicsView@@MEAAXPEAVQInputMethodEvent@@@Z 00000001400d1fc0 f   Qt5Widgets:Qt5Widgets.dll
 0001:000d0fc6       ?showEvent@QGraphicsView@@MEAAXPEAVQShowEvent@@@Z 00000001400d1fc6 f   Qt5Widgets:Qt5Widgets.dll
 0001:000d0fcc       ?scrollContentsBy@QGraphicsView@@MEAAXHH@Z 00000001400d1fcc f   Qt5Widgets:Qt5Widgets.dll
 0001:000d0fd2       ?resizeEvent@QGraphicsView@@MEAAXPEAVQResizeEvent@@@Z 00000001400d1fd2 f   Qt5Widgets:Qt5Widgets.dll
 0001:000d0fd8       ?paintEvent@QGraphicsView@@MEAAXPEAVQPaintEvent@@@Z 00000001400d1fd8 f   Qt5Widgets:Qt5Widgets.dll
 0001:000d0fde       ?wheelEvent@QGraphicsView@@MEAAXPEAVQWheelEvent@@@Z 00000001400d1fde f   Qt5Widgets:Qt5Widgets.dll
 0001:000d0fe4       ?mouseReleaseEvent@QGraphicsView@@MEAAXPEAVQMouseEvent@@@Z 00000001400d1fe4 f   Qt5Widgets:Qt5Widgets.dll
 0001:000d0fea       ?mouseMoveEvent@QGraphicsView@@MEAAXPEAVQMouseEvent@@@Z 00000001400d1fea f   Qt5Widgets:Qt5Widgets.dll
 0001:000d0ff0       ?mousePressEvent@QGraphicsView@@MEAAXPEAVQMouseEvent@@@Z 00000001400d1ff0 f   Qt5Widgets:Qt5Widgets.dll
 0001:000d0ff6       ?mouseDoubleClickEvent@QGraphicsView@@MEAAXPEAVQMouseEvent@@@Z 00000001400d1ff6 f   Qt5Widgets:Qt5Widgets.dll
 0001:000d0ffc       ?keyReleaseEvent@QGraphicsView@@MEAAXPEAVQKeyEvent@@@Z 00000001400d1ffc f   Qt5Widgets:Qt5Widgets.dll
 0001:000d1002       ?keyPressEvent@QGraphicsView@@MEAAXPEAVQKeyEvent@@@Z 00000001400d2002 f   Qt5Widgets:Qt5Widgets.dll
 0001:000d1008       ?focusOutEvent@QGraphicsView@@MEAAXPEAVQFocusEvent@@@Z 00000001400d2008 f   Qt5Widgets:Qt5Widgets.dll
 0001:000d100e       ?focusNextPrevChild@QGraphicsView@@MEAA_N_N@Z 00000001400d200e f   Qt5Widgets:Qt5Widgets.dll
 0001:000d1014       ?focusInEvent@QGraphicsView@@MEAAXPEAVQFocusEvent@@@Z 00000001400d2014 f   Qt5Widgets:Qt5Widgets.dll
 0001:000d101a       ?dropEvent@QGraphicsView@@MEAAXPEAVQDropEvent@@@Z 00000001400d201a f   Qt5Widgets:Qt5Widgets.dll
 0001:000d1020       ?dragMoveEvent@QGraphicsView@@MEAAXPEAVQDragMoveEvent@@@Z 00000001400d2020 f   Qt5Widgets:Qt5Widgets.dll
 0001:000d1026       ?dragLeaveEvent@QGraphicsView@@MEAAXPEAVQDragLeaveEvent@@@Z 00000001400d2026 f   Qt5Widgets:Qt5Widgets.dll
 0001:000d102c       ?dragEnterEvent@QGraphicsView@@MEAAXPEAVQDragEnterEvent@@@Z 00000001400d202c f   Qt5Widgets:Qt5Widgets.dll
 0001:000d1032       ?contextMenuEvent@QGraphicsView@@MEAAXPEAVQContextMenuEvent@@@Z 00000001400d2032 f   Qt5Widgets:Qt5Widgets.dll
 0001:000d1038       ?viewportEvent@QGraphicsView@@MEAA_NPEAVQEvent@@@Z 00000001400d2038 f   Qt5Widgets:Qt5Widgets.dll
 0001:000d103e       ?event@QGraphicsView@@MEAA_NPEAVQEvent@@@Z 00000001400d203e f   Qt5Widgets:Qt5Widgets.dll
 0001:000d1044       ?setupViewport@QGraphicsView@@MEAAXPEAVQWidget@@@Z 00000001400d2044 f   Qt5Widgets:Qt5Widgets.dll
 0001:000d104a       ?inputMethodQuery@QGraphicsView@@UEBA?AVQVariant@@W4InputMethodQuery@Qt@@@Z 00000001400d204a f   Qt5Widgets:Qt5Widgets.dll
 0001:000d1050       ?sizeHint@QGraphicsView@@UEBA?AVQSize@@XZ 00000001400d2050 f   Qt5Widgets:Qt5Widgets.dll
 0001:000d1056       ??1QGraphicsView@@UEAA@XZ  00000001400d2056 f   Qt5Widgets:Qt5Widgets.dll
 0001:000d105c       ?qt_metacall@QGraphicsView@@UEAAHW4Call@QMetaObject@@HPEAPEAX@Z 00000001400d205c f   Qt5Widgets:Qt5Widgets.dll
 0001:000d1062       ?qt_metacast@QGraphicsView@@UEAAPEAXPEBD@Z 00000001400d2062 f   Qt5Widgets:Qt5Widgets.dll
 0001:000d1068       ?metaObject@QGraphicsView@@UEBAPEBUQMetaObject@@XZ 00000001400d2068 f   Qt5Widgets:Qt5Widgets.dll
 0001:000d106e       ?eventFilter@QDialog@@MEAA_NPEAVQObject@@PEAVQEvent@@@Z 00000001400d206e f   Qt5Widgets:Qt5Widgets.dll
 0001:000d1074       ?contextMenuEvent@QDialog@@MEAAXPEAVQContextMenuEvent@@@Z 00000001400d2074 f   Qt5Widgets:Qt5Widgets.dll
 0001:000d107a       ?resizeEvent@QDialog@@MEAAXPEAVQResizeEvent@@@Z 00000001400d207a f   Qt5Widgets:Qt5Widgets.dll
 0001:000d1080       ?showEvent@QDialog@@MEAAXPEAVQShowEvent@@@Z 00000001400d2080 f   Qt5Widgets:Qt5Widgets.dll
 0001:000d1086       ?closeEvent@QDialog@@MEAAXPEAVQCloseEvent@@@Z 00000001400d2086 f   Qt5Widgets:Qt5Widgets.dll
 0001:000d108c       ?keyPressEvent@QDialog@@MEAAXPEAVQKeyEvent@@@Z 00000001400d208c f   Qt5Widgets:Qt5Widgets.dll
 0001:000d1092       ?reject@QDialog@@UEAAXXZ   00000001400d2092 f   Qt5Widgets:Qt5Widgets.dll
 0001:000d1098       ?accept@QDialog@@UEAAXXZ   00000001400d2098 f   Qt5Widgets:Qt5Widgets.dll
 0001:000d109e       ?done@QDialog@@UEAAXH@Z    00000001400d209e f   Qt5Widgets:Qt5Widgets.dll
 0001:000d10a4       ?exec@QDialog@@UEAAHXZ     00000001400d20a4 f   Qt5Widgets:Qt5Widgets.dll
 0001:000d10aa       ?open@QDialog@@UEAAXXZ     00000001400d20aa f   Qt5Widgets:Qt5Widgets.dll
 0001:000d10b0       ?minimumSizeHint@QDialog@@UEBA?AVQSize@@XZ 00000001400d20b0 f   Qt5Widgets:Qt5Widgets.dll
 0001:000d10b6       ?sizeHint@QDialog@@UEBA?AVQSize@@XZ 00000001400d20b6 f   Qt5Widgets:Qt5Widgets.dll
 0001:000d10bc       ?setVisible@QDialog@@UEAAX_N@Z 00000001400d20bc f   Qt5Widgets:Qt5Widgets.dll
 0001:000d10c2       ??1QDialog@@UEAA@XZ        00000001400d20c2 f   Qt5Widgets:Qt5Widgets.dll
 0001:000d10c8       ?qt_metacall@QHBoxLayout@@UEAAHW4Call@QMetaObject@@HPEAPEAX@Z 00000001400d20c8 f   Qt5Widgets:Qt5Widgets.dll
 0001:000d10ce       ?qt_metacast@QHBoxLayout@@UEAAPEAXPEBD@Z 00000001400d20ce f   Qt5Widgets:Qt5Widgets.dll
 0001:000d10d4       ?metaObject@QHBoxLayout@@UEBAPEBUQMetaObject@@XZ 00000001400d20d4 f   Qt5Widgets:Qt5Widgets.dll
 0001:000d10da       ?event@QDialogButtonBox@@MEAA_NPEAVQEvent@@@Z 00000001400d20da f   Qt5Widgets:Qt5Widgets.dll
 0001:000d10e0       ?changeEvent@QDialogButtonBox@@MEAAXPEAVQEvent@@@Z 00000001400d20e0 f   Qt5Widgets:Qt5Widgets.dll
 0001:000d10e6       ?qt_metacall@QDialogButtonBox@@UEAAHW4Call@QMetaObject@@HPEAPEAX@Z 00000001400d20e6 f   Qt5Widgets:Qt5Widgets.dll
 0001:000d10ec       ?qt_metacast@QDialogButtonBox@@UEAAPEAXPEBD@Z 00000001400d20ec f   Qt5Widgets:Qt5Widgets.dll
 0001:000d10f2       ?metaObject@QDialogButtonBox@@UEBAPEBUQMetaObject@@XZ 00000001400d20f2 f   Qt5Widgets:Qt5Widgets.dll
 0001:000d10f8       ?focusNextPrevChild@QWidget@@MEAA_N_N@Z 00000001400d20f8 f   Qt5Widgets:Qt5Widgets.dll
 0001:000d10fe       ?inputMethodQuery@QWidget@@UEBA?AVQVariant@@W4InputMethodQuery@Qt@@@Z 00000001400d20fe f   Qt5Widgets:Qt5Widgets.dll
 0001:000d1104       ?inputMethodEvent@QWidget@@MEAAXPEAVQInputMethodEvent@@@Z 00000001400d2104 f   Qt5Widgets:Qt5Widgets.dll
 0001:000d110a       ?sharedPainter@QWidget@@MEBAPEAVQPainter@@XZ 00000001400d210a f   Qt5Widgets:Qt5Widgets.dll
 0001:000d1110       ?redirected@QWidget@@MEBAPEAVQPaintDevice@@PEAVQPoint@@@Z 00000001400d2110 f   Qt5Widgets:Qt5Widgets.dll
 0001:000d1116       ?initPainter@QWidget@@MEBAXPEAVQPainter@@@Z 00000001400d2116 f   Qt5Widgets:Qt5Widgets.dll
 0001:000d111c       ?metric@QWidget@@MEBAHW4PaintDeviceMetric@QPaintDevice@@@Z 00000001400d211c f   Qt5Widgets:Qt5Widgets.dll
 0001:000d1122       ?changeEvent@QWidget@@MEAAXPEAVQEvent@@@Z 00000001400d2122 f   Qt5Widgets:Qt5Widgets.dll
 0001:000d1128       ?nativeEvent@QWidget@@MEAA_NAEBVQByteArray@@PEAXPEAJ@Z 00000001400d2128 f   Qt5Widgets:Qt5Widgets.dll
 0001:000d112e       ?hideEvent@QWidget@@MEAAXPEAVQHideEvent@@@Z 00000001400d212e f   Qt5Widgets:Qt5Widgets.dll
 0001:000d1134       ?showEvent@QWidget@@MEAAXPEAVQShowEvent@@@Z 00000001400d2134 f   Qt5Widgets:Qt5Widgets.dll
 0001:000d113a       ?dropEvent@QWidget@@MEAAXPEAVQDropEvent@@@Z 00000001400d213a f   Qt5Widgets:Qt5Widgets.dll
 0001:000d1140       ?dragLeaveEvent@QWidget@@MEAAXPEAVQDragLeaveEvent@@@Z 00000001400d2140 f   Qt5Widgets:Qt5Widgets.dll
 0001:000d1146       ?dragMoveEvent@QWidget@@MEAAXPEAVQDragMoveEvent@@@Z 00000001400d2146 f   Qt5Widgets:Qt5Widgets.dll
 0001:000d114c       ?dragEnterEvent@QWidget@@MEAAXPEAVQDragEnterEvent@@@Z 00000001400d214c f   Qt5Widgets:Qt5Widgets.dll
 0001:000d1152       ?actionEvent@QWidget@@MEAAXPEAVQActionEvent@@@Z 00000001400d2152 f   Qt5Widgets:Qt5Widgets.dll
 0001:000d1158       ?tabletEvent@QWidget@@MEAAXPEAVQTabletEvent@@@Z 00000001400d2158 f   Qt5Widgets:Qt5Widgets.dll
 0001:000d115e       ?contextMenuEvent@QWidget@@MEAAXPEAVQContextMenuEvent@@@Z 00000001400d215e f   Qt5Widgets:Qt5Widgets.dll
 0001:000d1164       ?closeEvent@QWidget@@MEAAXPEAVQCloseEvent@@@Z 00000001400d2164 f   Qt5Widgets:Qt5Widgets.dll
 0001:000d116a       ?resizeEvent@QWidget@@MEAAXPEAVQResizeEvent@@@Z 00000001400d216a f   Qt5Widgets:Qt5Widgets.dll
 0001:000d1170       ?moveEvent@QWidget@@MEAAXPEAVQMoveEvent@@@Z 00000001400d2170 f   Qt5Widgets:Qt5Widgets.dll
 0001:000d1176       ?paintEvent@QWidget@@MEAAXPEAVQPaintEvent@@@Z 00000001400d2176 f   Qt5Widgets:Qt5Widgets.dll
 0001:000d117c       ?leaveEvent@QWidget@@MEAAXPEAVQEvent@@@Z 00000001400d217c f   Qt5Widgets:Qt5Widgets.dll
 0001:000d1182       ?enterEvent@QWidget@@MEAAXPEAVQEvent@@@Z 00000001400d2182 f   Qt5Widgets:Qt5Widgets.dll
 0001:000d1188       ?focusOutEvent@QWidget@@MEAAXPEAVQFocusEvent@@@Z 00000001400d2188 f   Qt5Widgets:Qt5Widgets.dll
 0001:000d118e       ?focusInEvent@QWidget@@MEAAXPEAVQFocusEvent@@@Z 00000001400d218e f   Qt5Widgets:Qt5Widgets.dll
 0001:000d1194       ?keyReleaseEvent@QWidget@@MEAAXPEAVQKeyEvent@@@Z 00000001400d2194 f   Qt5Widgets:Qt5Widgets.dll
 0001:000d119a       ?keyPressEvent@QWidget@@MEAAXPEAVQKeyEvent@@@Z 00000001400d219a f   Qt5Widgets:Qt5Widgets.dll
 0001:000d11a0       ?wheelEvent@QWidget@@MEAAXPEAVQWheelEvent@@@Z 00000001400d21a0 f   Qt5Widgets:Qt5Widgets.dll
 0001:000d11a6       ?mouseMoveEvent@QWidget@@MEAAXPEAVQMouseEvent@@@Z 00000001400d21a6 f   Qt5Widgets:Qt5Widgets.dll
 0001:000d11ac       ?mouseDoubleClickEvent@QWidget@@MEAAXPEAVQMouseEvent@@@Z 00000001400d21ac f   Qt5Widgets:Qt5Widgets.dll
 0001:000d11b2       ?mouseReleaseEvent@QWidget@@MEAAXPEAVQMouseEvent@@@Z 00000001400d21b2 f   Qt5Widgets:Qt5Widgets.dll
 0001:000d11b8       ?mousePressEvent@QWidget@@MEAAXPEAVQMouseEvent@@@Z 00000001400d21b8 f   Qt5Widgets:Qt5Widgets.dll
 0001:000d11be       ?event@QWidget@@MEAA_NPEAVQEvent@@@Z 00000001400d21be f   Qt5Widgets:Qt5Widgets.dll
 0001:000d11c4       ?paintEngine@QWidget@@UEBAPEAVQPaintEngine@@XZ 00000001400d21c4 f   Qt5Widgets:Qt5Widgets.dll
 0001:000d11ca       ?hasHeightForWidth@QWidget@@UEBA_NXZ 00000001400d21ca f   Qt5Widgets:Qt5Widgets.dll
 0001:000d11d0       ?heightForWidth@QWidget@@UEBAHH@Z 00000001400d21d0 f   Qt5Widgets:Qt5Widgets.dll
 0001:000d11d6       ?minimumSizeHint@QWidget@@UEBA?AVQSize@@XZ 00000001400d21d6 f   Qt5Widgets:Qt5Widgets.dll
 0001:000d11dc       ?sizeHint@QWidget@@UEBA?AVQSize@@XZ 00000001400d21dc f   Qt5Widgets:Qt5Widgets.dll
 0001:000d11e2       ?setVisible@QWidget@@UEAAX_N@Z 00000001400d21e2 f   Qt5Widgets:Qt5Widgets.dll
 0001:000d11e8       ?devType@QWidget@@UEBAHXZ  00000001400d21e8 f   Qt5Widgets:Qt5Widgets.dll
 0001:000d11ee       ?inputMethodEvent@QComboBox@@MEAAXPEAVQInputMethodEvent@@@Z 00000001400d21ee f   Qt5Widgets:Qt5Widgets.dll
 0001:000d11f4       ?contextMenuEvent@QComboBox@@MEAAXPEAVQContextMenuEvent@@@Z 00000001400d21f4 f   Qt5Widgets:Qt5Widgets.dll
 0001:000d11fa       ?wheelEvent@QComboBox@@MEAAXPEAVQWheelEvent@@@Z 00000001400d21fa f   Qt5Widgets:Qt5Widgets.dll
 0001:000d1200       ?keyReleaseEvent@QComboBox@@MEAAXPEAVQKeyEvent@@@Z 00000001400d2200 f   Qt5Widgets:Qt5Widgets.dll
 0001:000d1206       ?keyPressEvent@QComboBox@@MEAAXPEAVQKeyEvent@@@Z 00000001400d2206 f   Qt5Widgets:Qt5Widgets.dll
 0001:000d120c       ?mouseReleaseEvent@QComboBox@@MEAAXPEAVQMouseEvent@@@Z 00000001400d220c f   Qt5Widgets:Qt5Widgets.dll
 0001:000d1212       ?mousePressEvent@QComboBox@@MEAAXPEAVQMouseEvent@@@Z 00000001400d2212 f   Qt5Widgets:Qt5Widgets.dll
 0001:000d1218       ?hideEvent@QComboBox@@MEAAXPEAVQHideEvent@@@Z 00000001400d2218 f   Qt5Widgets:Qt5Widgets.dll
 0001:000d121e       ?showEvent@QComboBox@@MEAAXPEAVQShowEvent@@@Z 00000001400d221e f   Qt5Widgets:Qt5Widgets.dll
 0001:000d1224       ?paintEvent@QComboBox@@MEAAXPEAVQPaintEvent@@@Z 00000001400d2224 f   Qt5Widgets:Qt5Widgets.dll
 0001:000d122a       ?resizeEvent@QComboBox@@MEAAXPEAVQResizeEvent@@@Z 00000001400d222a f   Qt5Widgets:Qt5Widgets.dll
 0001:000d1230       ?changeEvent@QComboBox@@MEAAXPEAVQEvent@@@Z 00000001400d2230 f   Qt5Widgets:Qt5Widgets.dll
 0001:000d1236       ?focusOutEvent@QComboBox@@MEAAXPEAVQFocusEvent@@@Z 00000001400d2236 f   Qt5Widgets:Qt5Widgets.dll
 0001:000d123c       ?focusInEvent@QComboBox@@MEAAXPEAVQFocusEvent@@@Z 00000001400d223c f   Qt5Widgets:Qt5Widgets.dll
 0001:000d1242       ?inputMethodQuery@QComboBox@@UEBA?AVQVariant@@W4InputMethodQuery@Qt@@@Z 00000001400d2242 f   Qt5Widgets:Qt5Widgets.dll
 0001:000d1248       ?event@QComboBox@@UEAA_NPEAVQEvent@@@Z 00000001400d2248 f   Qt5Widgets:Qt5Widgets.dll
 0001:000d124e       ?hidePopup@QComboBox@@UEAAXXZ 00000001400d224e f   Qt5Widgets:Qt5Widgets.dll
 0001:000d1254       ?showPopup@QComboBox@@UEAAXXZ 00000001400d2254 f   Qt5Widgets:Qt5Widgets.dll
 0001:000d125a       ?minimumSizeHint@QComboBox@@UEBA?AVQSize@@XZ 00000001400d225a f   Qt5Widgets:Qt5Widgets.dll
 0001:000d1260       ?sizeHint@QComboBox@@UEBA?AVQSize@@XZ 00000001400d2260 f   Qt5Widgets:Qt5Widgets.dll
 0001:000d1266       ?qt_metacall@QComboBox@@UEAAHW4Call@QMetaObject@@HPEAPEAX@Z 00000001400d2266 f   Qt5Widgets:Qt5Widgets.dll
 0001:000d126c       ?qt_metacast@QComboBox@@UEAAPEAXPEBD@Z 00000001400d226c f   Qt5Widgets:Qt5Widgets.dll
 0001:000d1272       ?metaObject@QComboBox@@UEBAPEBUQMetaObject@@XZ 00000001400d2272 f   Qt5Widgets:Qt5Widgets.dll
 0001:000d1278       ?focusNextPrevChild@QLabel@@MEAA_N_N@Z 00000001400d2278 f   Qt5Widgets:Qt5Widgets.dll
 0001:000d127e       ?focusOutEvent@QLabel@@MEAAXPEAVQFocusEvent@@@Z 00000001400d227e f   Qt5Widgets:Qt5Widgets.dll
 0001:000d1284       ?focusInEvent@QLabel@@MEAAXPEAVQFocusEvent@@@Z 00000001400d2284 f   Qt5Widgets:Qt5Widgets.dll
 0001:000d128a       ?contextMenuEvent@QLabel@@MEAAXPEAVQContextMenuEvent@@@Z 00000001400d228a f   Qt5Widgets:Qt5Widgets.dll
 0001:000d1290       ?mouseReleaseEvent@QLabel@@MEAAXPEAVQMouseEvent@@@Z 00000001400d2290 f   Qt5Widgets:Qt5Widgets.dll
 0001:000d1296       ?mouseMoveEvent@QLabel@@MEAAXPEAVQMouseEvent@@@Z 00000001400d2296 f   Qt5Widgets:Qt5Widgets.dll
 0001:000d129c       ?mousePressEvent@QLabel@@MEAAXPEAVQMouseEvent@@@Z 00000001400d229c f   Qt5Widgets:Qt5Widgets.dll
 0001:000d12a2       ?changeEvent@QLabel@@MEAAXPEAVQEvent@@@Z 00000001400d22a2 f   Qt5Widgets:Qt5Widgets.dll
 0001:000d12a8       ?paintEvent@QLabel@@MEAAXPEAVQPaintEvent@@@Z 00000001400d22a8 f   Qt5Widgets:Qt5Widgets.dll
 0001:000d12ae       ?keyPressEvent@QLabel@@MEAAXPEAVQKeyEvent@@@Z 00000001400d22ae f   Qt5Widgets:Qt5Widgets.dll
 0001:000d12b4       ?event@QLabel@@MEAA_NPEAVQEvent@@@Z 00000001400d22b4 f   Qt5Widgets:Qt5Widgets.dll
 0001:000d12ba       ?heightForWidth@QLabel@@UEBAHH@Z 00000001400d22ba f   Qt5Widgets:Qt5Widgets.dll
 0001:000d12c0       ?minimumSizeHint@QLabel@@UEBA?AVQSize@@XZ 00000001400d22c0 f   Qt5Widgets:Qt5Widgets.dll
 0001:000d12c6       ?sizeHint@QLabel@@UEBA?AVQSize@@XZ 00000001400d22c6 f   Qt5Widgets:Qt5Widgets.dll
 0001:000d12cc       ?qt_metacall@QLabel@@UEAAHW4Call@QMetaObject@@HPEAPEAX@Z 00000001400d22cc f   Qt5Widgets:Qt5Widgets.dll
 0001:000d12d2       ?qt_metacast@QLabel@@UEAAPEAXPEBD@Z 00000001400d22d2 f   Qt5Widgets:Qt5Widgets.dll
 0001:000d12d8       ?metaObject@QLabel@@UEBAPEBUQMetaObject@@XZ 00000001400d22d8 f   Qt5Widgets:Qt5Widgets.dll
 0001:000d12de       ?drawItems@QGraphicsScene@@MEAAXPEAVQPainter@@HQEAPEAVQGraphicsItem@@QEBVQStyleOptionGraphicsItem@@PEAVQWidget@@@Z 00000001400d22de f   Qt5Widgets:Qt5Widgets.dll
 0001:000d12e4       ?drawForeground@QGraphicsScene@@MEAAXPEAVQPainter@@AEBVQRectF@@@Z 00000001400d22e4 f   Qt5Widgets:Qt5Widgets.dll
 0001:000d12ea       ?drawBackground@QGraphicsScene@@MEAAXPEAVQPainter@@AEBVQRectF@@@Z 00000001400d22ea f   Qt5Widgets:Qt5Widgets.dll
 0001:000d12f0       ?inputMethodEvent@QGraphicsScene@@MEAAXPEAVQInputMethodEvent@@@Z 00000001400d22f0 f   Qt5Widgets:Qt5Widgets.dll
 0001:000d12f6       ?wheelEvent@QGraphicsScene@@MEAAXPEAVQGraphicsSceneWheelEvent@@@Z 00000001400d22f6 f   Qt5Widgets:Qt5Widgets.dll
 0001:000d12fc       ?mouseDoubleClickEvent@QGraphicsScene@@MEAAXPEAVQGraphicsSceneMouseEvent@@@Z 00000001400d22fc f   Qt5Widgets:Qt5Widgets.dll
 0001:000d1302       ?mouseMoveEvent@QGraphicsScene@@MEAAXPEAVQGraphicsSceneMouseEvent@@@Z 00000001400d2302 f   Qt5Widgets:Qt5Widgets.dll
 0001:000d1308       ?keyReleaseEvent@QGraphicsScene@@MEAAXPEAVQKeyEvent@@@Z 00000001400d2308 f   Qt5Widgets:Qt5Widgets.dll
 0001:000d130e       ?keyPressEvent@QGraphicsScene@@MEAAXPEAVQKeyEvent@@@Z 00000001400d230e f   Qt5Widgets:Qt5Widgets.dll
 0001:000d1314       ?helpEvent@QGraphicsScene@@MEAAXPEAVQGraphicsSceneHelpEvent@@@Z 00000001400d2314 f   Qt5Widgets:Qt5Widgets.dll
 0001:000d131a       ?focusOutEvent@QGraphicsScene@@MEAAXPEAVQFocusEvent@@@Z 00000001400d231a f   Qt5Widgets:Qt5Widgets.dll
 0001:000d1320       ?focusInEvent@QGraphicsScene@@MEAAXPEAVQFocusEvent@@@Z 00000001400d2320 f   Qt5Widgets:Qt5Widgets.dll
 0001:000d1326       ?dropEvent@QGraphicsScene@@MEAAXPEAVQGraphicsSceneDragDropEvent@@@Z 00000001400d2326 f   Qt5Widgets:Qt5Widgets.dll
 0001:000d132c       ?dragLeaveEvent@QGraphicsScene@@MEAAXPEAVQGraphicsSceneDragDropEvent@@@Z 00000001400d232c f   Qt5Widgets:Qt5Widgets.dll
 0001:000d1332       ?dragMoveEvent@QGraphicsScene@@MEAAXPEAVQGraphicsSceneDragDropEvent@@@Z 00000001400d2332 f   Qt5Widgets:Qt5Widgets.dll
 0001:000d1338       ?dragEnterEvent@QGraphicsScene@@MEAAXPEAVQGraphicsSceneDragDropEvent@@@Z 00000001400d2338 f   Qt5Widgets:Qt5Widgets.dll
 0001:000d133e       ?contextMenuEvent@QGraphicsScene@@MEAAXPEAVQGraphicsSceneContextMenuEvent@@@Z 00000001400d233e f   Qt5Widgets:Qt5Widgets.dll
 0001:000d1344       ?eventFilter@QGraphicsScene@@MEAA_NPEAVQObject@@PEAVQEvent@@@Z 00000001400d2344 f   Qt5Widgets:Qt5Widgets.dll
 0001:000d134a       ?event@QGraphicsScene@@MEAA_NPEAVQEvent@@@Z 00000001400d234a f   Qt5Widgets:Qt5Widgets.dll
 0001:000d1350       ?inputMethodQuery@QGraphicsScene@@UEBA?AVQVariant@@W4InputMethodQuery@Qt@@@Z 00000001400d2350 f   Qt5Widgets:Qt5Widgets.dll
 0001:000d1356       ??1QGraphicsScene@@UEAA@XZ 00000001400d2356 f   Qt5Widgets:Qt5Widgets.dll
 0001:000d135c       ?extension@QGraphicsTextItem@@MEBA?AVQVariant@@AEBV2@@Z 00000001400d235c f   Qt5Widgets:Qt5Widgets.dll
 0001:000d1362       ?setExtension@QGraphicsTextItem@@MEAAXW4Extension@QGraphicsItem@@AEBVQVariant@@@Z 00000001400d2362 f   Qt5Widgets:Qt5Widgets.dll
 0001:000d1368       ?supportsExtension@QGraphicsTextItem@@MEBA_NW4Extension@QGraphicsItem@@@Z 00000001400d2368 f   Qt5Widgets:Qt5Widgets.dll
 0001:000d136e       ?inputMethodQuery@QGraphicsTextItem@@MEBA?AVQVariant@@W4InputMethodQuery@Qt@@@Z 00000001400d236e f   Qt5Widgets:Qt5Widgets.dll
 0001:000d1374       ?hoverLeaveEvent@QGraphicsTextItem@@MEAAXPEAVQGraphicsSceneHoverEvent@@@Z 00000001400d2374 f   Qt5Widgets:Qt5Widgets.dll
 0001:000d137a       ?hoverMoveEvent@QGraphicsTextItem@@MEAAXPEAVQGraphicsSceneHoverEvent@@@Z 00000001400d237a f   Qt5Widgets:Qt5Widgets.dll
 0001:000d1380       ?hoverEnterEvent@QGraphicsTextItem@@MEAAXPEAVQGraphicsSceneHoverEvent@@@Z 00000001400d2380 f   Qt5Widgets:Qt5Widgets.dll
 0001:000d1386       ?inputMethodEvent@QGraphicsTextItem@@MEAAXPEAVQInputMethodEvent@@@Z 00000001400d2386 f   Qt5Widgets:Qt5Widgets.dll
 0001:000d138c       ?dropEvent@QGraphicsTextItem@@MEAAXPEAVQGraphicsSceneDragDropEvent@@@Z 00000001400d238c f   Qt5Widgets:Qt5Widgets.dll
 0001:000d1392       ?dragMoveEvent@QGraphicsTextItem@@MEAAXPEAVQGraphicsSceneDragDropEvent@@@Z 00000001400d2392 f   Qt5Widgets:Qt5Widgets.dll
 0001:000d1398       ?dragLeaveEvent@QGraphicsTextItem@@MEAAXPEAVQGraphicsSceneDragDropEvent@@@Z 00000001400d2398 f   Qt5Widgets:Qt5Widgets.dll
 0001:000d139e       ?dragEnterEvent@QGraphicsTextItem@@MEAAXPEAVQGraphicsSceneDragDropEvent@@@Z 00000001400d239e f   Qt5Widgets:Qt5Widgets.dll
 0001:000d13a4       ?focusOutEvent@QGraphicsTextItem@@MEAAXPEAVQFocusEvent@@@Z 00000001400d23a4 f   Qt5Widgets:Qt5Widgets.dll
 0001:000d13aa       ?focusInEvent@QGraphicsTextItem@@MEAAXPEAVQFocusEvent@@@Z 00000001400d23aa f   Qt5Widgets:Qt5Widgets.dll
 0001:000d13b0       ?keyReleaseEvent@QGraphicsTextItem@@MEAAXPEAVQKeyEvent@@@Z 00000001400d23b0 f   Qt5Widgets:Qt5Widgets.dll
 0001:000d13b6       ?keyPressEvent@QGraphicsTextItem@@MEAAXPEAVQKeyEvent@@@Z 00000001400d23b6 f   Qt5Widgets:Qt5Widgets.dll
 0001:000d13bc       ?contextMenuEvent@QGraphicsTextItem@@MEAAXPEAVQGraphicsSceneContextMenuEvent@@@Z 00000001400d23bc f   Qt5Widgets:Qt5Widgets.dll
 0001:000d13c2       ?mouseDoubleClickEvent@QGraphicsTextItem@@MEAAXPEAVQGraphicsSceneMouseEvent@@@Z 00000001400d23c2 f   Qt5Widgets:Qt5Widgets.dll
 0001:000d13c8       ?mouseReleaseEvent@QGraphicsTextItem@@MEAAXPEAVQGraphicsSceneMouseEvent@@@Z 00000001400d23c8 f   Qt5Widgets:Qt5Widgets.dll
 0001:000d13ce       ?mouseMoveEvent@QGraphicsTextItem@@MEAAXPEAVQGraphicsSceneMouseEvent@@@Z 00000001400d23ce f   Qt5Widgets:Qt5Widgets.dll
 0001:000d13d4       ?mousePressEvent@QGraphicsTextItem@@MEAAXPEAVQGraphicsSceneMouseEvent@@@Z 00000001400d23d4 f   Qt5Widgets:Qt5Widgets.dll
 0001:000d13da       ?sceneEvent@QGraphicsTextItem@@MEAA_NPEAVQEvent@@@Z 00000001400d23da f   Qt5Widgets:Qt5Widgets.dll
 0001:000d13e0       ?type@QGraphicsTextItem@@UEBAHXZ 00000001400d23e0 f   Qt5Widgets:Qt5Widgets.dll
 0001:000d13e6       ?opaqueArea@QGraphicsTextItem@@UEBA?AVQPainterPath@@XZ 00000001400d23e6 f   Qt5Widgets:Qt5Widgets.dll
 0001:000d13ec       ?isObscuredBy@QGraphicsTextItem@@UEBA_NPEBVQGraphicsItem@@@Z 00000001400d23ec f   Qt5Widgets:Qt5Widgets.dll
 0001:000d13f2       ?paint@QGraphicsTextItem@@UEAAXPEAVQPainter@@PEBVQStyleOptionGraphicsItem@@PEAVQWidget@@@Z 00000001400d23f2 f   Qt5Widgets:Qt5Widgets.dll
 0001:000d13f8       ?contains@QGraphicsTextItem@@UEBA_NAEBVQPointF@@@Z 00000001400d23f8 f   Qt5Widgets:Qt5Widgets.dll
 0001:000d13fe       ?shape@QGraphicsTextItem@@UEBA?AVQPainterPath@@XZ 00000001400d23fe f   Qt5Widgets:Qt5Widgets.dll
 0001:000d1404       ?boundingRect@QGraphicsTextItem@@UEBA?AVQRectF@@XZ 00000001400d2404 f   Qt5Widgets:Qt5Widgets.dll
 0001:000d140a       ?qt_metacall@QGraphicsTextItem@@UEAAHW4Call@QMetaObject@@HPEAPEAX@Z 00000001400d240a f   Qt5Widgets:Qt5Widgets.dll
 0001:000d1410       ?qt_metacast@QGraphicsTextItem@@UEAAPEAXPEBD@Z 00000001400d2410 f   Qt5Widgets:Qt5Widgets.dll
 0001:000d1416       ?metaObject@QGraphicsTextItem@@UEBAPEBUQMetaObject@@XZ 00000001400d2416 f   Qt5Widgets:Qt5Widgets.dll
 0001:000d141c       ?extension@QGraphicsItem@@MEBA?AVQVariant@@AEBV2@@Z 00000001400d241c f   Qt5Widgets:Qt5Widgets.dll
 0001:000d1422       ?setExtension@QGraphicsItem@@MEAAXW4Extension@1@AEBVQVariant@@@Z 00000001400d2422 f   Qt5Widgets:Qt5Widgets.dll
 0001:000d1428       ?supportsExtension@QGraphicsItem@@MEBA_NW4Extension@1@@Z 00000001400d2428 f   Qt5Widgets:Qt5Widgets.dll
 0001:000d142e       ?itemChange@QGraphicsItem@@MEAA?AVQVariant@@W4GraphicsItemChange@1@AEBV2@@Z 00000001400d242e f   Qt5Widgets:Qt5Widgets.dll
 0001:000d1434       ?inputMethodQuery@QGraphicsItem@@MEBA?AVQVariant@@W4InputMethodQuery@Qt@@@Z 00000001400d2434 f   Qt5Widgets:Qt5Widgets.dll
 0001:000d143a       ?inputMethodEvent@QGraphicsItem@@MEAAXPEAVQInputMethodEvent@@@Z 00000001400d243a f   Qt5Widgets:Qt5Widgets.dll
 0001:000d1440       ?wheelEvent@QGraphicsItem@@MEAAXPEAVQGraphicsSceneWheelEvent@@@Z 00000001400d2440 f   Qt5Widgets:Qt5Widgets.dll
 0001:000d1446       ?mouseDoubleClickEvent@QGraphicsItem@@MEAAXPEAVQGraphicsSceneMouseEvent@@@Z 00000001400d2446 f   Qt5Widgets:Qt5Widgets.dll
 0001:000d144c       ?mouseReleaseEvent@QGraphicsItem@@MEAAXPEAVQGraphicsSceneMouseEvent@@@Z 00000001400d244c f   Qt5Widgets:Qt5Widgets.dll
 0001:000d1452       ?mouseMoveEvent@QGraphicsItem@@MEAAXPEAVQGraphicsSceneMouseEvent@@@Z 00000001400d2452 f   Qt5Widgets:Qt5Widgets.dll
 0001:000d1458       ?mousePressEvent@QGraphicsItem@@MEAAXPEAVQGraphicsSceneMouseEvent@@@Z 00000001400d2458 f   Qt5Widgets:Qt5Widgets.dll
 0001:000d145e       ?keyReleaseEvent@QGraphicsItem@@MEAAXPEAVQKeyEvent@@@Z 00000001400d245e f   Qt5Widgets:Qt5Widgets.dll
 0001:000d1464       ?keyPressEvent@QGraphicsItem@@MEAAXPEAVQKeyEvent@@@Z 00000001400d2464 f   Qt5Widgets:Qt5Widgets.dll
 0001:000d146a       ?hoverLeaveEvent@QGraphicsItem@@MEAAXPEAVQGraphicsSceneHoverEvent@@@Z 00000001400d246a f   Qt5Widgets:Qt5Widgets.dll
 0001:000d1470       ?hoverMoveEvent@QGraphicsItem@@MEAAXPEAVQGraphicsSceneHoverEvent@@@Z 00000001400d2470 f   Qt5Widgets:Qt5Widgets.dll
 0001:000d1476       ?hoverEnterEvent@QGraphicsItem@@MEAAXPEAVQGraphicsSceneHoverEvent@@@Z 00000001400d2476 f   Qt5Widgets:Qt5Widgets.dll
 0001:000d147c       ?focusOutEvent@QGraphicsItem@@MEAAXPEAVQFocusEvent@@@Z 00000001400d247c f   Qt5Widgets:Qt5Widgets.dll
 0001:000d1482       ?focusInEvent@QGraphicsItem@@MEAAXPEAVQFocusEvent@@@Z 00000001400d2482 f   Qt5Widgets:Qt5Widgets.dll
 0001:000d1488       ?dropEvent@QGraphicsItem@@MEAAXPEAVQGraphicsSceneDragDropEvent@@@Z 00000001400d2488 f   Qt5Widgets:Qt5Widgets.dll
 0001:000d148e       ?dragMoveEvent@QGraphicsItem@@MEAAXPEAVQGraphicsSceneDragDropEvent@@@Z 00000001400d248e f   Qt5Widgets:Qt5Widgets.dll
 0001:000d1494       ?dragLeaveEvent@QGraphicsItem@@MEAAXPEAVQGraphicsSceneDragDropEvent@@@Z 00000001400d2494 f   Qt5Widgets:Qt5Widgets.dll
 0001:000d149a       ?dragEnterEvent@QGraphicsItem@@MEAAXPEAVQGraphicsSceneDragDropEvent@@@Z 00000001400d249a f   Qt5Widgets:Qt5Widgets.dll
 0001:000d14a0       ?contextMenuEvent@QGraphicsItem@@MEAAXPEAVQGraphicsSceneContextMenuEvent@@@Z 00000001400d24a0 f   Qt5Widgets:Qt5Widgets.dll
 0001:000d14a6       ?sceneEvent@QGraphicsItem@@MEAA_NPEAVQEvent@@@Z 00000001400d24a6 f   Qt5Widgets:Qt5Widgets.dll
 0001:000d14ac       ?sceneEventFilter@QGraphicsItem@@MEAA_NPEAV1@PEAVQEvent@@@Z 00000001400d24ac f   Qt5Widgets:Qt5Widgets.dll
 0001:000d14b2       ?collidesWithPath@QGraphicsItem@@UEBA_NAEBVQPainterPath@@W4ItemSelectionMode@Qt@@@Z 00000001400d24b2 f   Qt5Widgets:Qt5Widgets.dll
 0001:000d14b8       ?collidesWithItem@QGraphicsItem@@UEBA_NPEBV1@W4ItemSelectionMode@Qt@@@Z 00000001400d24b8 f   Qt5Widgets:Qt5Widgets.dll
 0001:000d14be       ?contains@QGraphicsItem@@UEBA_NAEBVQPointF@@@Z 00000001400d24be f   Qt5Widgets:Qt5Widgets.dll
 0001:000d14c4       ?shape@QGraphicsItem@@UEBA?AVQPainterPath@@XZ 00000001400d24c4 f   Qt5Widgets:Qt5Widgets.dll
 0001:000d14ca       ?advance@QGraphicsItem@@UEAAXH@Z 00000001400d24ca f   Qt5Widgets:Qt5Widgets.dll
 0001:000d14d0       ?extension@QGraphicsPolygonItem@@MEBA?AVQVariant@@AEBV2@@Z 00000001400d24d0 f   Qt5Widgets:Qt5Widgets.dll
 0001:000d14d6       ?setExtension@QGraphicsPolygonItem@@MEAAXW4Extension@QGraphicsItem@@AEBVQVariant@@@Z 00000001400d24d6 f   Qt5Widgets:Qt5Widgets.dll
 0001:000d14dc       ?supportsExtension@QGraphicsPolygonItem@@MEBA_NW4Extension@QGraphicsItem@@@Z 00000001400d24dc f   Qt5Widgets:Qt5Widgets.dll
 0001:000d14e2       ?type@QGraphicsPolygonItem@@UEBAHXZ 00000001400d24e2 f   Qt5Widgets:Qt5Widgets.dll
 0001:000d14e8       ?opaqueArea@QGraphicsPolygonItem@@UEBA?AVQPainterPath@@XZ 00000001400d24e8 f   Qt5Widgets:Qt5Widgets.dll
 0001:000d14ee       ?isObscuredBy@QGraphicsPolygonItem@@UEBA_NPEBVQGraphicsItem@@@Z 00000001400d24ee f   Qt5Widgets:Qt5Widgets.dll
 0001:000d14f4       ?paint@QGraphicsPolygonItem@@UEAAXPEAVQPainter@@PEBVQStyleOptionGraphicsItem@@PEAVQWidget@@@Z 00000001400d24f4 f   Qt5Widgets:Qt5Widgets.dll
 0001:000d14fa       ?contains@QGraphicsPolygonItem@@UEBA_NAEBVQPointF@@@Z 00000001400d24fa f   Qt5Widgets:Qt5Widgets.dll
 0001:000d1500       ?shape@QGraphicsPolygonItem@@UEBA?AVQPainterPath@@XZ 00000001400d2500 f   Qt5Widgets:Qt5Widgets.dll
 0001:000d1506       ?boundingRect@QGraphicsPolygonItem@@UEBA?AVQRectF@@XZ 00000001400d2506 f   Qt5Widgets:Qt5Widgets.dll
 0001:000d150c       ?event@QGraphicsObject@@MEAA_NPEAVQEvent@@@Z 00000001400d250c f   Qt5Widgets:Qt5Widgets.dll
 0001:000d1512       ?type@QGraphicsItemGroup@@UEBAHXZ 00000001400d2512 f   Qt5Widgets:Qt5Widgets.dll
 0001:000d1518       ?opaqueArea@QGraphicsItemGroup@@UEBA?AVQPainterPath@@XZ 00000001400d2518 f   Qt5Widgets:Qt5Widgets.dll
 0001:000d151e       ?isObscuredBy@QGraphicsItemGroup@@UEBA_NPEBVQGraphicsItem@@@Z 00000001400d251e f   Qt5Widgets:Qt5Widgets.dll
 0001:000d1524       ?paint@QGraphicsItemGroup@@UEAAXPEAVQPainter@@PEBVQStyleOptionGraphicsItem@@PEAVQWidget@@@Z 00000001400d2524 f   Qt5Widgets:Qt5Widgets.dll
 0001:000d152a       ?boundingRect@QGraphicsItemGroup@@UEBA?AVQRectF@@XZ 00000001400d252a f   Qt5Widgets:Qt5Widgets.dll
 0001:000d1530       ??1QWidget@@UEAA@XZ        00000001400d2530 f   Qt5Widgets:Qt5Widgets.dll
 0001:000d1536       ?compressEvent@QApplication@@MEAA_NPEAVQEvent@@PEAVQObject@@PEAVQPostEventList@@@Z 00000001400d2536 f   Qt5Widgets:Qt5Widgets.dll
 0001:000d153c       ?event@QApplication@@MEAA_NPEAVQEvent@@@Z 00000001400d253c f   Qt5Widgets:Qt5Widgets.dll
 0001:000d1542       ?notify@QApplication@@UEAA_NPEAVQObject@@PEAVQEvent@@@Z 00000001400d2542 f   Qt5Widgets:Qt5Widgets.dll
 0001:000d1548       ??1QApplication@@UEAA@XZ   00000001400d2548 f   Qt5Widgets:Qt5Widgets.dll
 0001:000d154e       ?event@QTabWidget@@MEAA_NPEAVQEvent@@@Z 00000001400d254e f   Qt5Widgets:Qt5Widgets.dll
 0001:000d1554       ?changeEvent@QTabWidget@@MEAAXPEAVQEvent@@@Z 00000001400d2554 f   Qt5Widgets:Qt5Widgets.dll
 0001:000d155a       ?paintEvent@QTabWidget@@MEAAXPEAVQPaintEvent@@@Z 00000001400d255a f   Qt5Widgets:Qt5Widgets.dll
 0001:000d1560       ?keyPressEvent@QTabWidget@@MEAAXPEAVQKeyEvent@@@Z 00000001400d2560 f   Qt5Widgets:Qt5Widgets.dll
 0001:000d1566       ?resizeEvent@QTabWidget@@MEAAXPEAVQResizeEvent@@@Z 00000001400d2566 f   Qt5Widgets:Qt5Widgets.dll
 0001:000d156c       ?showEvent@QTabWidget@@MEAAXPEAVQShowEvent@@@Z 00000001400d256c f   Qt5Widgets:Qt5Widgets.dll
 0001:000d1572       ?tabRemoved@QTabWidget@@MEAAXH@Z 00000001400d2572 f   Qt5Widgets:Qt5Widgets.dll
 0001:000d1578       ?tabInserted@QTabWidget@@MEAAXH@Z 00000001400d2578 f   Qt5Widgets:Qt5Widgets.dll
 0001:000d157e       ?hasHeightForWidth@QTabWidget@@UEBA_NXZ 00000001400d257e f   Qt5Widgets:Qt5Widgets.dll
 0001:000d1584       ?heightForWidth@QTabWidget@@UEBAHH@Z 00000001400d2584 f   Qt5Widgets:Qt5Widgets.dll
 0001:000d158a       ?minimumSizeHint@QTabWidget@@UEBA?AVQSize@@XZ 00000001400d258a f   Qt5Widgets:Qt5Widgets.dll
 0001:000d1590       ?sizeHint@QTabWidget@@UEBA?AVQSize@@XZ 00000001400d2590 f   Qt5Widgets:Qt5Widgets.dll
 0001:000d1596       ?qt_metacall@QTabWidget@@UEAAHW4Call@QMetaObject@@HPEAPEAX@Z 00000001400d2596 f   Qt5Widgets:Qt5Widgets.dll
 0001:000d159c       ?qt_metacast@QTabWidget@@UEAAPEAXPEBD@Z 00000001400d259c f   Qt5Widgets:Qt5Widgets.dll
 0001:000d15a2       ?metaObject@QTabWidget@@UEBAPEBUQMetaObject@@XZ 00000001400d25a2 f   Qt5Widgets:Qt5Widgets.dll
 0001:000d15a8       ?event@QLineEdit@@UEAA_NPEAVQEvent@@@Z 00000001400d25a8 f   Qt5Widgets:Qt5Widgets.dll
 0001:000d15ae       ?inputMethodQuery@QLineEdit@@UEBA?AVQVariant@@W4InputMethodQuery@Qt@@@Z 00000001400d25ae f   Qt5Widgets:Qt5Widgets.dll
 0001:000d15b4       ?inputMethodEvent@QLineEdit@@MEAAXPEAVQInputMethodEvent@@@Z 00000001400d25b4 f   Qt5Widgets:Qt5Widgets.dll
 0001:000d15ba       ?contextMenuEvent@QLineEdit@@MEAAXPEAVQContextMenuEvent@@@Z 00000001400d25ba f   Qt5Widgets:Qt5Widgets.dll
 0001:000d15c0       ?changeEvent@QLineEdit@@MEAAXPEAVQEvent@@@Z 00000001400d25c0 f   Qt5Widgets:Qt5Widgets.dll
 0001:000d15c6       ?dropEvent@QLineEdit@@MEAAXPEAVQDropEvent@@@Z 00000001400d25c6 f   Qt5Widgets:Qt5Widgets.dll
 0001:000d15cc       ?dragLeaveEvent@QLineEdit@@MEAAXPEAVQDragLeaveEvent@@@Z 00000001400d25cc f   Qt5Widgets:Qt5Widgets.dll
 0001:000d15d2       ?dragMoveEvent@QLineEdit@@MEAAXPEAVQDragMoveEvent@@@Z 00000001400d25d2 f   Qt5Widgets:Qt5Widgets.dll
 0001:000d15d8       ?dragEnterEvent@QLineEdit@@MEAAXPEAVQDragEnterEvent@@@Z 00000001400d25d8 f   Qt5Widgets:Qt5Widgets.dll
 0001:000d15de       ?paintEvent@QLineEdit@@MEAAXPEAVQPaintEvent@@@Z 00000001400d25de f   Qt5Widgets:Qt5Widgets.dll
 0001:000d15e4       ?focusOutEvent@QLineEdit@@MEAAXPEAVQFocusEvent@@@Z 00000001400d25e4 f   Qt5Widgets:Qt5Widgets.dll
 0001:000d15ea       ?focusInEvent@QLineEdit@@MEAAXPEAVQFocusEvent@@@Z 00000001400d25ea f   Qt5Widgets:Qt5Widgets.dll
 0001:000d15f0       ?keyPressEvent@QLineEdit@@MEAAXPEAVQKeyEvent@@@Z 00000001400d25f0 f   Qt5Widgets:Qt5Widgets.dll
 0001:000d15f6       ?mouseDoubleClickEvent@QLineEdit@@MEAAXPEAVQMouseEvent@@@Z 00000001400d25f6 f   Qt5Widgets:Qt5Widgets.dll
 0001:000d15fc       ?mouseReleaseEvent@QLineEdit@@MEAAXPEAVQMouseEvent@@@Z 00000001400d25fc f   Qt5Widgets:Qt5Widgets.dll
 0001:000d1602       ?mouseMoveEvent@QLineEdit@@MEAAXPEAVQMouseEvent@@@Z 00000001400d2602 f   Qt5Widgets:Qt5Widgets.dll
 0001:000d1608       ?mousePressEvent@QLineEdit@@MEAAXPEAVQMouseEvent@@@Z 00000001400d2608 f   Qt5Widgets:Qt5Widgets.dll
 0001:000d160e       ?minimumSizeHint@QLineEdit@@UEBA?AVQSize@@XZ 00000001400d260e f   Qt5Widgets:Qt5Widgets.dll
 0001:000d1614       ?sizeHint@QLineEdit@@UEBA?AVQSize@@XZ 00000001400d2614 f   Qt5Widgets:Qt5Widgets.dll
 0001:000d161a       ??1QLineEdit@@UEAA@XZ      00000001400d261a f   Qt5Widgets:Qt5Widgets.dll
 0001:000d1620       ?qt_metacall@QLineEdit@@UEAAHW4Call@QMetaObject@@HPEAPEAX@Z 00000001400d2620 f   Qt5Widgets:Qt5Widgets.dll
 0001:000d1626       ?qt_metacast@QLineEdit@@UEAAPEAXPEBD@Z 00000001400d2626 f   Qt5Widgets:Qt5Widgets.dll
 0001:000d162c       ?metaObject@QLineEdit@@UEBAPEBUQMetaObject@@XZ 00000001400d262c f   Qt5Widgets:Qt5Widgets.dll
 0001:000d1632       ?eventFilter@QAbstractItemView@@MEAA_NPEAVQObject@@PEAVQEvent@@@Z 00000001400d2632 f   Qt5Widgets:Qt5Widgets.dll
 0001:000d1638       ?inputMethodEvent@QAbstractItemView@@MEAAXPEAVQInputMethodEvent@@@Z 00000001400d2638 f   Qt5Widgets:Qt5Widgets.dll
 0001:000d163e       ?resizeEvent@QAbstractItemView@@MEAAXPEAVQResizeEvent@@@Z 00000001400d263e f   Qt5Widgets:Qt5Widgets.dll
 0001:000d1644       ?focusOutEvent@QAbstractItemView@@MEAAXPEAVQFocusEvent@@@Z 00000001400d2644 f   Qt5Widgets:Qt5Widgets.dll
 0001:000d164a       ?focusInEvent@QAbstractItemView@@MEAAXPEAVQFocusEvent@@@Z 00000001400d264a f   Qt5Widgets:Qt5Widgets.dll
 0001:000d1650       ?dropEvent@QAbstractItemView@@MEAAXPEAVQDropEvent@@@Z 00000001400d2650 f   Qt5Widgets:Qt5Widgets.dll
 0001:000d1656       ?dragLeaveEvent@QAbstractItemView@@MEAAXPEAVQDragLeaveEvent@@@Z 00000001400d2656 f   Qt5Widgets:Qt5Widgets.dll
 0001:000d165c       ?dragEnterEvent@QAbstractItemView@@MEAAXPEAVQDragEnterEvent@@@Z 00000001400d265c f   Qt5Widgets:Qt5Widgets.dll
 0001:000d1662       ?event@QAbstractItemView@@MEAA_NPEAVQEvent@@@Z 00000001400d2662 f   Qt5Widgets:Qt5Widgets.dll
 0001:000d1668       ?focusNextPrevChild@QAbstractItemView@@MEAA_N_N@Z 00000001400d2668 f   Qt5Widgets:Qt5Widgets.dll
 0001:000d166e       ?viewOptions@QAbstractItemView@@MEBA?AVQStyleOptionViewItem@@XZ 00000001400d266e f   Qt5Widgets:Qt5Widgets.dll
 0001:000d1674       ?startDrag@QAbstractItemView@@MEAAXV?$QFlags@W4DropAction@Qt@@@@@Z 00000001400d2674 f   Qt5Widgets:Qt5Widgets.dll
 0001:000d167a       ?selectionCommand@QAbstractItemView@@MEBA?AV?$QFlags@W4SelectionFlag@QItemSelectionModel@@@@AEBVQModelIndex@@PEBVQEvent@@@Z 00000001400d267a f   Qt5Widgets:Qt5Widgets.dll
 0001:000d1680       ?editorDestroyed@QAbstractItemView@@MEAAXPEAVQObject@@@Z 00000001400d2680 f   Qt5Widgets:Qt5Widgets.dll
 0001:000d1686       ?commitData@QAbstractItemView@@MEAAXPEAVQWidget@@@Z 00000001400d2686 f   Qt5Widgets:Qt5Widgets.dll
 0001:000d168c       ?closeEditor@QAbstractItemView@@MEAAXPEAVQWidget@@W4EndEditHint@QAbstractItemDelegate@@@Z 00000001400d268c f   Qt5Widgets:Qt5Widgets.dll
 0001:000d1692       ?horizontalScrollbarValueChanged@QAbstractItemView@@MEAAXH@Z 00000001400d2692 f   Qt5Widgets:Qt5Widgets.dll
 0001:000d1698       ?verticalScrollbarAction@QAbstractItemView@@MEAAXH@Z 00000001400d2698 f   Qt5Widgets:Qt5Widgets.dll
 0001:000d169e       ?updateEditorGeometries@QAbstractItemView@@MEAAXXZ 00000001400d269e f   Qt5Widgets:Qt5Widgets.dll
 0001:000d16a4       ?updateEditorData@QAbstractItemView@@MEAAXXZ 00000001400d26a4 f   Qt5Widgets:Qt5Widgets.dll
 0001:000d16aa       ?edit@QAbstractItemView@@MEAA_NAEBVQModelIndex@@W4EditTrigger@1@PEAVQEvent@@@Z 00000001400d26aa f   Qt5Widgets:Qt5Widgets.dll
 0001:000d16b0       ?inputMethodQuery@QAbstractItemView@@UEBA?AVQVariant@@W4InputMethodQuery@Qt@@@Z 00000001400d26b0 f   Qt5Widgets:Qt5Widgets.dll
 0001:000d16b6       ?sizeHintForRow@QAbstractItemView@@UEBAHH@Z 00000001400d26b6 f   Qt5Widgets:Qt5Widgets.dll
 0001:000d16bc       ?contextMenuEvent@QAbstractScrollArea@@MEAAXPEAVQContextMenuEvent@@@Z 00000001400d26bc f   Qt5Widgets:Qt5Widgets.dll
 0001:000d16c2       ?wheelEvent@QAbstractScrollArea@@MEAAXPEAVQWheelEvent@@@Z 00000001400d26c2 f   Qt5Widgets:Qt5Widgets.dll
 0001:000d16c8       ?viewportEvent@QAbstractScrollArea@@MEAA_NPEAVQEvent@@@Z 00000001400d26c8 f   Qt5Widgets:Qt5Widgets.dll
 0001:000d16ce       ?setupViewport@QAbstractScrollArea@@UEAAXPEAVQWidget@@@Z 00000001400d26ce f   Qt5Widgets:Qt5Widgets.dll
 0001:000d16d4       ?sizeHint@QAbstractScrollArea@@UEBA?AVQSize@@XZ 00000001400d26d4 f   Qt5Widgets:Qt5Widgets.dll
 0001:000d16da       ?controlTypes@QLayoutItem@@UEBA?AV?$QFlags@W4ControlType@QSizePolicy@@@@XZ 00000001400d26da f   Qt5Widgets:Qt5Widgets.dll
 0001:000d16e0       ?layout@QLayoutItem@@UEAAPEAVQLayout@@XZ 00000001400d26e0 f   Qt5Widgets:Qt5Widgets.dll
 0001:000d16e6       ?invalidate@QLayoutItem@@UEAAXXZ 00000001400d26e6 f   Qt5Widgets:Qt5Widgets.dll
 0001:000d16ec       ?minimumHeightForWidth@QLayoutItem@@UEBAHH@Z 00000001400d26ec f   Qt5Widgets:Qt5Widgets.dll
 0001:000d16f2       ?heightForWidth@QLayoutItem@@UEBAHH@Z 00000001400d26f2 f   Qt5Widgets:Qt5Widgets.dll
 0001:000d16f8       ?hasHeightForWidth@QLayoutItem@@UEBA_NXZ 00000001400d26f8 f   Qt5Widgets:Qt5Widgets.dll
 0001:000d16fe       ?focusOutEvent@QPushButton@@MEAAXPEAVQFocusEvent@@@Z 00000001400d26fe f   Qt5Widgets:Qt5Widgets.dll
 0001:000d1704       ?focusInEvent@QPushButton@@MEAAXPEAVQFocusEvent@@@Z 00000001400d2704 f   Qt5Widgets:Qt5Widgets.dll
 0001:000d170a       ?keyPressEvent@QPushButton@@MEAAXPEAVQKeyEvent@@@Z 00000001400d270a f   Qt5Widgets:Qt5Widgets.dll
 0001:000d1710       ?paintEvent@QPushButton@@MEAAXPEAVQPaintEvent@@@Z 00000001400d2710 f   Qt5Widgets:Qt5Widgets.dll
 0001:000d1716       ?event@QPushButton@@MEAA_NPEAVQEvent@@@Z 00000001400d2716 f   Qt5Widgets:Qt5Widgets.dll
 0001:000d171c       ?minimumSizeHint@QPushButton@@UEBA?AVQSize@@XZ 00000001400d271c f   Qt5Widgets:Qt5Widgets.dll
 0001:000d1722       ?sizeHint@QPushButton@@UEBA?AVQSize@@XZ 00000001400d2722 f   Qt5Widgets:Qt5Widgets.dll
 0001:000d1728       ?qt_metacall@QPushButton@@UEAAHW4Call@QMetaObject@@HPEAPEAX@Z 00000001400d2728 f   Qt5Widgets:Qt5Widgets.dll
 0001:000d172e       ?qt_metacast@QPushButton@@UEAAPEAXPEBD@Z 00000001400d272e f   Qt5Widgets:Qt5Widgets.dll
 0001:000d1734       ?metaObject@QPushButton@@UEBAPEBUQMetaObject@@XZ 00000001400d2734 f   Qt5Widgets:Qt5Widgets.dll
 0001:000d173a       ?maximumSize@QLayout@@UEBA?AVQSize@@XZ 00000001400d273a f   Qt5Widgets:Qt5Widgets.dll
 0001:000d1740       ?currentChanged@QTreeView@@MEAAXAEBVQModelIndex@@0@Z 00000001400d2740 f   Qt5Widgets:Qt5Widgets.dll
 0001:000d1746       ?selectionChanged@QTreeView@@MEAAXAEBVQItemSelection@@0@Z 00000001400d2746 f   Qt5Widgets:Qt5Widgets.dll
 0001:000d174c       ?isIndexHidden@QTreeView@@MEBA_NAEBVQModelIndex@@@Z 00000001400d274c f   Qt5Widgets:Qt5Widgets.dll
 0001:000d1752       ?horizontalScrollbarAction@QTreeView@@MEAAXH@Z 00000001400d2752 f   Qt5Widgets:Qt5Widgets.dll
 0001:000d1758       ?sizeHintForColumn@QTreeView@@MEBAHH@Z 00000001400d2758 f   Qt5Widgets:Qt5Widgets.dll
 0001:000d175e       ?viewportSizeHint@QTreeView@@MEBA?AVQSize@@XZ 00000001400d275e f   Qt5Widgets:Qt5Widgets.dll
 0001:000d1764       ?updateGeometries@QTreeView@@MEAAXXZ 00000001400d2764 f   Qt5Widgets:Qt5Widgets.dll
 0001:000d176a       ?viewportEvent@QTreeView@@MEAA_NPEAVQEvent@@@Z 00000001400d276a f   Qt5Widgets:Qt5Widgets.dll
 0001:000d1770       ?dragMoveEvent@QTreeView@@MEAAXPEAVQDragMoveEvent@@@Z 00000001400d2770 f   Qt5Widgets:Qt5Widgets.dll
 0001:000d1776       ?keyPressEvent@QTreeView@@MEAAXPEAVQKeyEvent@@@Z 00000001400d2776 f   Qt5Widgets:Qt5Widgets.dll
 0001:000d177c       ?mouseMoveEvent@QTreeView@@MEAAXPEAVQMouseEvent@@@Z 00000001400d277c f   Qt5Widgets:Qt5Widgets.dll
 0001:000d1782       ?mouseDoubleClickEvent@QTreeView@@MEAAXPEAVQMouseEvent@@@Z 00000001400d2782 f   Qt5Widgets:Qt5Widgets.dll
 0001:000d1788       ?mouseReleaseEvent@QTreeView@@MEAAXPEAVQMouseEvent@@@Z 00000001400d2788 f   Qt5Widgets:Qt5Widgets.dll
 0001:000d178e       ?mousePressEvent@QTreeView@@MEAAXPEAVQMouseEvent@@@Z 00000001400d278e f   Qt5Widgets:Qt5Widgets.dll
 0001:000d1794       ?drawBranches@QTreeView@@MEBAXPEAVQPainter@@AEBVQRect@@AEBVQModelIndex@@@Z 00000001400d2794 f   Qt5Widgets:Qt5Widgets.dll
 0001:000d179a       ?drawRow@QTreeView@@MEBAXPEAVQPainter@@AEBVQStyleOptionViewItem@@AEBVQModelIndex@@@Z 00000001400d279a f   Qt5Widgets:Qt5Widgets.dll
 0001:000d17a0       ?paintEvent@QTreeView@@MEAAXPEAVQPaintEvent@@@Z 00000001400d27a0 f   Qt5Widgets:Qt5Widgets.dll
 0001:000d17a6       ?timerEvent@QTreeView@@MEAAXPEAVQTimerEvent@@@Z 00000001400d27a6 f   Qt5Widgets:Qt5Widgets.dll
 0001:000d17ac       ?selectedIndexes@QTreeView@@MEBA?AV?$QList@VQModelIndex@@@@XZ 00000001400d27ac f   Qt5Widgets:Qt5Widgets.dll
 0001:000d17b2       ?visualRegionForSelection@QTreeView@@MEBA?AVQRegion@@AEBVQItemSelection@@@Z 00000001400d27b2 f   Qt5Widgets:Qt5Widgets.dll
 0001:000d17b8       ?setSelection@QTreeView@@MEAAXAEBVQRect@@V?$QFlags@W4SelectionFlag@QItemSelectionModel@@@@@Z 00000001400d27b8 f   Qt5Widgets:Qt5Widgets.dll
 0001:000d17be       ?verticalOffset@QTreeView@@MEBAHXZ 00000001400d27be f   Qt5Widgets:Qt5Widgets.dll
 0001:000d17c4       ?horizontalOffset@QTreeView@@MEBAHXZ 00000001400d27c4 f   Qt5Widgets:Qt5Widgets.dll
 0001:000d17ca       ?moveCursor@QTreeView@@MEAA?AVQModelIndex@@W4CursorAction@QAbstractItemView@@V?$QFlags@W4KeyboardModifier@Qt@@@@@Z 00000001400d27ca f   Qt5Widgets:Qt5Widgets.dll
 0001:000d17d0       ?rowsAboutToBeRemoved@QTreeView@@MEAAXAEBVQModelIndex@@HH@Z 00000001400d27d0 f   Qt5Widgets:Qt5Widgets.dll
 0001:000d17d6       ?rowsInserted@QTreeView@@MEAAXAEBVQModelIndex@@HH@Z 00000001400d27d6 f   Qt5Widgets:Qt5Widgets.dll
 0001:000d17dc       ?scrollContentsBy@QTreeView@@MEAAXHH@Z 00000001400d27dc f   Qt5Widgets:Qt5Widgets.dll
 0001:000d17e2       ?verticalScrollbarValueChanged@QTreeView@@MEAAXH@Z 00000001400d27e2 f   Qt5Widgets:Qt5Widgets.dll
 0001:000d17e8       ?selectAll@QTreeView@@UEAAXXZ 00000001400d27e8 f   Qt5Widgets:Qt5Widgets.dll
 0001:000d17ee       ?dataChanged@QTreeView@@UEAAXAEBVQModelIndex@@0AEBV?$QVector@H@@@Z 00000001400d27ee f   Qt5Widgets:Qt5Widgets.dll
 0001:000d17f4       ?reset@QTreeView@@UEAAXXZ  00000001400d27f4 f   Qt5Widgets:Qt5Widgets.dll
 0001:000d17fa       ?doItemsLayout@QTreeView@@UEAAXXZ 00000001400d27fa f   Qt5Widgets:Qt5Widgets.dll
 0001:000d1800       ?indexAt@QTreeView@@UEBA?AVQModelIndex@@AEBVQPoint@@@Z 00000001400d2800 f   Qt5Widgets:Qt5Widgets.dll
 0001:000d1806       ?scrollTo@QTreeView@@UEAAXAEBVQModelIndex@@W4ScrollHint@QAbstractItemView@@@Z 00000001400d2806 f   Qt5Widgets:Qt5Widgets.dll
 0001:000d180c       ?visualRect@QTreeView@@UEBA?AVQRect@@AEBVQModelIndex@@@Z 00000001400d280c f   Qt5Widgets:Qt5Widgets.dll
 0001:000d1812       ?keyboardSearch@QTreeView@@UEAAXAEBVQString@@@Z 00000001400d2812 f   Qt5Widgets:Qt5Widgets.dll
 0001:000d1818       ?setSelectionModel@QTreeView@@UEAAXPEAVQItemSelectionModel@@@Z 00000001400d2818 f   Qt5Widgets:Qt5Widgets.dll
 0001:000d181e       ?setRootIndex@QTreeView@@UEAAXAEBVQModelIndex@@@Z 00000001400d281e f   Qt5Widgets:Qt5Widgets.dll
 0001:000d1824       ?setModel@QTreeView@@UEAAXPEAVQAbstractItemModel@@@Z 00000001400d2824 f   Qt5Widgets:Qt5Widgets.dll
 0001:000d182a       ?qt_metacall@QTreeView@@UEAAHW4Call@QMetaObject@@HPEAPEAX@Z 00000001400d282a f   Qt5Widgets:Qt5Widgets.dll
 0001:000d1830       ?qt_metacast@QTreeView@@UEAAPEAXPEBD@Z 00000001400d2830 f   Qt5Widgets:Qt5Widgets.dll
 0001:000d1836       ?metaObject@QTreeView@@UEBAPEBUQMetaObject@@XZ 00000001400d2836 f   Qt5Widgets:Qt5Widgets.dll
 0001:000d183c       ?mouseMoveEvent@QCheckBox@@MEAAXPEAVQMouseEvent@@@Z 00000001400d283c f   Qt5Widgets:Qt5Widgets.dll
 0001:000d1842       ?paintEvent@QCheckBox@@MEAAXPEAVQPaintEvent@@@Z 00000001400d2842 f   Qt5Widgets:Qt5Widgets.dll
 0001:000d1848       ?nextCheckState@QCheckBox@@MEAAXXZ 00000001400d2848 f   Qt5Widgets:Qt5Widgets.dll
 0001:000d184e       ?checkStateSet@QCheckBox@@MEAAXXZ 00000001400d284e f   Qt5Widgets:Qt5Widgets.dll
 0001:000d1854       ?hitButton@QCheckBox@@MEBA_NAEBVQPoint@@@Z 00000001400d2854 f   Qt5Widgets:Qt5Widgets.dll
 0001:000d185a       ?event@QCheckBox@@MEAA_NPEAVQEvent@@@Z 00000001400d285a f   Qt5Widgets:Qt5Widgets.dll
 0001:000d1860       ?minimumSizeHint@QCheckBox@@UEBA?AVQSize@@XZ 00000001400d2860 f   Qt5Widgets:Qt5Widgets.dll
 0001:000d1866       ?sizeHint@QCheckBox@@UEBA?AVQSize@@XZ 00000001400d2866 f   Qt5Widgets:Qt5Widgets.dll
 0001:000d186c       ?qt_metacall@QCheckBox@@UEAAHW4Call@QMetaObject@@HPEAPEAX@Z 00000001400d286c f   Qt5Widgets:Qt5Widgets.dll
 0001:000d1872       ?qt_metacast@QCheckBox@@UEAAPEAXPEBD@Z 00000001400d2872 f   Qt5Widgets:Qt5Widgets.dll
 0001:000d1878       ?metaObject@QCheckBox@@UEBAPEBUQMetaObject@@XZ 00000001400d2878 f   Qt5Widgets:Qt5Widgets.dll
 0001:000d187e       ?spacerItem@QSpacerItem@@UEAAPEAV1@XZ 00000001400d287e f   Qt5Widgets:Qt5Widgets.dll
 0001:000d1884       ?geometry@QSpacerItem@@UEBA?AVQRect@@XZ 00000001400d2884 f   Qt5Widgets:Qt5Widgets.dll
 0001:000d188a       ?setGeometry@QSpacerItem@@UEAAXAEBVQRect@@@Z 00000001400d288a f   Qt5Widgets:Qt5Widgets.dll
 0001:000d1890       ?isEmpty@QSpacerItem@@UEBA_NXZ 00000001400d2890 f   Qt5Widgets:Qt5Widgets.dll
 0001:000d1896       ?expandingDirections@QSpacerItem@@UEBA?AV?$QFlags@W4Orientation@Qt@@@@XZ 00000001400d2896 f   Qt5Widgets:Qt5Widgets.dll
 0001:000d189c       ?maximumSize@QSpacerItem@@UEBA?AVQSize@@XZ 00000001400d289c f   Qt5Widgets:Qt5Widgets.dll
 0001:000d18a2       ?minimumSize@QSpacerItem@@UEBA?AVQSize@@XZ 00000001400d28a2 f   Qt5Widgets:Qt5Widgets.dll
 0001:000d18a8       ?sizeHint@QSpacerItem@@UEBA?AVQSize@@XZ 00000001400d28a8 f   Qt5Widgets:Qt5Widgets.dll
 0001:000d18ae       ?timerEvent@QAbstractButton@@MEAAXPEAVQTimerEvent@@@Z 00000001400d28ae f   Qt5Widgets:Qt5Widgets.dll
 0001:000d18b4       ?changeEvent@QAbstractButton@@MEAAXPEAVQEvent@@@Z 00000001400d28b4 f   Qt5Widgets:Qt5Widgets.dll
 0001:000d18ba       ?focusOutEvent@QAbstractButton@@MEAAXPEAVQFocusEvent@@@Z 00000001400d28ba f   Qt5Widgets:Qt5Widgets.dll
 0001:000d18c0       ?focusInEvent@QAbstractButton@@MEAAXPEAVQFocusEvent@@@Z 00000001400d28c0 f   Qt5Widgets:Qt5Widgets.dll
 0001:000d18c6       ?mouseMoveEvent@QAbstractButton@@MEAAXPEAVQMouseEvent@@@Z 00000001400d28c6 f   Qt5Widgets:Qt5Widgets.dll
 0001:000d18cc       ?mouseReleaseEvent@QAbstractButton@@MEAAXPEAVQMouseEvent@@@Z 00000001400d28cc f   Qt5Widgets:Qt5Widgets.dll
 0001:000d18d2       ?mousePressEvent@QAbstractButton@@MEAAXPEAVQMouseEvent@@@Z 00000001400d28d2 f   Qt5Widgets:Qt5Widgets.dll
 0001:000d18d8       ?keyReleaseEvent@QAbstractButton@@MEAAXPEAVQKeyEvent@@@Z 00000001400d28d8 f   Qt5Widgets:Qt5Widgets.dll
 0001:000d18de       ?keyPressEvent@QAbstractButton@@MEAAXPEAVQKeyEvent@@@Z 00000001400d28de f   Qt5Widgets:Qt5Widgets.dll
 0001:000d18e4       ?nextCheckState@QAbstractButton@@MEAAXXZ 00000001400d28e4 f   Qt5Widgets:Qt5Widgets.dll
 0001:000d18ea       ?checkStateSet@QAbstractButton@@MEAAXXZ 00000001400d28ea f   Qt5Widgets:Qt5Widgets.dll
 0001:000d18f0       ?hitButton@QAbstractButton@@MEBA_NAEBVQPoint@@@Z 00000001400d28f0 f   Qt5Widgets:Qt5Widgets.dll
 0001:000d18f6       ?changeEvent@QFileDialog@@MEAAXPEAVQEvent@@@Z 00000001400d28f6 f   Qt5Widgets:Qt5Widgets.dll
 0001:000d18fc       ?accept@QFileDialog@@MEAAXXZ 00000001400d28fc f   Qt5Widgets:Qt5Widgets.dll
 0001:000d1902       ?done@QFileDialog@@MEAAXH@Z 00000001400d2902 f   Qt5Widgets:Qt5Widgets.dll
 0001:000d1908       ?setVisible@QFileDialog@@UEAAX_N@Z 00000001400d2908 f   Qt5Widgets:Qt5Widgets.dll
 0001:000d190e       ?qt_metacall@QFileDialog@@UEAAHW4Call@QMetaObject@@HPEAPEAX@Z 00000001400d290e f   Qt5Widgets:Qt5Widgets.dll
 0001:000d1914       ?qt_metacast@QFileDialog@@UEAAPEAXPEBD@Z 00000001400d2914 f   Qt5Widgets:Qt5Widgets.dll
 0001:000d191a       ?metaObject@QFileDialog@@UEBAPEBUQMetaObject@@XZ 00000001400d291a f   Qt5Widgets:Qt5Widgets.dll
 0001:000d1920       ?paintEvent@QProgressBar@@MEAAXPEAVQPaintEvent@@@Z 00000001400d2920 f   Qt5Widgets:Qt5Widgets.dll
 0001:000d1926       ?event@QProgressBar@@MEAA_NPEAVQEvent@@@Z 00000001400d2926 f   Qt5Widgets:Qt5Widgets.dll
 0001:000d192c       ?minimumSizeHint@QProgressBar@@UEBA?AVQSize@@XZ 00000001400d292c f   Qt5Widgets:Qt5Widgets.dll
 0001:000d1932       ?sizeHint@QProgressBar@@UEBA?AVQSize@@XZ 00000001400d2932 f   Qt5Widgets:Qt5Widgets.dll
 0001:000d1938       ?text@QProgressBar@@UEBA?AVQString@@XZ 00000001400d2938 f   Qt5Widgets:Qt5Widgets.dll
 0001:000d193e       ?qt_metacall@QProgressBar@@UEAAHW4Call@QMetaObject@@HPEAPEAX@Z 00000001400d293e f   Qt5Widgets:Qt5Widgets.dll
 0001:000d1944       ?qt_metacast@QProgressBar@@UEAAPEAXPEBD@Z 00000001400d2944 f   Qt5Widgets:Qt5Widgets.dll
 0001:000d194a       ?metaObject@QProgressBar@@UEBAPEBUQMetaObject@@XZ 00000001400d294a f   Qt5Widgets:Qt5Widgets.dll
 0001:000d1950       ?doSetTextCursor@QPlainTextEdit@@MEAAXAEBVQTextCursor@@@Z 00000001400d2950 f   Qt5Widgets:Qt5Widgets.dll
 0001:000d1956       ?scrollContentsBy@QPlainTextEdit@@MEAAXHH@Z 00000001400d2956 f   Qt5Widgets:Qt5Widgets.dll
 0001:000d195c       ?inputMethodEvent@QPlainTextEdit@@MEAAXPEAVQInputMethodEvent@@@Z 00000001400d295c f   Qt5Widgets:Qt5Widgets.dll
 0001:000d1962       ?insertFromMimeData@QPlainTextEdit@@MEAAXPEBVQMimeData@@@Z 00000001400d2962 f   Qt5Widgets:Qt5Widgets.dll
 0001:000d1968       ?canInsertFromMimeData@QPlainTextEdit@@MEBA_NPEBVQMimeData@@@Z 00000001400d2968 f   Qt5Widgets:Qt5Widgets.dll
 0001:000d196e       ?createMimeDataFromSelection@QPlainTextEdit@@MEBAPEAVQMimeData@@XZ 00000001400d296e f   Qt5Widgets:Qt5Widgets.dll
 0001:000d1974       ?wheelEvent@QPlainTextEdit@@MEAAXPEAVQWheelEvent@@@Z 00000001400d2974 f   Qt5Widgets:Qt5Widgets.dll
 0001:000d197a       ?changeEvent@QPlainTextEdit@@MEAAXPEAVQEvent@@@Z 00000001400d297a f   Qt5Widgets:Qt5Widgets.dll
 0001:000d1980       ?showEvent@QPlainTextEdit@@MEAAXPEAVQShowEvent@@@Z 00000001400d2980 f   Qt5Widgets:Qt5Widgets.dll
 0001:000d1986       ?focusOutEvent@QPlainTextEdit@@MEAAXPEAVQFocusEvent@@@Z 00000001400d2986 f   Qt5Widgets:Qt5Widgets.dll
 0001:000d198c       ?focusInEvent@QPlainTextEdit@@MEAAXPEAVQFocusEvent@@@Z 00000001400d298c f   Qt5Widgets:Qt5Widgets.dll
 0001:000d1992       ?dropEvent@QPlainTextEdit@@MEAAXPEAVQDropEvent@@@Z 00000001400d2992 f   Qt5Widgets:Qt5Widgets.dll
 0001:000d1998       ?dragMoveEvent@QPlainTextEdit@@MEAAXPEAVQDragMoveEvent@@@Z 00000001400d2998 f   Qt5Widgets:Qt5Widgets.dll
 0001:000d199e       ?dragLeaveEvent@QPlainTextEdit@@MEAAXPEAVQDragLeaveEvent@@@Z 00000001400d299e f   Qt5Widgets:Qt5Widgets.dll
 0001:000d19a4       ?dragEnterEvent@QPlainTextEdit@@MEAAXPEAVQDragEnterEvent@@@Z 00000001400d29a4 f   Qt5Widgets:Qt5Widgets.dll
 0001:000d19aa       ?contextMenuEvent@QPlainTextEdit@@MEAAXPEAVQContextMenuEvent@@@Z 00000001400d29aa f   Qt5Widgets:Qt5Widgets.dll
 0001:000d19b0       ?focusNextPrevChild@QPlainTextEdit@@MEAA_N_N@Z 00000001400d29b0 f   Qt5Widgets:Qt5Widgets.dll
 0001:000d19b6       ?mouseDoubleClickEvent@QPlainTextEdit@@MEAAXPEAVQMouseEvent@@@Z 00000001400d29b6 f   Qt5Widgets:Qt5Widgets.dll
 0001:000d19bc       ?mouseReleaseEvent@QPlainTextEdit@@MEAAXPEAVQMouseEvent@@@Z 00000001400d29bc f   Qt5Widgets:Qt5Widgets.dll
 0001:000d19c2       ?mouseMoveEvent@QPlainTextEdit@@MEAAXPEAVQMouseEvent@@@Z 00000001400d29c2 f   Qt5Widgets:Qt5Widgets.dll
 0001:000d19c8       ?mousePressEvent@QPlainTextEdit@@MEAAXPEAVQMouseEvent@@@Z 00000001400d29c8 f   Qt5Widgets:Qt5Widgets.dll
 0001:000d19ce       ?paintEvent@QPlainTextEdit@@MEAAXPEAVQPaintEvent@@@Z 00000001400d29ce f   Qt5Widgets:Qt5Widgets.dll
 0001:000d19d4       ?resizeEvent@QPlainTextEdit@@MEAAXPEAVQResizeEvent@@@Z 00000001400d29d4 f   Qt5Widgets:Qt5Widgets.dll
 0001:000d19da       ?keyReleaseEvent@QPlainTextEdit@@MEAAXPEAVQKeyEvent@@@Z 00000001400d29da f   Qt5Widgets:Qt5Widgets.dll
 0001:000d19e0       ?keyPressEvent@QPlainTextEdit@@MEAAXPEAVQKeyEvent@@@Z 00000001400d29e0 f   Qt5Widgets:Qt5Widgets.dll
 0001:000d19e6       ?timerEvent@QPlainTextEdit@@MEAAXPEAVQTimerEvent@@@Z 00000001400d29e6 f   Qt5Widgets:Qt5Widgets.dll
 0001:000d19ec       ?event@QPlainTextEdit@@MEAA_NPEAVQEvent@@@Z 00000001400d29ec f   Qt5Widgets:Qt5Widgets.dll
 0001:000d19f2       ?inputMethodQuery@QPlainTextEdit@@UEBA?AVQVariant@@W4InputMethodQuery@Qt@@@Z 00000001400d29f2 f   Qt5Widgets:Qt5Widgets.dll
 0001:000d19f8       ?loadResource@QPlainTextEdit@@UEAA?AVQVariant@@HAEBVQUrl@@@Z 00000001400d29f8 f   Qt5Widgets:Qt5Widgets.dll
 0001:000d19fe       ??1QPlainTextEdit@@UEAA@XZ 00000001400d29fe f   Qt5Widgets:Qt5Widgets.dll
 0001:000d1a04       ?qt_metacall@QPlainTextEdit@@UEAAHW4Call@QMetaObject@@HPEAPEAX@Z 00000001400d2a04 f   Qt5Widgets:Qt5Widgets.dll
 0001:000d1a0a       ?qt_metacast@QPlainTextEdit@@UEAAPEAXPEBD@Z 00000001400d2a0a f   Qt5Widgets:Qt5Widgets.dll
 0001:000d1a10       ?metaObject@QPlainTextEdit@@UEBAPEBUQMetaObject@@XZ 00000001400d2a10 f   Qt5Widgets:Qt5Widgets.dll
 0001:000d1a16       ?count@QFormLayout@@UEBAHXZ 00000001400d2a16 f   Qt5Widgets:Qt5Widgets.dll
 0001:000d1a1c       ?expandingDirections@QFormLayout@@UEBA?AV?$QFlags@W4Orientation@Qt@@@@XZ 00000001400d2a1c f   Qt5Widgets:Qt5Widgets.dll
 0001:000d1a22       ?heightForWidth@QFormLayout@@UEBAHH@Z 00000001400d2a22 f   Qt5Widgets:Qt5Widgets.dll
 0001:000d1a28       ?hasHeightForWidth@QFormLayout@@UEBA_NXZ 00000001400d2a28 f   Qt5Widgets:Qt5Widgets.dll
 0001:000d1a2e       ?invalidate@QFormLayout@@UEAAXXZ 00000001400d2a2e f   Qt5Widgets:Qt5Widgets.dll
 0001:000d1a34       ?sizeHint@QFormLayout@@UEBA?AVQSize@@XZ 00000001400d2a34 f   Qt5Widgets:Qt5Widgets.dll
 0001:000d1a3a       ?minimumSize@QFormLayout@@UEBA?AVQSize@@XZ 00000001400d2a3a f   Qt5Widgets:Qt5Widgets.dll
 0001:000d1a40       ?setGeometry@QFormLayout@@UEAAXAEBVQRect@@@Z 00000001400d2a40 f   Qt5Widgets:Qt5Widgets.dll
 0001:000d1a46       ?takeAt@QFormLayout@@UEAAPEAVQLayoutItem@@H@Z 00000001400d2a46 f   Qt5Widgets:Qt5Widgets.dll
 0001:000d1a4c       ?addItem@QFormLayout@@UEAAXPEAVQLayoutItem@@@Z 00000001400d2a4c f   Qt5Widgets:Qt5Widgets.dll
 0001:000d1a52       ?itemAt@QFormLayout@@UEBAPEAVQLayoutItem@@H@Z 00000001400d2a52 f   Qt5Widgets:Qt5Widgets.dll
 0001:000d1a58       ?qt_metacall@QFormLayout@@UEAAHW4Call@QMetaObject@@HPEAPEAX@Z 00000001400d2a58 f   Qt5Widgets:Qt5Widgets.dll
 0001:000d1a5e       ?qt_metacast@QFormLayout@@UEAAPEAXPEBD@Z 00000001400d2a5e f   Qt5Widgets:Qt5Widgets.dll
 0001:000d1a64       ?metaObject@QFormLayout@@UEBAPEBUQMetaObject@@XZ 00000001400d2a64 f   Qt5Widgets:Qt5Widgets.dll
 0001:000d1a6a       ?qt_metacall@QWidget@@UEAAHW4Call@QMetaObject@@HPEAPEAX@Z 00000001400d2a6a f   Qt5Widgets:Qt5Widgets.dll
 0001:000d1a70       ?qt_metacast@QWidget@@UEAAPEAXPEBD@Z 00000001400d2a70 f   Qt5Widgets:Qt5Widgets.dll
 0001:000d1a76       ?metaObject@QWidget@@UEBAPEBUQMetaObject@@XZ 00000001400d2a76 f   Qt5Widgets:Qt5Widgets.dll
 0001:000d1a7c       ?keyPressEvent@QAbstractItemView@@MEAAXPEAVQKeyEvent@@@Z 00000001400d2a7c f   Qt5Widgets:Qt5Widgets.dll
 0001:000d1a82       ?mouseDoubleClickEvent@QAbstractItemView@@MEAAXPEAVQMouseEvent@@@Z 00000001400d2a82 f   Qt5Widgets:Qt5Widgets.dll
 0001:000d1a88       ?mousePressEvent@QAbstractItemView@@MEAAXPEAVQMouseEvent@@@Z 00000001400d2a88 f   Qt5Widgets:Qt5Widgets.dll
 0001:000d1a8e       ?viewportEvent@QAbstractItemView@@MEAA_NPEAVQEvent@@@Z 00000001400d2a8e f   Qt5Widgets:Qt5Widgets.dll
 0001:000d1a94       ?verticalScrollbarValueChanged@QAbstractItemView@@MEAAXH@Z 00000001400d2a94 f   Qt5Widgets:Qt5Widgets.dll
 0001:000d1a9a       ?horizontalScrollbarAction@QAbstractItemView@@MEAAXH@Z 00000001400d2a9a f   Qt5Widgets:Qt5Widgets.dll
 0001:000d1aa0       ?selectAll@QAbstractItemView@@UEAAXXZ 00000001400d2aa0 f   Qt5Widgets:Qt5Widgets.dll
 0001:000d1aa6       ?sizeHintForColumn@QAbstractItemView@@UEBAHH@Z 00000001400d2aa6 f   Qt5Widgets:Qt5Widgets.dll
 0001:000d1aac       ?keyboardSearch@QAbstractItemView@@UEAAXAEBVQString@@@Z 00000001400d2aac f   Qt5Widgets:Qt5Widgets.dll
 0001:000d1ab2       ?setSelectionModel@QAbstractItemView@@UEAAXPEAVQItemSelectionModel@@@Z 00000001400d2ab2 f   Qt5Widgets:Qt5Widgets.dll
 0001:000d1ab8       ?setModel@QAbstractItemView@@UEAAXPEAVQAbstractItemModel@@@Z 00000001400d2ab8 f   Qt5Widgets:Qt5Widgets.dll
 0001:000d1abe       ?nextCheckState@QToolButton@@MEAAXXZ 00000001400d2abe f   Qt5Widgets:Qt5Widgets.dll
 0001:000d1ac4       ?hitButton@QToolButton@@MEBA_NAEBVQPoint@@@Z 00000001400d2ac4 f   Qt5Widgets:Qt5Widgets.dll
 0001:000d1aca       ?changeEvent@QToolButton@@MEAAXPEAVQEvent@@@Z 00000001400d2aca f   Qt5Widgets:Qt5Widgets.dll
 0001:000d1ad0       ?timerEvent@QToolButton@@MEAAXPEAVQTimerEvent@@@Z 00000001400d2ad0 f   Qt5Widgets:Qt5Widgets.dll
 0001:000d1ad6       ?leaveEvent@QToolButton@@MEAAXPEAVQEvent@@@Z 00000001400d2ad6 f   Qt5Widgets:Qt5Widgets.dll
 0001:000d1adc       ?enterEvent@QToolButton@@MEAAXPEAVQEvent@@@Z 00000001400d2adc f   Qt5Widgets:Qt5Widgets.dll
 0001:000d1ae2       ?actionEvent@QToolButton@@MEAAXPEAVQActionEvent@@@Z 00000001400d2ae2 f   Qt5Widgets:Qt5Widgets.dll
 0001:000d1ae8       ?paintEvent@QToolButton@@MEAAXPEAVQPaintEvent@@@Z 00000001400d2ae8 f   Qt5Widgets:Qt5Widgets.dll
 0001:000d1aee       ?mouseReleaseEvent@QToolButton@@MEAAXPEAVQMouseEvent@@@Z 00000001400d2aee f   Qt5Widgets:Qt5Widgets.dll
 0001:000d1af4       ?mousePressEvent@QToolButton@@MEAAXPEAVQMouseEvent@@@Z 00000001400d2af4 f   Qt5Widgets:Qt5Widgets.dll
 0001:000d1afa       ?event@QToolButton@@MEAA_NPEAVQEvent@@@Z 00000001400d2afa f   Qt5Widgets:Qt5Widgets.dll
 0001:000d1b00       ?minimumSizeHint@QToolButton@@UEBA?AVQSize@@XZ 00000001400d2b00 f   Qt5Widgets:Qt5Widgets.dll
 0001:000d1b06       ?sizeHint@QToolButton@@UEBA?AVQSize@@XZ 00000001400d2b06 f   Qt5Widgets:Qt5Widgets.dll
 0001:000d1b0c       ?qt_metacall@QToolButton@@UEAAHW4Call@QMetaObject@@HPEAPEAX@Z 00000001400d2b0c f   Qt5Widgets:Qt5Widgets.dll
 0001:000d1b12       ?qt_metacast@QToolButton@@UEAAPEAXPEBD@Z 00000001400d2b12 f   Qt5Widgets:Qt5Widgets.dll
 0001:000d1b18       ?metaObject@QToolButton@@UEBAPEBUQMetaObject@@XZ 00000001400d2b18 f   Qt5Widgets:Qt5Widgets.dll
 0001:000d1b1e       ?viewportSizeHint@QListView@@MEBA?AVQSize@@XZ 00000001400d2b1e f   Qt5Widgets:Qt5Widgets.dll
 0001:000d1b24       ?currentChanged@QListView@@MEAAXAEBVQModelIndex@@0@Z 00000001400d2b24 f   Qt5Widgets:Qt5Widgets.dll
 0001:000d1b2a       ?selectionChanged@QListView@@MEAAXAEBVQItemSelection@@0@Z 00000001400d2b2a f   Qt5Widgets:Qt5Widgets.dll
 0001:000d1b30       ?isIndexHidden@QListView@@MEBA_NAEBVQModelIndex@@@Z 00000001400d2b30 f   Qt5Widgets:Qt5Widgets.dll
 0001:000d1b36       ?updateGeometries@QListView@@MEAAXXZ 00000001400d2b36 f   Qt5Widgets:Qt5Widgets.dll
 0001:000d1b3c       ?selectedIndexes@QListView@@MEBA?AV?$QList@VQModelIndex@@@@XZ 00000001400d2b3c f   Qt5Widgets:Qt5Widgets.dll
 0001:000d1b42       ?visualRegionForSelection@QListView@@MEBA?AVQRegion@@AEBVQItemSelection@@@Z 00000001400d2b42 f   Qt5Widgets:Qt5Widgets.dll
 0001:000d1b48       ?setSelection@QListView@@MEAAXAEBVQRect@@V?$QFlags@W4SelectionFlag@QItemSelectionModel@@@@@Z 00000001400d2b48 f   Qt5Widgets:Qt5Widgets.dll
 0001:000d1b4e       ?moveCursor@QListView@@MEAA?AVQModelIndex@@W4CursorAction@QAbstractItemView@@V?$QFlags@W4KeyboardModifier@Qt@@@@@Z 00000001400d2b4e f   Qt5Widgets:Qt5Widgets.dll
 0001:000d1b54       ?verticalOffset@QListView@@MEBAHXZ 00000001400d2b54 f   Qt5Widgets:Qt5Widgets.dll
 0001:000d1b5a       ?horizontalOffset@QListView@@MEBAHXZ 00000001400d2b5a f   Qt5Widgets:Qt5Widgets.dll
 0001:000d1b60       ?paintEvent@QListView@@MEAAXPEAVQPaintEvent@@@Z 00000001400d2b60 f   Qt5Widgets:Qt5Widgets.dll
 0001:000d1b66       ?viewOptions@QListView@@MEBA?AVQStyleOptionViewItem@@XZ 00000001400d2b66 f   Qt5Widgets:Qt5Widgets.dll
 0001:000d1b6c       ?startDrag@QListView@@MEAAXV?$QFlags@W4DropAction@Qt@@@@@Z 00000001400d2b6c f   Qt5Widgets:Qt5Widgets.dll
 0001:000d1b72       ?dropEvent@QListView@@MEAAXPEAVQDropEvent@@@Z 00000001400d2b72 f   Qt5Widgets:Qt5Widgets.dll
 0001:000d1b78       ?dragLeaveEvent@QListView@@MEAAXPEAVQDragLeaveEvent@@@Z 00000001400d2b78 f   Qt5Widgets:Qt5Widgets.dll
 0001:000d1b7e       ?dragMoveEvent@QListView@@MEAAXPEAVQDragMoveEvent@@@Z 00000001400d2b7e f   Qt5Widgets:Qt5Widgets.dll
 0001:000d1b84       ?resizeEvent@QListView@@MEAAXPEAVQResizeEvent@@@Z 00000001400d2b84 f   Qt5Widgets:Qt5Widgets.dll
 0001:000d1b8a       ?timerEvent@QListView@@MEAAXPEAVQTimerEvent@@@Z 00000001400d2b8a f   Qt5Widgets:Qt5Widgets.dll
 0001:000d1b90       ?wheelEvent@QListView@@MEAAXPEAVQWheelEvent@@@Z 00000001400d2b90 f   Qt5Widgets:Qt5Widgets.dll
 0001:000d1b96       ?mouseReleaseEvent@QListView@@MEAAXPEAVQMouseEvent@@@Z 00000001400d2b96 f   Qt5Widgets:Qt5Widgets.dll
 0001:000d1b9c       ?mouseMoveEvent@QListView@@MEAAXPEAVQMouseEvent@@@Z 00000001400d2b9c f   Qt5Widgets:Qt5Widgets.dll
 0001:000d1ba2       ?rowsAboutToBeRemoved@QListView@@MEAAXAEBVQModelIndex@@HH@Z 00000001400d2ba2 f   Qt5Widgets:Qt5Widgets.dll
 0001:000d1ba8       ?rowsInserted@QListView@@MEAAXAEBVQModelIndex@@HH@Z 00000001400d2ba8 f   Qt5Widgets:Qt5Widgets.dll
 0001:000d1bae       ?dataChanged@QListView@@MEAAXAEBVQModelIndex@@0AEBV?$QVector@H@@@Z 00000001400d2bae f   Qt5Widgets:Qt5Widgets.dll
 0001:000d1bb4       ?scrollContentsBy@QListView@@MEAAXHH@Z 00000001400d2bb4 f   Qt5Widgets:Qt5Widgets.dll
 0001:000d1bba       ?event@QListView@@MEAA_NPEAVQEvent@@@Z 00000001400d2bba f   Qt5Widgets:Qt5Widgets.dll
 0001:000d1bc0       ?setRootIndex@QListView@@UEAAXAEBVQModelIndex@@@Z 00000001400d2bc0 f   Qt5Widgets:Qt5Widgets.dll
 0001:000d1bc6       ?reset@QListView@@UEAAXXZ  00000001400d2bc6 f   Qt5Widgets:Qt5Widgets.dll
 0001:000d1bcc       ?doItemsLayout@QListView@@UEAAXXZ 00000001400d2bcc f   Qt5Widgets:Qt5Widgets.dll
 0001:000d1bd2       ?indexAt@QListView@@UEBA?AVQModelIndex@@AEBVQPoint@@@Z 00000001400d2bd2 f   Qt5Widgets:Qt5Widgets.dll
 0001:000d1bd8       ?scrollTo@QListView@@UEAAXAEBVQModelIndex@@W4ScrollHint@QAbstractItemView@@@Z 00000001400d2bd8 f   Qt5Widgets:Qt5Widgets.dll
 0001:000d1bde       ?visualRect@QListView@@UEBA?AVQRect@@AEBVQModelIndex@@@Z 00000001400d2bde f   Qt5Widgets:Qt5Widgets.dll
 0001:000d1be4       ?qt_metacall@QListView@@UEAAHW4Call@QMetaObject@@HPEAPEAX@Z 00000001400d2be4 f   Qt5Widgets:Qt5Widgets.dll
 0001:000d1bea       ?qt_metacast@QListView@@UEAAPEAXPEBD@Z 00000001400d2bea f   Qt5Widgets:Qt5Widgets.dll
 0001:000d1bf0       ?metaObject@QListView@@UEBAPEBUQMetaObject@@XZ 00000001400d2bf0 f   Qt5Widgets:Qt5Widgets.dll
 0001:000d1bf6       ?paintingRoles@QAbstractItemDelegate@@UEBA?AV?$QVector@H@@XZ 00000001400d2bf6 f   Qt5Widgets:Qt5Widgets.dll
 0001:000d1bfc       ?helpEvent@QAbstractItemDelegate@@UEAA_NPEAVQHelpEvent@@PEAVQAbstractItemView@@AEBVQStyleOptionViewItem@@AEBVQModelIndex@@@Z 00000001400d2bfc f   Qt5Widgets:Qt5Widgets.dll
 0001:000d1c02       ?destroyEditor@QAbstractItemDelegate@@UEBAXPEAVQWidget@@AEBVQModelIndex@@@Z 00000001400d2c02 f   Qt5Widgets:Qt5Widgets.dll
 0001:000d1c08       ?editorEvent@QStyledItemDelegate@@MEAA_NPEAVQEvent@@PEAVQAbstractItemModel@@AEBVQStyleOptionViewItem@@AEBVQModelIndex@@@Z 00000001400d2c08 f   Qt5Widgets:Qt5Widgets.dll
 0001:000d1c0e       ?initStyleOption@QStyledItemDelegate@@MEBAXPEAVQStyleOptionViewItem@@AEBVQModelIndex@@@Z 00000001400d2c0e f   Qt5Widgets:Qt5Widgets.dll
 0001:000d1c14       ?displayText@QStyledItemDelegate@@UEBA?AVQString@@AEBVQVariant@@AEBVQLocale@@@Z 00000001400d2c14 f   Qt5Widgets:Qt5Widgets.dll
 0001:000d1c1a       ?updateEditorGeometry@QStyledItemDelegate@@UEBAXPEAVQWidget@@AEBVQStyleOptionViewItem@@AEBVQModelIndex@@@Z 00000001400d2c1a f   Qt5Widgets:Qt5Widgets.dll
 0001:000d1c20       ?sizeHint@QStyledItemDelegate@@UEBA?AVQSize@@AEBVQStyleOptionViewItem@@AEBVQModelIndex@@@Z 00000001400d2c20 f   Qt5Widgets:Qt5Widgets.dll
 0001:000d1c26       ?paint@QStyledItemDelegate@@UEBAXPEAVQPainter@@AEBVQStyleOptionViewItem@@AEBVQModelIndex@@@Z 00000001400d2c26 f   Qt5Widgets:Qt5Widgets.dll
 0001:000d1c2c       ?fixup@QSpinBox@@MEBAXAEAVQString@@@Z 00000001400d2c2c f   Qt5Widgets:Qt5Widgets.dll
 0001:000d1c32       ?textFromValue@QSpinBox@@MEBA?AVQString@@H@Z 00000001400d2c32 f   Qt5Widgets:Qt5Widgets.dll
 0001:000d1c38       ?valueFromText@QSpinBox@@MEBAHAEBVQString@@@Z 00000001400d2c38 f   Qt5Widgets:Qt5Widgets.dll
 0001:000d1c3e       ?validate@QSpinBox@@MEBA?AW4State@QValidator@@AEAVQString@@AEAH@Z 00000001400d2c3e f   Qt5Widgets:Qt5Widgets.dll
 0001:000d1c44       ?event@QSpinBox@@MEAA_NPEAVQEvent@@@Z 00000001400d2c44 f   Qt5Widgets:Qt5Widgets.dll
 0001:000d1c4a       ?qt_metacall@QSpinBox@@UEAAHW4Call@QMetaObject@@HPEAPEAX@Z 00000001400d2c4a f   Qt5Widgets:Qt5Widgets.dll
 0001:000d1c50       ?qt_metacast@QSpinBox@@UEAAPEAXPEBD@Z 00000001400d2c50 f   Qt5Widgets:Qt5Widgets.dll
 0001:000d1c56       ?metaObject@QSpinBox@@UEBAPEBUQMetaObject@@XZ 00000001400d2c56 f   Qt5Widgets:Qt5Widgets.dll
 0001:000d1c5c       ?stepEnabled@QAbstractSpinBox@@MEBA?AV?$QFlags@W4StepEnabledFlag@QAbstractSpinBox@@@@XZ 00000001400d2c5c f   Qt5Widgets:Qt5Widgets.dll
 0001:000d1c62       ?showEvent@QAbstractSpinBox@@MEAAXPEAVQShowEvent@@@Z 00000001400d2c62 f   Qt5Widgets:Qt5Widgets.dll
 0001:000d1c68       ?paintEvent@QAbstractSpinBox@@MEAAXPEAVQPaintEvent@@@Z 00000001400d2c68 f   Qt5Widgets:Qt5Widgets.dll
 0001:000d1c6e       ?timerEvent@QAbstractSpinBox@@MEAAXPEAVQTimerEvent@@@Z 00000001400d2c6e f   Qt5Widgets:Qt5Widgets.dll
 0001:000d1c74       ?mouseMoveEvent@QAbstractSpinBox@@MEAAXPEAVQMouseEvent@@@Z 00000001400d2c74 f   Qt5Widgets:Qt5Widgets.dll
 0001:000d1c7a       ?mouseReleaseEvent@QAbstractSpinBox@@MEAAXPEAVQMouseEvent@@@Z 00000001400d2c7a f   Qt5Widgets:Qt5Widgets.dll
 0001:000d1c80       ?mousePressEvent@QAbstractSpinBox@@MEAAXPEAVQMouseEvent@@@Z 00000001400d2c80 f   Qt5Widgets:Qt5Widgets.dll
 0001:000d1c86       ?hideEvent@QAbstractSpinBox@@MEAAXPEAVQHideEvent@@@Z 00000001400d2c86 f   Qt5Widgets:Qt5Widgets.dll
 0001:000d1c8c       ?closeEvent@QAbstractSpinBox@@MEAAXPEAVQCloseEvent@@@Z 00000001400d2c8c f   Qt5Widgets:Qt5Widgets.dll
 0001:000d1c92       ?changeEvent@QAbstractSpinBox@@MEAAXPEAVQEvent@@@Z 00000001400d2c92 f   Qt5Widgets:Qt5Widgets.dll
 0001:000d1c98       ?contextMenuEvent@QAbstractSpinBox@@MEAAXPEAVQContextMenuEvent@@@Z 00000001400d2c98 f   Qt5Widgets:Qt5Widgets.dll
 0001:000d1c9e       ?focusOutEvent@QAbstractSpinBox@@MEAAXPEAVQFocusEvent@@@Z 00000001400d2c9e f   Qt5Widgets:Qt5Widgets.dll
 0001:000d1ca4       ?focusInEvent@QAbstractSpinBox@@MEAAXPEAVQFocusEvent@@@Z 00000001400d2ca4 f   Qt5Widgets:Qt5Widgets.dll
 0001:000d1caa       ?wheelEvent@QAbstractSpinBox@@MEAAXPEAVQWheelEvent@@@Z 00000001400d2caa f   Qt5Widgets:Qt5Widgets.dll
 0001:000d1cb0       ?keyReleaseEvent@QAbstractSpinBox@@MEAAXPEAVQKeyEvent@@@Z 00000001400d2cb0 f   Qt5Widgets:Qt5Widgets.dll
 0001:000d1cb6       ?keyPressEvent@QAbstractSpinBox@@MEAAXPEAVQKeyEvent@@@Z 00000001400d2cb6 f   Qt5Widgets:Qt5Widgets.dll
 0001:000d1cbc       ?resizeEvent@QAbstractSpinBox@@MEAAXPEAVQResizeEvent@@@Z 00000001400d2cbc f   Qt5Widgets:Qt5Widgets.dll
 0001:000d1cc2       ?clear@QAbstractSpinBox@@UEAAXXZ 00000001400d2cc2 f   Qt5Widgets:Qt5Widgets.dll
 0001:000d1cc8       ?stepBy@QAbstractSpinBox@@UEAAXH@Z 00000001400d2cc8 f   Qt5Widgets:Qt5Widgets.dll
 0001:000d1cce       ?inputMethodQuery@QAbstractSpinBox@@UEBA?AVQVariant@@W4InputMethodQuery@Qt@@@Z 00000001400d2cce f   Qt5Widgets:Qt5Widgets.dll
 0001:000d1cd4       ?minimumSizeHint@QAbstractSpinBox@@UEBA?AVQSize@@XZ 00000001400d2cd4 f   Qt5Widgets:Qt5Widgets.dll
 0001:000d1cda       ?sizeHint@QAbstractSpinBox@@UEBA?AVQSize@@XZ 00000001400d2cda f   Qt5Widgets:Qt5Widgets.dll
 0001:000d1ce0       ?dragMoveEvent@QAbstractItemView@@MEAAXPEAVQDragMoveEvent@@@Z 00000001400d2ce0 f   Qt5Widgets:Qt5Widgets.dll
 0001:000d1ce6       ?mouseReleaseEvent@QAbstractItemView@@MEAAXPEAVQMouseEvent@@@Z 00000001400d2ce6 f   Qt5Widgets:Qt5Widgets.dll
 0001:000d1cec       ?mouseMoveEvent@QAbstractItemView@@MEAAXPEAVQMouseEvent@@@Z 00000001400d2cec f   Qt5Widgets:Qt5Widgets.dll
 0001:000d1cf2       ?rowsAboutToBeRemoved@QAbstractItemView@@MEAAXAEBVQModelIndex@@HH@Z 00000001400d2cf2 f   Qt5Widgets:Qt5Widgets.dll
 0001:000d1cf8       ?rowsInserted@QAbstractItemView@@MEAAXAEBVQModelIndex@@HH@Z 00000001400d2cf8 f   Qt5Widgets:Qt5Widgets.dll
 0001:000d1cfe       ?dataChanged@QAbstractItemView@@MEAAXAEBVQModelIndex@@0AEBV?$QVector@H@@@Z 00000001400d2cfe f   Qt5Widgets:Qt5Widgets.dll
 0001:000d1d04       ?reset@QAbstractItemView@@UEAAXXZ 00000001400d2d04 f   Qt5Widgets:Qt5Widgets.dll
 0001:000d1d0a       ?currentChanged@QTableView@@MEAAXAEBVQModelIndex@@0@Z 00000001400d2d0a f   Qt5Widgets:Qt5Widgets.dll
 0001:000d1d10       ?selectionChanged@QTableView@@MEAAXAEBVQItemSelection@@0@Z 00000001400d2d10 f   Qt5Widgets:Qt5Widgets.dll
 0001:000d1d16       ?isIndexHidden@QTableView@@MEBA_NAEBVQModelIndex@@@Z 00000001400d2d16 f   Qt5Widgets:Qt5Widgets.dll
 0001:000d1d1c       ?horizontalScrollbarAction@QTableView@@MEAAXH@Z 00000001400d2d1c f   Qt5Widgets:Qt5Widgets.dll
 0001:000d1d22       ?verticalScrollbarAction@QTableView@@MEAAXH@Z 00000001400d2d22 f   Qt5Widgets:Qt5Widgets.dll
 0001:000d1d28       ?sizeHintForColumn@QTableView@@MEBAHH@Z 00000001400d2d28 f   Qt5Widgets:Qt5Widgets.dll
 0001:000d1d2e       ?sizeHintForRow@QTableView@@MEBAHH@Z 00000001400d2d2e f   Qt5Widgets:Qt5Widgets.dll
 0001:000d1d34       ?viewportSizeHint@QTableView@@MEBA?AVQSize@@XZ 00000001400d2d34 f   Qt5Widgets:Qt5Widgets.dll
 0001:000d1d3a       ?updateGeometries@QTableView@@MEAAXXZ 00000001400d2d3a f   Qt5Widgets:Qt5Widgets.dll
 0001:000d1d40       ?selectedIndexes@QTableView@@MEBA?AV?$QList@VQModelIndex@@@@XZ 00000001400d2d40 f   Qt5Widgets:Qt5Widgets.dll
 0001:000d1d46       ?visualRegionForSelection@QTableView@@MEBA?AVQRegion@@AEBVQItemSelection@@@Z 00000001400d2d46 f   Qt5Widgets:Qt5Widgets.dll
 0001:000d1d4c       ?setSelection@QTableView@@MEAAXAEBVQRect@@V?$QFlags@W4SelectionFlag@QItemSelectionModel@@@@@Z 00000001400d2d4c f   Qt5Widgets:Qt5Widgets.dll
 0001:000d1d52       ?moveCursor@QTableView@@MEAA?AVQModelIndex@@W4CursorAction@QAbstractItemView@@V?$QFlags@W4KeyboardModifier@Qt@@@@@Z 00000001400d2d52 f   Qt5Widgets:Qt5Widgets.dll
 0001:000d1d58       ?verticalOffset@QTableView@@MEBAHXZ 00000001400d2d58 f   Qt5Widgets:Qt5Widgets.dll
 0001:000d1d5e       ?horizontalOffset@QTableView@@MEBAHXZ 00000001400d2d5e f   Qt5Widgets:Qt5Widgets.dll
 0001:000d1d64       ?timerEvent@QTableView@@MEAAXPEAVQTimerEvent@@@Z 00000001400d2d64 f   Qt5Widgets:Qt5Widgets.dll
 0001:000d1d6a       ?paintEvent@QTableView@@MEAAXPEAVQPaintEvent@@@Z 00000001400d2d6a f   Qt5Widgets:Qt5Widgets.dll
 0001:000d1d70       ?viewOptions@QTableView@@MEBA?AVQStyleOptionViewItem@@XZ 00000001400d2d70 f   Qt5Widgets:Qt5Widgets.dll
 0001:000d1d76       ?scrollContentsBy@QTableView@@MEAAXHH@Z 00000001400d2d76 f   Qt5Widgets:Qt5Widgets.dll
 0001:000d1d7c       ?indexAt@QTableView@@UEBA?AVQModelIndex@@AEBVQPoint@@@Z 00000001400d2d7c f   Qt5Widgets:Qt5Widgets.dll
 0001:000d1d82       ?scrollTo@QTableView@@UEAAXAEBVQModelIndex@@W4ScrollHint@QAbstractItemView@@@Z 00000001400d2d82 f   Qt5Widgets:Qt5Widgets.dll
 0001:000d1d88       ?visualRect@QTableView@@UEBA?AVQRect@@AEBVQModelIndex@@@Z 00000001400d2d88 f   Qt5Widgets:Qt5Widgets.dll
 0001:000d1d8e       ?doItemsLayout@QTableView@@UEAAXXZ 00000001400d2d8e f   Qt5Widgets:Qt5Widgets.dll
 0001:000d1d94       ?setSelectionModel@QTableView@@UEAAXPEAVQItemSelectionModel@@@Z 00000001400d2d94 f   Qt5Widgets:Qt5Widgets.dll
 0001:000d1d9a       ?setRootIndex@QTableView@@UEAAXAEBVQModelIndex@@@Z 00000001400d2d9a f   Qt5Widgets:Qt5Widgets.dll
 0001:000d1da0       ?setModel@QTableWidget@@EEAAXPEAVQAbstractItemModel@@@Z 00000001400d2da0 f   Qt5Widgets:Qt5Widgets.dll
 0001:000d1da6       ?dropEvent@QTableWidget@@MEAAXPEAVQDropEvent@@@Z 00000001400d2da6 f   Qt5Widgets:Qt5Widgets.dll
 0001:000d1dac       ?supportedDropActions@QTableWidget@@MEBA?AV?$QFlags@W4DropAction@Qt@@@@XZ 00000001400d2dac f   Qt5Widgets:Qt5Widgets.dll
 0001:000d1db2       ?dropMimeData@QTableWidget@@MEAA_NHHPEBVQMimeData@@W4DropAction@Qt@@@Z 00000001400d2db2 f   Qt5Widgets:Qt5Widgets.dll
 0001:000d1db8       ?mimeData@QTableWidget@@MEBAPEAVQMimeData@@V?$QList@PEAVQTableWidgetItem@@@@@Z 00000001400d2db8 f   Qt5Widgets:Qt5Widgets.dll
 0001:000d1dbe       ?mimeTypes@QTableWidget@@MEBA?AVQStringList@@XZ 00000001400d2dbe f   Qt5Widgets:Qt5Widgets.dll
 0001:000d1dc4       ?event@QTableWidget@@MEAA_NPEAVQEvent@@@Z 00000001400d2dc4 f   Qt5Widgets:Qt5Widgets.dll
 0001:000d1dca       ?qt_metacall@QTableWidget@@UEAAHW4Call@QMetaObject@@HPEAPEAX@Z 00000001400d2dca f   Qt5Widgets:Qt5Widgets.dll
 0001:000d1dd0       ?qt_metacast@QTableWidget@@UEAAPEAXPEBD@Z 00000001400d2dd0 f   Qt5Widgets:Qt5Widgets.dll
 0001:000d1dd6       ?metaObject@QTableWidget@@UEBAPEBUQMetaObject@@XZ 00000001400d2dd6 f   Qt5Widgets:Qt5Widgets.dll
 0001:000d1ddc       ?write@QTableWidgetItem@@UEBAXAEAVQDataStream@@@Z 00000001400d2ddc f   Qt5Widgets:Qt5Widgets.dll
 0001:000d1de2       ?read@QTableWidgetItem@@UEAAXAEAVQDataStream@@@Z 00000001400d2de2 f   Qt5Widgets:Qt5Widgets.dll
 0001:000d1de8       ??MQTableWidgetItem@@UEBA_NAEBV0@@Z 00000001400d2de8 f   Qt5Widgets:Qt5Widgets.dll
 0001:000d1dee       ?setData@QTableWidgetItem@@UEAAXHAEBVQVariant@@@Z 00000001400d2dee f   Qt5Widgets:Qt5Widgets.dll
 0001:000d1df4       ?data@QTableWidgetItem@@UEBA?AVQVariant@@H@Z 00000001400d2df4 f   Qt5Widgets:Qt5Widgets.dll
 0001:000d1dfa       ?clone@QTableWidgetItem@@UEBAPEAV1@XZ 00000001400d2dfa f   Qt5Widgets:Qt5Widgets.dll
 0001:000d1e00       ?paintEvent@QDateTimeEdit@@MEAAXPEAVQPaintEvent@@@Z 00000001400d2e00 f   Qt5Widgets:Qt5Widgets.dll
 0001:000d1e06       ?mousePressEvent@QDateTimeEdit@@MEAAXPEAVQMouseEvent@@@Z 00000001400d2e06 f   Qt5Widgets:Qt5Widgets.dll
 0001:000d1e0c       ?stepEnabled@QDateTimeEdit@@MEBA?AV?$QFlags@W4StepEnabledFlag@QAbstractSpinBox@@@@XZ 00000001400d2e0c f   Qt5Widgets:Qt5Widgets.dll
 0001:000d1e12       ?textFromDateTime@QDateTimeEdit@@MEBA?AVQString@@AEBVQDateTime@@@Z 00000001400d2e12 f   Qt5Widgets:Qt5Widgets.dll
 0001:000d1e18       ?dateTimeFromText@QDateTimeEdit@@MEBA?AVQDateTime@@AEBVQString@@@Z 00000001400d2e18 f   Qt5Widgets:Qt5Widgets.dll
 0001:000d1e1e       ?fixup@QDateTimeEdit@@MEBAXAEAVQString@@@Z 00000001400d2e1e f   Qt5Widgets:Qt5Widgets.dll
 0001:000d1e24       ?validate@QDateTimeEdit@@MEBA?AW4State@QValidator@@AEAVQString@@AEAH@Z 00000001400d2e24 f   Qt5Widgets:Qt5Widgets.dll
 0001:000d1e2a       ?focusNextPrevChild@QDateTimeEdit@@MEAA_N_N@Z 00000001400d2e2a f   Qt5Widgets:Qt5Widgets.dll
 0001:000d1e30       ?focusInEvent@QDateTimeEdit@@MEAAXPEAVQFocusEvent@@@Z 00000001400d2e30 f   Qt5Widgets:Qt5Widgets.dll
 0001:000d1e36       ?wheelEvent@QDateTimeEdit@@MEAAXPEAVQWheelEvent@@@Z 00000001400d2e36 f   Qt5Widgets:Qt5Widgets.dll
 0001:000d1e3c       ?keyPressEvent@QDateTimeEdit@@MEAAXPEAVQKeyEvent@@@Z 00000001400d2e3c f   Qt5Widgets:Qt5Widgets.dll
 0001:000d1e42       ?event@QDateTimeEdit@@UEAA_NPEAVQEvent@@@Z 00000001400d2e42 f   Qt5Widgets:Qt5Widgets.dll
 0001:000d1e48       ?stepBy@QDateTimeEdit@@UEAAXH@Z 00000001400d2e48 f   Qt5Widgets:Qt5Widgets.dll
 0001:000d1e4e       ?clear@QDateTimeEdit@@UEAAXXZ 00000001400d2e4e f   Qt5Widgets:Qt5Widgets.dll
 0001:000d1e54       ?sizeHint@QDateTimeEdit@@UEBA?AVQSize@@XZ 00000001400d2e54 f   Qt5Widgets:Qt5Widgets.dll
 0001:000d1e5a       ?qt_metacall@QDateEdit@@UEAAHW4Call@QMetaObject@@HPEAPEAX@Z 00000001400d2e5a f   Qt5Widgets:Qt5Widgets.dll
 0001:000d1e60       ?qt_metacast@QDateEdit@@UEAAPEAXPEBD@Z 00000001400d2e60 f   Qt5Widgets:Qt5Widgets.dll
 0001:000d1e66       ?metaObject@QDateEdit@@UEBAPEBUQMetaObject@@XZ 00000001400d2e66 f   Qt5Widgets:Qt5Widgets.dll
 0001:000d1e6c       ?mouseMoveEvent@QRadioButton@@MEAAXPEAVQMouseEvent@@@Z 00000001400d2e6c f   Qt5Widgets:Qt5Widgets.dll
 0001:000d1e72       ?paintEvent@QRadioButton@@MEAAXPEAVQPaintEvent@@@Z 00000001400d2e72 f   Qt5Widgets:Qt5Widgets.dll
 0001:000d1e78       ?hitButton@QRadioButton@@MEBA_NAEBVQPoint@@@Z 00000001400d2e78 f   Qt5Widgets:Qt5Widgets.dll
 0001:000d1e7e       ?event@QRadioButton@@MEAA_NPEAVQEvent@@@Z 00000001400d2e7e f   Qt5Widgets:Qt5Widgets.dll
 0001:000d1e84       ?minimumSizeHint@QRadioButton@@UEBA?AVQSize@@XZ 00000001400d2e84 f   Qt5Widgets:Qt5Widgets.dll
 0001:000d1e8a       ?sizeHint@QRadioButton@@UEBA?AVQSize@@XZ 00000001400d2e8a f   Qt5Widgets:Qt5Widgets.dll
 0001:000d1e90       ?qt_metacall@QRadioButton@@UEAAHW4Call@QMetaObject@@HPEAPEAX@Z 00000001400d2e90 f   Qt5Widgets:Qt5Widgets.dll
 0001:000d1e96       ?qt_metacast@QRadioButton@@UEAAPEAXPEBD@Z 00000001400d2e96 f   Qt5Widgets:Qt5Widgets.dll
 0001:000d1e9c       ?metaObject@QRadioButton@@UEBAPEBUQMetaObject@@XZ 00000001400d2e9c f   Qt5Widgets:Qt5Widgets.dll
 0001:000d1ea2       ?mouseReleaseEvent@QGroupBox@@MEAAXPEAVQMouseEvent@@@Z 00000001400d2ea2 f   Qt5Widgets:Qt5Widgets.dll
 0001:000d1ea8       ?mouseMoveEvent@QGroupBox@@MEAAXPEAVQMouseEvent@@@Z 00000001400d2ea8 f   Qt5Widgets:Qt5Widgets.dll
 0001:000d1eae       ?mousePressEvent@QGroupBox@@MEAAXPEAVQMouseEvent@@@Z 00000001400d2eae f   Qt5Widgets:Qt5Widgets.dll
 0001:000d1eb4       ?changeEvent@QGroupBox@@MEAAXPEAVQEvent@@@Z 00000001400d2eb4 f   Qt5Widgets:Qt5Widgets.dll
 0001:000d1eba       ?focusInEvent@QGroupBox@@MEAAXPEAVQFocusEvent@@@Z 00000001400d2eba f   Qt5Widgets:Qt5Widgets.dll
 0001:000d1ec0       ?paintEvent@QGroupBox@@MEAAXPEAVQPaintEvent@@@Z 00000001400d2ec0 f   Qt5Widgets:Qt5Widgets.dll
 0001:000d1ec6       ?resizeEvent@QGroupBox@@MEAAXPEAVQResizeEvent@@@Z 00000001400d2ec6 f   Qt5Widgets:Qt5Widgets.dll
 0001:000d1ecc       ?childEvent@QGroupBox@@MEAAXPEAVQChildEvent@@@Z 00000001400d2ecc f   Qt5Widgets:Qt5Widgets.dll
 0001:000d1ed2       ?event@QGroupBox@@MEAA_NPEAVQEvent@@@Z 00000001400d2ed2 f   Qt5Widgets:Qt5Widgets.dll
 0001:000d1ed8       ?minimumSizeHint@QGroupBox@@UEBA?AVQSize@@XZ 00000001400d2ed8 f   Qt5Widgets:Qt5Widgets.dll
 0001:000d1ede       ?qt_metacall@QGroupBox@@UEAAHW4Call@QMetaObject@@HPEAPEAX@Z 00000001400d2ede f   Qt5Widgets:Qt5Widgets.dll
 0001:000d1ee4       ?qt_metacast@QGroupBox@@UEAAPEAXPEBD@Z 00000001400d2ee4 f   Qt5Widgets:Qt5Widgets.dll
 0001:000d1eea       ?metaObject@QGroupBox@@UEBAPEBUQMetaObject@@XZ 00000001400d2eea f   Qt5Widgets:Qt5Widgets.dll
 0001:000d1ef0       ?timerEvent@QTabBar@@MEAAXPEAVQTimerEvent@@@Z 00000001400d2ef0 f   Qt5Widgets:Qt5Widgets.dll
 0001:000d1ef6       ?changeEvent@QTabBar@@MEAAXPEAVQEvent@@@Z 00000001400d2ef6 f   Qt5Widgets:Qt5Widgets.dll
 0001:000d1efc       ?keyPressEvent@QTabBar@@MEAAXPEAVQKeyEvent@@@Z 00000001400d2efc f   Qt5Widgets:Qt5Widgets.dll
 0001:000d1f02       ?wheelEvent@QTabBar@@MEAAXPEAVQWheelEvent@@@Z 00000001400d2f02 f   Qt5Widgets:Qt5Widgets.dll
 0001:000d1f08       ?mouseReleaseEvent@QTabBar@@MEAAXPEAVQMouseEvent@@@Z 00000001400d2f08 f   Qt5Widgets:Qt5Widgets.dll
 0001:000d1f0e       ?mouseMoveEvent@QTabBar@@MEAAXPEAVQMouseEvent@@@Z 00000001400d2f0e f   Qt5Widgets:Qt5Widgets.dll
 0001:000d1f14       ?mousePressEvent@QTabBar@@MEAAXPEAVQMouseEvent@@@Z 00000001400d2f14 f   Qt5Widgets:Qt5Widgets.dll
 0001:000d1f1a       ?paintEvent@QTabBar@@MEAAXPEAVQPaintEvent@@@Z 00000001400d2f1a f   Qt5Widgets:Qt5Widgets.dll
 0001:000d1f20       ?hideEvent@QTabBar@@MEAAXPEAVQHideEvent@@@Z 00000001400d2f20 f   Qt5Widgets:Qt5Widgets.dll
 0001:000d1f26       ?showEvent@QTabBar@@MEAAXPEAVQShowEvent@@@Z 00000001400d2f26 f   Qt5Widgets:Qt5Widgets.dll
 0001:000d1f2c       ?resizeEvent@QTabBar@@MEAAXPEAVQResizeEvent@@@Z 00000001400d2f2c f   Qt5Widgets:Qt5Widgets.dll
 0001:000d1f32       ?event@QTabBar@@MEAA_NPEAVQEvent@@@Z 00000001400d2f32 f   Qt5Widgets:Qt5Widgets.dll
 0001:000d1f38       ?tabLayoutChange@QTabBar@@MEAAXXZ 00000001400d2f38 f   Qt5Widgets:Qt5Widgets.dll
 0001:000d1f3e       ?tabRemoved@QTabBar@@MEAAXH@Z 00000001400d2f3e f   Qt5Widgets:Qt5Widgets.dll
 0001:000d1f44       ?tabInserted@QTabBar@@MEAAXH@Z 00000001400d2f44 f   Qt5Widgets:Qt5Widgets.dll
 0001:000d1f4a       ?minimumTabSizeHint@QTabBar@@MEBA?AVQSize@@H@Z 00000001400d2f4a f   Qt5Widgets:Qt5Widgets.dll
 0001:000d1f50       ?tabSizeHint@QTabBar@@MEBA?AVQSize@@H@Z 00000001400d2f50 f   Qt5Widgets:Qt5Widgets.dll
 0001:000d1f56       ?minimumSizeHint@QTabBar@@UEBA?AVQSize@@XZ 00000001400d2f56 f   Qt5Widgets:Qt5Widgets.dll
 0001:000d1f5c       ?sizeHint@QTabBar@@UEBA?AVQSize@@XZ 00000001400d2f5c f   Qt5Widgets:Qt5Widgets.dll
 0001:000d1f62       ??1QTabBar@@UEAA@XZ        00000001400d2f62 f   Qt5Widgets:Qt5Widgets.dll
 0001:000d1f68       ?changeEvent@QAbstractSlider@@MEAAXPEAVQEvent@@@Z 00000001400d2f68 f   Qt5Widgets:Qt5Widgets.dll
 0001:000d1f6e       ?wheelEvent@QAbstractSlider@@MEAAXPEAVQWheelEvent@@@Z 00000001400d2f6e f   Qt5Widgets:Qt5Widgets.dll
 0001:000d1f74       ?timerEvent@QAbstractSlider@@MEAAXPEAVQTimerEvent@@@Z 00000001400d2f74 f   Qt5Widgets:Qt5Widgets.dll
 0001:000d1f7a       ?keyPressEvent@QAbstractSlider@@MEAAXPEAVQKeyEvent@@@Z 00000001400d2f7a f   Qt5Widgets:Qt5Widgets.dll
 0001:000d1f80       ?sliderChange@QAbstractSlider@@MEAAXW4SliderChange@1@@Z 00000001400d2f80 f   Qt5Widgets:Qt5Widgets.dll
 0001:000d1f86       ?mouseMoveEvent@QSlider@@MEAAXPEAVQMouseEvent@@@Z 00000001400d2f86 f   Qt5Widgets:Qt5Widgets.dll
 0001:000d1f8c       ?mouseReleaseEvent@QSlider@@MEAAXPEAVQMouseEvent@@@Z 00000001400d2f8c f   Qt5Widgets:Qt5Widgets.dll
 0001:000d1f92       ?mousePressEvent@QSlider@@MEAAXPEAVQMouseEvent@@@Z 00000001400d2f92 f   Qt5Widgets:Qt5Widgets.dll
 0001:000d1f98       ?paintEvent@QSlider@@MEAAXPEAVQPaintEvent@@@Z 00000001400d2f98 f   Qt5Widgets:Qt5Widgets.dll
 0001:000d1f9e       ?event@QSlider@@UEAA_NPEAVQEvent@@@Z 00000001400d2f9e f   Qt5Widgets:Qt5Widgets.dll
 0001:000d1fa4       ?minimumSizeHint@QSlider@@UEBA?AVQSize@@XZ 00000001400d2fa4 f   Qt5Widgets:Qt5Widgets.dll
 0001:000d1faa       ?sizeHint@QSlider@@UEBA?AVQSize@@XZ 00000001400d2faa f   Qt5Widgets:Qt5Widgets.dll
 0001:000d1fb0       ?qt_metacall@QSlider@@UEAAHW4Call@QMetaObject@@HPEAPEAX@Z 00000001400d2fb0 f   Qt5Widgets:Qt5Widgets.dll
 0001:000d1fb6       ?qt_metacast@QSlider@@UEAAPEAXPEBD@Z 00000001400d2fb6 f   Qt5Widgets:Qt5Widgets.dll
 0001:000d1fbc       ?metaObject@QSlider@@UEBAPEBUQMetaObject@@XZ 00000001400d2fbc f   Qt5Widgets:Qt5Widgets.dll
 0001:000d1fc2       ?type@QGraphicsItem@@UEBAHXZ 00000001400d2fc2 f   Qt5Widgets:Qt5Widgets.dll
 0001:000d1fc8       ?opaqueArea@QGraphicsItem@@UEBA?AVQPainterPath@@XZ 00000001400d2fc8 f   Qt5Widgets:Qt5Widgets.dll
 0001:000d1fce       ?isObscuredBy@QGraphicsItem@@UEBA_NPEBV1@@Z 00000001400d2fce f   Qt5Widgets:Qt5Widgets.dll
 0001:000d1fd4       ??1QGraphicsItem@@UEAA@XZ  00000001400d2fd4 f   Qt5Widgets:Qt5Widgets.dll
 0001:000d1fda       ??1QGraphicsObject@@UEAA@XZ 00000001400d2fda f   Qt5Widgets:Qt5Widgets.dll
 0001:000d1fe0       ?qt_metacall@QGraphicsObject@@UEAAHW4Call@QMetaObject@@HPEAPEAX@Z 00000001400d2fe0 f   Qt5Widgets:Qt5Widgets.dll
 0001:000d1fe6       ?qt_metacast@QGraphicsObject@@UEAAPEAXPEBD@Z 00000001400d2fe6 f   Qt5Widgets:Qt5Widgets.dll
 0001:000d1fec       ?metaObject@QGraphicsObject@@UEBAPEBUQMetaObject@@XZ 00000001400d2fec f   Qt5Widgets:Qt5Widgets.dll
 0001:000d1ff2       ?extension@QGraphicsEllipseItem@@MEBA?AVQVariant@@AEBV2@@Z 00000001400d2ff2 f   Qt5Widgets:Qt5Widgets.dll
 0001:000d1ff8       ?setExtension@QGraphicsEllipseItem@@MEAAXW4Extension@QGraphicsItem@@AEBVQVariant@@@Z 00000001400d2ff8 f   Qt5Widgets:Qt5Widgets.dll
 0001:000d1ffe       ?supportsExtension@QGraphicsEllipseItem@@MEBA_NW4Extension@QGraphicsItem@@@Z 00000001400d2ffe f   Qt5Widgets:Qt5Widgets.dll
 0001:000d2004       ?type@QGraphicsEllipseItem@@UEBAHXZ 00000001400d3004 f   Qt5Widgets:Qt5Widgets.dll
 0001:000d200a       ?opaqueArea@QGraphicsEllipseItem@@UEBA?AVQPainterPath@@XZ 00000001400d300a f   Qt5Widgets:Qt5Widgets.dll
 0001:000d2010       ?isObscuredBy@QGraphicsEllipseItem@@UEBA_NPEBVQGraphicsItem@@@Z 00000001400d3010 f   Qt5Widgets:Qt5Widgets.dll
 0001:000d2016       ?paint@QGraphicsEllipseItem@@UEAAXPEAVQPainter@@PEBVQStyleOptionGraphicsItem@@PEAVQWidget@@@Z 00000001400d3016 f   Qt5Widgets:Qt5Widgets.dll
 0001:000d201c       ?contains@QGraphicsEllipseItem@@UEBA_NAEBVQPointF@@@Z 00000001400d301c f   Qt5Widgets:Qt5Widgets.dll
 0001:000d2022       ?shape@QGraphicsEllipseItem@@UEBA?AVQPainterPath@@XZ 00000001400d3022 f   Qt5Widgets:Qt5Widgets.dll
 0001:000d2028       ?boundingRect@QGraphicsEllipseItem@@UEBA?AVQRectF@@XZ 00000001400d3028 f   Qt5Widgets:Qt5Widgets.dll
 0001:000d202e       ?event@QDockWidget@@MEAA_NPEAVQEvent@@@Z 00000001400d302e f   Qt5Widgets:Qt5Widgets.dll
 0001:000d2034       ?paintEvent@QDockWidget@@MEAAXPEAVQPaintEvent@@@Z 00000001400d3034 f   Qt5Widgets:Qt5Widgets.dll
 0001:000d203a       ?closeEvent@QDockWidget@@MEAAXPEAVQCloseEvent@@@Z 00000001400d303a f   Qt5Widgets:Qt5Widgets.dll
 0001:000d2040       ?changeEvent@QDockWidget@@MEAAXPEAVQEvent@@@Z 00000001400d3040 f   Qt5Widgets:Qt5Widgets.dll
 0001:000d2046       ?qt_metacall@QDockWidget@@UEAAHW4Call@QMetaObject@@HPEAPEAX@Z 00000001400d3046 f   Qt5Widgets:Qt5Widgets.dll
 0001:000d204c       ?qt_metacast@QDockWidget@@UEAAPEAXPEBD@Z 00000001400d304c f   Qt5Widgets:Qt5Widgets.dll
 0001:000d2052       ?metaObject@QDockWidget@@UEBAPEBUQMetaObject@@XZ 00000001400d3052 f   Qt5Widgets:Qt5Widgets.dll
 0001:000d2058       ??1QMessageBox@@UEAA@XZ    00000001400d3058 f   Qt5Widgets:Qt5Widgets.dll
 0001:000d205e       ?event@QMainWindow@@MEAA_NPEAVQEvent@@@Z 00000001400d305e f   Qt5Widgets:Qt5Widgets.dll
 0001:000d2064       ?contextMenuEvent@QMainWindow@@MEAAXPEAVQContextMenuEvent@@@Z 00000001400d3064 f   Qt5Widgets:Qt5Widgets.dll
 0001:000d206a       ?createPopupMenu@QMainWindow@@UEAAPEAVQMenu@@XZ 00000001400d306a f   Qt5Widgets:Qt5Widgets.dll
 0001:000d2070       ??1QMainWindow@@UEAA@XZ    00000001400d3070 f   Qt5Widgets:Qt5Widgets.dll
 0001:000d2076       ?event@QToolBar@@MEAA_NPEAVQEvent@@@Z 00000001400d3076 f   Qt5Widgets:Qt5Widgets.dll
 0001:000d207c       ?paintEvent@QToolBar@@MEAAXPEAVQPaintEvent@@@Z 00000001400d307c f   Qt5Widgets:Qt5Widgets.dll
 0001:000d2082       ?changeEvent@QToolBar@@MEAAXPEAVQEvent@@@Z 00000001400d3082 f   Qt5Widgets:Qt5Widgets.dll
 0001:000d2088       ?actionEvent@QToolBar@@MEAAXPEAVQActionEvent@@@Z 00000001400d3088 f   Qt5Widgets:Qt5Widgets.dll
 0001:000d208e       ?qt_metacall@QToolBar@@UEAAHW4Call@QMetaObject@@HPEAPEAX@Z 00000001400d308e f   Qt5Widgets:Qt5Widgets.dll
 0001:000d2094       ?qt_metacast@QToolBar@@UEAAPEAXPEBD@Z 00000001400d3094 f   Qt5Widgets:Qt5Widgets.dll
 0001:000d209a       ?metaObject@QToolBar@@UEBAPEBUQMetaObject@@XZ 00000001400d309a f   Qt5Widgets:Qt5Widgets.dll
 0001:000d20a0       ?event@QAction@@MEAA_NPEAVQEvent@@@Z 00000001400d30a0 f   Qt5Widgets:Qt5Widgets.dll
 0001:000d20a6       ?qt_metacall@QAction@@UEAAHW4Call@QMetaObject@@HPEAPEAX@Z 00000001400d30a6 f   Qt5Widgets:Qt5Widgets.dll
 0001:000d20ac       ?qt_metacast@QAction@@UEAAPEAXPEBD@Z 00000001400d30ac f   Qt5Widgets:Qt5Widgets.dll
 0001:000d20b2       ?metaObject@QAction@@UEBAPEBUQMetaObject@@XZ 00000001400d30b2 f   Qt5Widgets:Qt5Widgets.dll
 0001:000d20b8       ?doSetTextCursor@QTextEdit@@MEAAXAEBVQTextCursor@@@Z 00000001400d30b8 f   Qt5Widgets:Qt5Widgets.dll
 0001:000d20be       ?scrollContentsBy@QTextEdit@@MEAAXHH@Z 00000001400d30be f   Qt5Widgets:Qt5Widgets.dll
 0001:000d20c4       ?inputMethodEvent@QTextEdit@@MEAAXPEAVQInputMethodEvent@@@Z 00000001400d30c4 f   Qt5Widgets:Qt5Widgets.dll
 0001:000d20ca       ?insertFromMimeData@QTextEdit@@MEAAXPEBVQMimeData@@@Z 00000001400d30ca f   Qt5Widgets:Qt5Widgets.dll
 0001:000d20d0       ?canInsertFromMimeData@QTextEdit@@MEBA_NPEBVQMimeData@@@Z 00000001400d30d0 f   Qt5Widgets:Qt5Widgets.dll
 0001:000d20d6       ?createMimeDataFromSelection@QTextEdit@@MEBAPEAVQMimeData@@XZ 00000001400d30d6 f   Qt5Widgets:Qt5Widgets.dll
 0001:000d20dc       ?wheelEvent@QTextEdit@@MEAAXPEAVQWheelEvent@@@Z 00000001400d30dc f   Qt5Widgets:Qt5Widgets.dll
 0001:000d20e2       ?changeEvent@QTextEdit@@MEAAXPEAVQEvent@@@Z 00000001400d30e2 f   Qt5Widgets:Qt5Widgets.dll
 0001:000d20e8       ?showEvent@QTextEdit@@MEAAXPEAVQShowEvent@@@Z 00000001400d30e8 f   Qt5Widgets:Qt5Widgets.dll
 0001:000d20ee       ?focusInEvent@QTextEdit@@MEAAXPEAVQFocusEvent@@@Z 00000001400d30ee f   Qt5Widgets:Qt5Widgets.dll
 0001:000d20f4       ?dropEvent@QTextEdit@@MEAAXPEAVQDropEvent@@@Z 00000001400d30f4 f   Qt5Widgets:Qt5Widgets.dll
 0001:000d20fa       ?dragMoveEvent@QTextEdit@@MEAAXPEAVQDragMoveEvent@@@Z 00000001400d30fa f   Qt5Widgets:Qt5Widgets.dll
 0001:000d2100       ?dragLeaveEvent@QTextEdit@@MEAAXPEAVQDragLeaveEvent@@@Z 00000001400d3100 f   Qt5Widgets:Qt5Widgets.dll
 0001:000d2106       ?dragEnterEvent@QTextEdit@@MEAAXPEAVQDragEnterEvent@@@Z 00000001400d3106 f   Qt5Widgets:Qt5Widgets.dll
 0001:000d210c       ?contextMenuEvent@QTextEdit@@MEAAXPEAVQContextMenuEvent@@@Z 00000001400d310c f   Qt5Widgets:Qt5Widgets.dll
 0001:000d2112       ?mouseDoubleClickEvent@QTextEdit@@MEAAXPEAVQMouseEvent@@@Z 00000001400d3112 f   Qt5Widgets:Qt5Widgets.dll
 0001:000d2118       ?resizeEvent@QTextEdit@@MEAAXPEAVQResizeEvent@@@Z 00000001400d3118 f   Qt5Widgets:Qt5Widgets.dll
 0001:000d211e       ?keyReleaseEvent@QTextEdit@@MEAAXPEAVQKeyEvent@@@Z 00000001400d311e f   Qt5Widgets:Qt5Widgets.dll
 0001:000d2124       ?timerEvent@QTextEdit@@MEAAXPEAVQTimerEvent@@@Z 00000001400d3124 f   Qt5Widgets:Qt5Widgets.dll
 0001:000d212a       ?inputMethodQuery@QTextEdit@@UEBA?AVQVariant@@W4InputMethodQuery@Qt@@@Z 00000001400d312a f   Qt5Widgets:Qt5Widgets.dll
 0001:000d2130       ?paintEvent@QTextBrowser@@MEAAXPEAVQPaintEvent@@@Z 00000001400d3130 f   Qt5Widgets:Qt5Widgets.dll
 0001:000d2136       ?focusNextPrevChild@QTextBrowser@@MEAA_N_N@Z 00000001400d3136 f   Qt5Widgets:Qt5Widgets.dll
 0001:000d213c       ?focusOutEvent@QTextBrowser@@MEAAXPEAVQFocusEvent@@@Z 00000001400d313c f   Qt5Widgets:Qt5Widgets.dll
 0001:000d2142       ?mouseReleaseEvent@QTextBrowser@@MEAAXPEAVQMouseEvent@@@Z 00000001400d3142 f   Qt5Widgets:Qt5Widgets.dll
 0001:000d2148       ?mousePressEvent@QTextBrowser@@MEAAXPEAVQMouseEvent@@@Z 00000001400d3148 f   Qt5Widgets:Qt5Widgets.dll
 0001:000d214e       ?mouseMoveEvent@QTextBrowser@@MEAAXPEAVQMouseEvent@@@Z 00000001400d314e f   Qt5Widgets:Qt5Widgets.dll
 0001:000d2154       ?keyPressEvent@QTextBrowser@@MEAAXPEAVQKeyEvent@@@Z 00000001400d3154 f   Qt5Widgets:Qt5Widgets.dll
 0001:000d215a       ?event@QTextBrowser@@MEAA_NPEAVQEvent@@@Z 00000001400d315a f   Qt5Widgets:Qt5Widgets.dll
 0001:000d2160       ?reload@QTextBrowser@@UEAAXXZ 00000001400d3160 f   Qt5Widgets:Qt5Widgets.dll
 0001:000d2166       ?home@QTextBrowser@@UEAAXXZ 00000001400d3166 f   Qt5Widgets:Qt5Widgets.dll
 0001:000d216c       ?forward@QTextBrowser@@UEAAXXZ 00000001400d316c f   Qt5Widgets:Qt5Widgets.dll
 0001:000d2172       ?backward@QTextBrowser@@UEAAXXZ 00000001400d3172 f   Qt5Widgets:Qt5Widgets.dll
 0001:000d2178       ?setSource@QTextBrowser@@UEAAXAEBVQUrl@@@Z 00000001400d3178 f   Qt5Widgets:Qt5Widgets.dll
 0001:000d217e       ?loadResource@QTextBrowser@@UEAA?AVQVariant@@HAEBVQUrl@@@Z 00000001400d317e f   Qt5Widgets:Qt5Widgets.dll
 0001:000d2184       ?qt_metacall@QTextBrowser@@UEAAHW4Call@QMetaObject@@HPEAPEAX@Z 00000001400d3184 f   Qt5Widgets:Qt5Widgets.dll
 0001:000d218a       ?qt_metacast@QTextBrowser@@UEAAPEAXPEBD@Z 00000001400d318a f   Qt5Widgets:Qt5Widgets.dll
 0001:000d2190       ?metaObject@QTextBrowser@@UEBAPEBUQMetaObject@@XZ 00000001400d3190 f   Qt5Widgets:Qt5Widgets.dll
 0001:000d2196       ?showEvent@QProgressDialog@@MEAAXPEAVQShowEvent@@@Z 00000001400d3196 f   Qt5Widgets:Qt5Widgets.dll
 0001:000d219c       ?changeEvent@QProgressDialog@@MEAAXPEAVQEvent@@@Z 00000001400d319c f   Qt5Widgets:Qt5Widgets.dll
 0001:000d21a2       ?closeEvent@QProgressDialog@@MEAAXPEAVQCloseEvent@@@Z 00000001400d31a2 f   Qt5Widgets:Qt5Widgets.dll
 0001:000d21a8       ?resizeEvent@QProgressDialog@@MEAAXPEAVQResizeEvent@@@Z 00000001400d31a8 f   Qt5Widgets:Qt5Widgets.dll
 0001:000d21ae       ?sizeHint@QProgressDialog@@UEBA?AVQSize@@XZ 00000001400d31ae f   Qt5Widgets:Qt5Widgets.dll
 0001:000d21b4       ?qt_metacall@QProgressDialog@@UEAAHW4Call@QMetaObject@@HPEAPEAX@Z 00000001400d31b4 f   Qt5Widgets:Qt5Widgets.dll
 0001:000d21ba       ?qt_metacast@QProgressDialog@@UEAAPEAXPEBD@Z 00000001400d31ba f   Qt5Widgets:Qt5Widgets.dll
 0001:000d21c0       ?metaObject@QProgressDialog@@UEBAPEBUQMetaObject@@XZ 00000001400d31c0 f   Qt5Widgets:Qt5Widgets.dll
 0001:000d21c6       ?invalidate@QLayout@@UEAAXXZ 00000001400d31c6 f   Qt5Widgets:Qt5Widgets.dll
 0001:000d21cc       ??1QLayout@@UEAA@XZ        00000001400d31cc f   Qt5Widgets:Qt5Widgets.dll
 0001:000d21d2       ?fixup@QDoubleSpinBox@@UEBAXAEAVQString@@@Z 00000001400d31d2 f   Qt5Widgets:Qt5Widgets.dll
 0001:000d21d8       ?textFromValue@QDoubleSpinBox@@UEBA?AVQString@@N@Z 00000001400d31d8 f   Qt5Widgets:Qt5Widgets.dll
 0001:000d21de       ?valueFromText@QDoubleSpinBox@@UEBANAEBVQString@@@Z 00000001400d31de f   Qt5Widgets:Qt5Widgets.dll
 0001:000d21e4       ?validate@QDoubleSpinBox@@UEBA?AW4State@QValidator@@AEAVQString@@AEAH@Z 00000001400d31e4 f   Qt5Widgets:Qt5Widgets.dll
 0001:000d21ea       ?qt_metacall@QDoubleSpinBox@@UEAAHW4Call@QMetaObject@@HPEAPEAX@Z 00000001400d31ea f   Qt5Widgets:Qt5Widgets.dll
 0001:000d21f0       ?qt_metacast@QDoubleSpinBox@@UEAAPEAXPEBD@Z 00000001400d31f0 f   Qt5Widgets:Qt5Widgets.dll
 0001:000d21f6       ?metaObject@QDoubleSpinBox@@UEBAPEBUQMetaObject@@XZ 00000001400d31f6 f   Qt5Widgets:Qt5Widgets.dll
 0001:000d21fc       ?event@QAbstractSpinBox@@UEAA_NPEAVQEvent@@@Z 00000001400d31fc f   Qt5Widgets:Qt5Widgets.dll
 0001:000d2202       ?qt_metacall@QBoxLayout@@UEAAHW4Call@QMetaObject@@HPEAPEAX@Z 00000001400d3202 f   Qt5Widgets:Qt5Widgets.dll
 0001:000d2208       ?qt_metacast@QBoxLayout@@UEAAPEAXPEBD@Z 00000001400d3208 f   Qt5Widgets:Qt5Widgets.dll
 0001:000d220e       ?metaObject@QBoxLayout@@UEBAPEBUQMetaObject@@XZ 00000001400d320e f   Qt5Widgets:Qt5Widgets.dll
 0001:000d2214       ?addItem@QGridLayout@@MEAAXPEAVQLayoutItem@@@Z 00000001400d3214 f   Qt5Widgets:Qt5Widgets.dll
 0001:000d221a       ?setGeometry@QGridLayout@@UEAAXAEBVQRect@@@Z 00000001400d321a f   Qt5Widgets:Qt5Widgets.dll
 0001:000d2220       ?count@QGridLayout@@UEBAHXZ 00000001400d3220 f   Qt5Widgets:Qt5Widgets.dll
 0001:000d2226       ?takeAt@QGridLayout@@UEAAPEAVQLayoutItem@@H@Z 00000001400d3226 f   Qt5Widgets:Qt5Widgets.dll
 0001:000d222c       ?itemAt@QGridLayout@@UEBAPEAVQLayoutItem@@H@Z 00000001400d322c f   Qt5Widgets:Qt5Widgets.dll
 0001:000d2232       ?invalidate@QGridLayout@@UEAAXXZ 00000001400d3232 f   Qt5Widgets:Qt5Widgets.dll
 0001:000d2238       ?expandingDirections@QGridLayout@@UEBA?AV?$QFlags@W4Orientation@Qt@@@@XZ 00000001400d3238 f   Qt5Widgets:Qt5Widgets.dll
 0001:000d223e       ?minimumHeightForWidth@QGridLayout@@UEBAHH@Z 00000001400d323e f   Qt5Widgets:Qt5Widgets.dll
 0001:000d2244       ?heightForWidth@QGridLayout@@UEBAHH@Z 00000001400d3244 f   Qt5Widgets:Qt5Widgets.dll
 0001:000d224a       ?hasHeightForWidth@QGridLayout@@UEBA_NXZ 00000001400d324a f   Qt5Widgets:Qt5Widgets.dll
 0001:000d2250       ?maximumSize@QGridLayout@@UEBA?AVQSize@@XZ 00000001400d3250 f   Qt5Widgets:Qt5Widgets.dll
 0001:000d2256       ?minimumSize@QGridLayout@@UEBA?AVQSize@@XZ 00000001400d3256 f   Qt5Widgets:Qt5Widgets.dll
 0001:000d225c       ?sizeHint@QGridLayout@@UEBA?AVQSize@@XZ 00000001400d325c f   Qt5Widgets:Qt5Widgets.dll
 0001:000d2262       ?qt_metacall@QGridLayout@@UEAAHW4Call@QMetaObject@@HPEAPEAX@Z 00000001400d3262 f   Qt5Widgets:Qt5Widgets.dll
 0001:000d2268       ?qt_metacast@QGridLayout@@UEAAPEAXPEBD@Z 00000001400d3268 f   Qt5Widgets:Qt5Widgets.dll
 0001:000d226e       ?metaObject@QGridLayout@@UEBAPEBUQMetaObject@@XZ 00000001400d326e f   Qt5Widgets:Qt5Widgets.dll
 0001:000d2274       ?keyPressEvent@QAbstractScrollArea@@MEAAXPEAVQKeyEvent@@@Z 00000001400d3274 f   Qt5Widgets:Qt5Widgets.dll
 0001:000d227a       ?dropEvent@QAbstractScrollArea@@MEAAXPEAVQDropEvent@@@Z 00000001400d327a f   Qt5Widgets:Qt5Widgets.dll
 0001:000d2280       ?dragLeaveEvent@QAbstractScrollArea@@MEAAXPEAVQDragLeaveEvent@@@Z 00000001400d3280 f   Qt5Widgets:Qt5Widgets.dll
 0001:000d2286       ?dragMoveEvent@QAbstractScrollArea@@MEAAXPEAVQDragMoveEvent@@@Z 00000001400d3286 f   Qt5Widgets:Qt5Widgets.dll
 0001:000d228c       ?dragEnterEvent@QAbstractScrollArea@@MEAAXPEAVQDragEnterEvent@@@Z 00000001400d328c f   Qt5Widgets:Qt5Widgets.dll
 0001:000d2292       ?mouseMoveEvent@QAbstractScrollArea@@MEAAXPEAVQMouseEvent@@@Z 00000001400d3292 f   Qt5Widgets:Qt5Widgets.dll
 0001:000d2298       ?mouseDoubleClickEvent@QAbstractScrollArea@@MEAAXPEAVQMouseEvent@@@Z 00000001400d3298 f   Qt5Widgets:Qt5Widgets.dll
 0001:000d229e       ?mouseReleaseEvent@QAbstractScrollArea@@MEAAXPEAVQMouseEvent@@@Z 00000001400d329e f   Qt5Widgets:Qt5Widgets.dll
 0001:000d22a4       ?mousePressEvent@QAbstractScrollArea@@MEAAXPEAVQMouseEvent@@@Z 00000001400d32a4 f   Qt5Widgets:Qt5Widgets.dll
 0001:000d22aa       ?paintEvent@QAbstractScrollArea@@MEAAXPEAVQPaintEvent@@@Z 00000001400d32aa f   Qt5Widgets:Qt5Widgets.dll
 0001:000d22b0       ?paintEvent@QFrame@@MEAAXPEAVQPaintEvent@@@Z 00000001400d32b0 f   Qt5Widgets:Qt5Widgets.dll
 0001:000d22b6       ?viewportSizeHint@QScrollArea@@MEBA?AVQSize@@XZ 00000001400d32b6 f   Qt5Widgets:Qt5Widgets.dll
 0001:000d22bc       ?scrollContentsBy@QScrollArea@@MEAAXHH@Z 00000001400d32bc f   Qt5Widgets:Qt5Widgets.dll
 0001:000d22c2       ?resizeEvent@QScrollArea@@MEAAXPEAVQResizeEvent@@@Z 00000001400d32c2 f   Qt5Widgets:Qt5Widgets.dll
 0001:000d22c8       ?eventFilter@QScrollArea@@MEAA_NPEAVQObject@@PEAVQEvent@@@Z 00000001400d32c8 f   Qt5Widgets:Qt5Widgets.dll
 0001:000d22ce       ?event@QScrollArea@@MEAA_NPEAVQEvent@@@Z 00000001400d32ce f   Qt5Widgets:Qt5Widgets.dll
 0001:000d22d4       ?focusNextPrevChild@QScrollArea@@UEAA_N_N@Z 00000001400d32d4 f   Qt5Widgets:Qt5Widgets.dll
 0001:000d22da       ?sizeHint@QScrollArea@@UEBA?AVQSize@@XZ 00000001400d32da f   Qt5Widgets:Qt5Widgets.dll
 0001:000d22e0       ?qt_metacall@QScrollArea@@UEAAHW4Call@QMetaObject@@HPEAPEAX@Z 00000001400d32e0 f   Qt5Widgets:Qt5Widgets.dll
 0001:000d22e6       ?qt_metacast@QScrollArea@@UEAAPEAXPEBD@Z 00000001400d32e6 f   Qt5Widgets:Qt5Widgets.dll
 0001:000d22ec       ?metaObject@QScrollArea@@UEBAPEBUQMetaObject@@XZ 00000001400d32ec f   Qt5Widgets:Qt5Widgets.dll
 0001:000d22f2       ?changeEvent@QSplitter@@MEAAXPEAVQEvent@@@Z 00000001400d32f2 f   Qt5Widgets:Qt5Widgets.dll
 0001:000d22f8       ?resizeEvent@QSplitter@@MEAAXPEAVQResizeEvent@@@Z 00000001400d32f8 f   Qt5Widgets:Qt5Widgets.dll
 0001:000d22fe       ?event@QSplitter@@MEAA_NPEAVQEvent@@@Z 00000001400d32fe f   Qt5Widgets:Qt5Widgets.dll
 0001:000d2304       ?childEvent@QSplitter@@MEAAXPEAVQChildEvent@@@Z 00000001400d3304 f   Qt5Widgets:Qt5Widgets.dll
 0001:000d230a       ?createHandle@QSplitter@@MEAAPEAVQSplitterHandle@@XZ 00000001400d330a f   Qt5Widgets:Qt5Widgets.dll
 0001:000d2310       ?minimumSizeHint@QSplitter@@UEBA?AVQSize@@XZ 00000001400d3310 f   Qt5Widgets:Qt5Widgets.dll
 0001:000d2316       ?sizeHint@QSplitter@@UEBA?AVQSize@@XZ 00000001400d3316 f   Qt5Widgets:Qt5Widgets.dll
 0001:000d231c       ?qt_metacall@QSplitter@@UEAAHW4Call@QMetaObject@@HPEAPEAX@Z 00000001400d331c f   Qt5Widgets:Qt5Widgets.dll
 0001:000d2322       ?qt_metacast@QSplitter@@UEAAPEAXPEBD@Z 00000001400d3322 f   Qt5Widgets:Qt5Widgets.dll
 0001:000d2328       ?metaObject@QSplitter@@UEBAPEBUQMetaObject@@XZ 00000001400d3328 f   Qt5Widgets:Qt5Widgets.dll
 0001:000d232e       ??1QBrush@@QEAA@XZ         00000001400d332e f   Qt5Gui:Qt5Gui.dll
 0001:000d2334       ??1QPixmap@@UEAA@XZ        00000001400d3334 f   Qt5Gui:Qt5Gui.dll
 0001:000d233a       ??1QPen@@QEAA@XZ           00000001400d333a f   Qt5Gui:Qt5Gui.dll
 0001:000d2340       ??1QFont@@QEAA@XZ          00000001400d3340 f   Qt5Gui:Qt5Gui.dll
 0001:000d2346       ??1QPolygonF@@QEAA@XZ      00000001400d3346 f   Qt5Gui:Qt5Gui.dll
 0001:000d234c       ??1QPainter@@QEAA@XZ       00000001400d334c f   Qt5Gui:Qt5Gui.dll
 0001:000d2352       ??1QImage@@UEAA@XZ         00000001400d3352 f   Qt5Gui:Qt5Gui.dll
 0001:000d2358       ??1QPalette@@QEAA@XZ       00000001400d3358 f   Qt5Gui:Qt5Gui.dll
 0001:000d235e       ??1QIcon@@QEAA@XZ          00000001400d335e f   Qt5Gui:Qt5Gui.dll
 0001:000d2364       ??1QTextOption@@QEAA@XZ    00000001400d3364 f   Qt5Gui:Qt5Gui.dll
 0001:000d236a       ??1QKeySequence@@QEAA@XZ   00000001400d336a f   Qt5Gui:Qt5Gui.dll
 0001:000d2370       ??1QTextBlockFormat@@QEAA@XZ 00000001400d3370 f   Qt5Gui:Qt5Gui.dll
 0001:000d2376       ??1QTextCursor@@QEAA@XZ    00000001400d3376 f   Qt5Gui:Qt5Gui.dll
 0001:000d237c       ??1QTextCharFormat@@QEAA@XZ 00000001400d337c f   Qt5Gui:Qt5Gui.dll
 0001:000d2382       ??1QCursor@@QEAA@XZ        00000001400d3382 f   Qt5Gui:Qt5Gui.dll
 0001:000d2388       ??1QPainterPath@@QEAA@XZ   00000001400d3388 f   Qt5Gui:Qt5Gui.dll
 0001:000d238e       ??1QFontMetrics@@QEAA@XZ   00000001400d338e f   Qt5Gui:Qt5Gui.dll
 0001:000d2394       ?fixup@QValidator@@UEBAXAEAVQString@@@Z 00000001400d3394 f   Qt5Gui:Qt5Gui.dll
 0001:000d239a       ?run@ThreadEngineBase@QtConcurrent@@EEAAXXZ 00000001400d339a f   Qt5Concurrent:Qt5Concurrent.dll
 0001:000d23a0       ?shouldThrottleThread@ThreadEngineBase@QtConcurrent@@MEAA_NXZ 00000001400d33a0 f   Qt5Concurrent:Qt5Concurrent.dll
 0001:000d23a6       ?shouldStartThread@ThreadEngineBase@QtConcurrent@@MEAA_NXZ 00000001400d33a6 f   Qt5Concurrent:Qt5Concurrent.dll
 0001:000d23ac       ?threadFunction@ThreadEngineBase@QtConcurrent@@MEAA?AW4ThreadFunctionResult@2@XZ 00000001400d33ac f   Qt5Concurrent:Qt5Concurrent.dll
 0001:000d23b2       ?finish@ThreadEngineBase@QtConcurrent@@MEAAXXZ 00000001400d33b2 f   Qt5Concurrent:Qt5Concurrent.dll
 0001:000d23b8       ?start@ThreadEngineBase@QtConcurrent@@MEAAXXZ 00000001400d33b8 f   Qt5Concurrent:Qt5Concurrent.dll
 0001:000d23be       ?disconnectNotify@QObject@@MEAAXAEBVQMetaMethod@@@Z 00000001400d33be f   Qt5Core:Qt5Core.dll
 0001:000d23c4       ?connectNotify@QObject@@MEAAXAEBVQMetaMethod@@@Z 00000001400d33c4 f   Qt5Core:Qt5Core.dll
 0001:000d23ca       ?customEvent@QObject@@MEAAXPEAVQEvent@@@Z 00000001400d33ca f   Qt5Core:Qt5Core.dll
 0001:000d23d0       ?childEvent@QObject@@MEAAXPEAVQChildEvent@@@Z 00000001400d33d0 f   Qt5Core:Qt5Core.dll
 0001:000d23d6       ?timerEvent@QObject@@MEAAXPEAVQTimerEvent@@@Z 00000001400d33d6 f   Qt5Core:Qt5Core.dll
 0001:000d23dc       ?eventFilter@QObject@@UEAA_NPEAV1@PEAVQEvent@@@Z 00000001400d33dc f   Qt5Core:Qt5Core.dll
 0001:000d23e2       ?event@QObject@@UEAA_NPEAVQEvent@@@Z 00000001400d33e2 f   Qt5Core:Qt5Core.dll
 0001:000d23e8       ??1QObject@@UEAA@XZ        00000001400d33e8 f   Qt5Core:Qt5Core.dll
 0001:000d23ee       ??1QVariant@@QEAA@XZ       00000001400d33ee f   Qt5Core:Qt5Core.dll
 0001:000d23f4       ??1QPersistentModelIndex@@QEAA@XZ 00000001400d33f4 f   Qt5Core:Qt5Core.dll
 0001:000d23fa       ??1QString@@QEAA@XZ        00000001400d33fa f   Qt5Core:Qt5Core.dll
 0001:000d2400       ??1QByteArray@@QEAA@XZ     00000001400d3400 f   Qt5Core:Qt5Core.dll
 0001:000d2406       ?updateDirection@QParallelAnimationGroup@@MEAAXW4Direction@QAbstractAnimation@@@Z 00000001400d3406 f   Qt5Core:Qt5Core.dll
 0001:000d240c       ?updateState@QParallelAnimationGroup@@MEAAXW4State@QAbstractAnimation@@0@Z 00000001400d340c f   Qt5Core:Qt5Core.dll
 0001:000d2412       ?updateCurrentTime@QParallelAnimationGroup@@MEAAXH@Z 00000001400d3412 f   Qt5Core:Qt5Core.dll
 0001:000d2418       ?event@QParallelAnimationGroup@@MEAA_NPEAVQEvent@@@Z 00000001400d3418 f   Qt5Core:Qt5Core.dll
 0001:000d241e       ?duration@QParallelAnimationGroup@@UEBAHXZ 00000001400d341e f   Qt5Core:Qt5Core.dll
 0001:000d2424       ?qt_metacall@QParallelAnimationGroup@@UEAAHW4Call@QMetaObject@@HPEAPEAX@Z 00000001400d3424 f   Qt5Core:Qt5Core.dll
 0001:000d242a       ?qt_metacast@QParallelAnimationGroup@@UEAAPEAXPEBD@Z 00000001400d342a f   Qt5Core:Qt5Core.dll
 0001:000d2430       ?metaObject@QParallelAnimationGroup@@UEBAPEBUQMetaObject@@XZ 00000001400d3430 f   Qt5Core:Qt5Core.dll
 0001:000d2436       ??1QDateTime@@QEAA@XZ      00000001400d3436 f   Qt5Core:Qt5Core.dll
 0001:000d243c       ?updateDirection@QAbstractAnimation@@MEAAXW4Direction@1@@Z 00000001400d343c f   Qt5Core:Qt5Core.dll
 0001:000d2442       ?updateDirection@QSequentialAnimationGroup@@MEAAXW4Direction@QAbstractAnimation@@@Z 00000001400d3442 f   Qt5Core:Qt5Core.dll
 0001:000d2448       ?updateState@QSequentialAnimationGroup@@MEAAXW4State@QAbstractAnimation@@0@Z 00000001400d3448 f   Qt5Core:Qt5Core.dll
 0001:000d244e       ?updateCurrentTime@QSequentialAnimationGroup@@MEAAXH@Z 00000001400d344e f   Qt5Core:Qt5Core.dll
 0001:000d2454       ?event@QSequentialAnimationGroup@@MEAA_NPEAVQEvent@@@Z 00000001400d3454 f   Qt5Core:Qt5Core.dll
 0001:000d245a       ?duration@QSequentialAnimationGroup@@UEBAHXZ 00000001400d345a f   Qt5Core:Qt5Core.dll
 0001:000d2460       ?qt_metacall@QSequentialAnimationGroup@@UEAAHW4Call@QMetaObject@@HPEAPEAX@Z 00000001400d3460 f   Qt5Core:Qt5Core.dll
 0001:000d2466       ?qt_metacast@QSequentialAnimationGroup@@UEAAPEAXPEBD@Z 00000001400d3466 f   Qt5Core:Qt5Core.dll
 0001:000d246c       ?metaObject@QSequentialAnimationGroup@@UEBAPEBUQMetaObject@@XZ 00000001400d346c f   Qt5Core:Qt5Core.dll
 0001:000d2472       ?interpolated@QVariantAnimation@@MEBA?AVQVariant@@AEBV2@0N@Z 00000001400d3472 f   Qt5Core:Qt5Core.dll
 0001:000d2478       ?updateCurrentTime@QVariantAnimation@@MEAAXH@Z 00000001400d3478 f   Qt5Core:Qt5Core.dll
 0001:000d247e       ?duration@QVariantAnimation@@UEBAHXZ 00000001400d347e f   Qt5Core:Qt5Core.dll
 0001:000d2484       ??1QSettings@@UEAA@XZ      00000001400d3484 f   Qt5Core:Qt5Core.dll
 0001:000d248a       ?updateState@QPropertyAnimation@@MEAAXW4State@QAbstractAnimation@@0@Z 00000001400d348a f   Qt5Core:Qt5Core.dll
 0001:000d2490       ?updateCurrentValue@QPropertyAnimation@@MEAAXAEBVQVariant@@@Z 00000001400d3490 f   Qt5Core:Qt5Core.dll
 0001:000d2496       ?event@QPropertyAnimation@@MEAA_NPEAVQEvent@@@Z 00000001400d3496 f   Qt5Core:Qt5Core.dll
 0001:000d249c       ?qt_metacall@QPropertyAnimation@@UEAAHW4Call@QMetaObject@@HPEAPEAX@Z 00000001400d349c f   Qt5Core:Qt5Core.dll
 0001:000d24a2       ?qt_metacast@QPropertyAnimation@@UEAAPEAXPEBD@Z 00000001400d34a2 f   Qt5Core:Qt5Core.dll
 0001:000d24a8       ?metaObject@QPropertyAnimation@@UEBAPEBUQMetaObject@@XZ 00000001400d34a8 f   Qt5Core:Qt5Core.dll
 0001:000d24ae       ??1QEasingCurve@@QEAA@XZ   00000001400d34ae f   Qt5Core:Qt5Core.dll
 0001:000d24b4       ?timerEvent@QTimer@@MEAAXPEAVQTimerEvent@@@Z 00000001400d34b4 f   Qt5Core:Qt5Core.dll
 0001:000d24ba       ?qt_metacall@QTimer@@UEAAHW4Call@QMetaObject@@HPEAPEAX@Z 00000001400d34ba f   Qt5Core:Qt5Core.dll
 0001:000d24c0       ?qt_metacast@QTimer@@UEAAPEAXPEBD@Z 00000001400d34c0 f   Qt5Core:Qt5Core.dll
 0001:000d24c6       ?metaObject@QTimer@@UEBAPEBUQMetaObject@@XZ 00000001400d34c6 f   Qt5Core:Qt5Core.dll
 0001:000d24cc       ?event@QThread@@UEAA_NPEAVQEvent@@@Z 00000001400d34cc f   Qt5Core:Qt5Core.dll
 0001:000d24d2       ??1QThread@@UEAA@XZ        00000001400d34d2 f   Qt5Core:Qt5Core.dll
 0001:000d24d8       ??1QDebug@@QEAA@XZ         00000001400d34d8 f   Qt5Core:Qt5Core.dll
 0001:000d24de       ??1QDir@@QEAA@XZ           00000001400d34de f   Qt5Core:Qt5Core.dll
 0001:000d24e4       ??1QFileInfo@@QEAA@XZ      00000001400d34e4 f   Qt5Core:Qt5Core.dll
 0001:000d24ea       ?supportedDropActions@QSortFilterProxyModel@@UEBA?AV?$QFlags@W4DropAction@Qt@@@@XZ 00000001400d34ea f   Qt5Core:Qt5Core.dll
 0001:000d24f0       ?mimeTypes@QSortFilterProxyModel@@UEBA?AVQStringList@@XZ 00000001400d34f0 f   Qt5Core:Qt5Core.dll
 0001:000d24f6       ?sort@QSortFilterProxyModel@@UEAAXHW4SortOrder@Qt@@@Z 00000001400d34f6 f   Qt5Core:Qt5Core.dll
 0001:000d24fc       ?span@QSortFilterProxyModel@@UEBA?AVQSize@@AEBVQModelIndex@@@Z 00000001400d34fc f   Qt5Core:Qt5Core.dll
 0001:000d2502       ?match@QSortFilterProxyModel@@UEBA?AV?$QList@VQModelIndex@@@@AEBVQModelIndex@@HAEBVQVariant@@HV?$QFlags@W4MatchFlag@Qt@@@@@Z 00000001400d3502 f   Qt5Core:Qt5Core.dll
 0001:000d2508       ?buddy@QSortFilterProxyModel@@UEBA?AVQModelIndex@@AEBV2@@Z 00000001400d3508 f   Qt5Core:Qt5Core.dll
 0001:000d250e       ?flags@QSortFilterProxyModel@@UEBA?AV?$QFlags@W4ItemFlag@Qt@@@@AEBVQModelIndex@@@Z 00000001400d350e f   Qt5Core:Qt5Core.dll
 0001:000d2514       ?canFetchMore@QSortFilterProxyModel@@UEBA_NAEBVQModelIndex@@@Z 00000001400d3514 f   Qt5Core:Qt5Core.dll
 0001:000d251a       ?fetchMore@QSortFilterProxyModel@@UEAAXAEBVQModelIndex@@@Z 00000001400d351a f   Qt5Core:Qt5Core.dll
 0001:000d2520       ?removeColumns@QSortFilterProxyModel@@UEAA_NHHAEBVQModelIndex@@@Z 00000001400d3520 f   Qt5Core:Qt5Core.dll
 0001:000d2526       ?removeRows@QSortFilterProxyModel@@UEAA_NHHAEBVQModelIndex@@@Z 00000001400d3526 f   Qt5Core:Qt5Core.dll
 0001:000d252c       ?insertColumns@QSortFilterProxyModel@@UEAA_NHHAEBVQModelIndex@@@Z 00000001400d352c f   Qt5Core:Qt5Core.dll
 0001:000d2532       ?insertRows@QSortFilterProxyModel@@UEAA_NHHAEBVQModelIndex@@@Z 00000001400d3532 f   Qt5Core:Qt5Core.dll
 0001:000d2538       ?dropMimeData@QSortFilterProxyModel@@UEAA_NPEBVQMimeData@@W4DropAction@Qt@@HHAEBVQModelIndex@@@Z 00000001400d3538 f   Qt5Core:Qt5Core.dll
 0001:000d253e       ?mimeData@QSortFilterProxyModel@@UEBAPEAVQMimeData@@AEBV?$QList@VQModelIndex@@@@@Z 00000001400d353e f   Qt5Core:Qt5Core.dll
 0001:000d2544       ?setHeaderData@QSortFilterProxyModel@@UEAA_NHW4Orientation@Qt@@AEBVQVariant@@H@Z 00000001400d3544 f   Qt5Core:Qt5Core.dll
 0001:000d254a       ?headerData@QSortFilterProxyModel@@UEBA?AVQVariant@@HW4Orientation@Qt@@H@Z 00000001400d354a f   Qt5Core:Qt5Core.dll
 0001:000d2550       ?setData@QSortFilterProxyModel@@UEAA_NAEBVQModelIndex@@AEBVQVariant@@H@Z 00000001400d3550 f   Qt5Core:Qt5Core.dll
 0001:000d2556       ?data@QSortFilterProxyModel@@UEBA?AVQVariant@@AEBVQModelIndex@@H@Z 00000001400d3556 f   Qt5Core:Qt5Core.dll
 0001:000d255c       ?hasChildren@QSortFilterProxyModel@@UEBA_NAEBVQModelIndex@@@Z 00000001400d355c f   Qt5Core:Qt5Core.dll
 0001:000d2562       ?columnCount@QSortFilterProxyModel@@UEBAHAEBVQModelIndex@@@Z 00000001400d3562 f   Qt5Core:Qt5Core.dll
 0001:000d2568       ?rowCount@QSortFilterProxyModel@@UEBAHAEBVQModelIndex@@@Z 00000001400d3568 f   Qt5Core:Qt5Core.dll
 0001:000d256e       ?sibling@QSortFilterProxyModel@@UEBA?AVQModelIndex@@HHAEBV2@@Z 00000001400d356e f   Qt5Core:Qt5Core.dll
 0001:000d2574       ?index@QSortFilterProxyModel@@UEBA?AVQModelIndex@@HHAEBV2@@Z 00000001400d3574 f   Qt5Core:Qt5Core.dll
 0001:000d257a       ?parent@QSortFilterProxyModel@@UEBA?AVQModelIndex@@AEBV2@@Z 00000001400d357a f   Qt5Core:Qt5Core.dll
 0001:000d2580       ?lessThan@QSortFilterProxyModel@@MEBA_NAEBVQModelIndex@@0@Z 00000001400d3580 f   Qt5Core:Qt5Core.dll
 0001:000d2586       ?filterAcceptsColumn@QSortFilterProxyModel@@MEBA_NHAEBVQModelIndex@@@Z 00000001400d3586 f   Qt5Core:Qt5Core.dll
 0001:000d258c       ?filterAcceptsRow@QSortFilterProxyModel@@MEBA_NHAEBVQModelIndex@@@Z 00000001400d358c f   Qt5Core:Qt5Core.dll
 0001:000d2592       ?mapSelectionFromSource@QSortFilterProxyModel@@UEBA?AVQItemSelection@@AEBV2@@Z 00000001400d3592 f   Qt5Core:Qt5Core.dll
 0001:000d2598       ?mapSelectionToSource@QSortFilterProxyModel@@UEBA?AVQItemSelection@@AEBV2@@Z 00000001400d3598 f   Qt5Core:Qt5Core.dll
 0001:000d259e       ?mapFromSource@QSortFilterProxyModel@@UEBA?AVQModelIndex@@AEBV2@@Z 00000001400d359e f   Qt5Core:Qt5Core.dll
 0001:000d25a4       ?mapToSource@QSortFilterProxyModel@@UEBA?AVQModelIndex@@AEBV2@@Z 00000001400d35a4 f   Qt5Core:Qt5Core.dll
 0001:000d25aa       ?setSourceModel@QSortFilterProxyModel@@UEAAXPEAVQAbstractItemModel@@@Z 00000001400d35aa f   Qt5Core:Qt5Core.dll
 0001:000d25b0       ?roleNames@QAbstractItemModel@@UEBA?AV?$QHash@HVQByteArray@@@@XZ 00000001400d35b0 f   Qt5Core:Qt5Core.dll
 0001:000d25b6       ?moveColumns@QAbstractItemModel@@UEAA_NAEBVQModelIndex@@HH0H@Z 00000001400d35b6 f   Qt5Core:Qt5Core.dll
 0001:000d25bc       ?moveRows@QAbstractItemModel@@UEAA_NAEBVQModelIndex@@HH0H@Z 00000001400d35bc f   Qt5Core:Qt5Core.dll
 0001:000d25c2       ?supportedDragActions@QAbstractProxyModel@@UEBA?AV?$QFlags@W4DropAction@Qt@@@@XZ 00000001400d35c2 f   Qt5Core:Qt5Core.dll
 0001:000d25c8       ?canDropMimeData@QAbstractProxyModel@@UEBA_NPEBVQMimeData@@W4DropAction@Qt@@HHAEBVQModelIndex@@@Z 00000001400d35c8 f   Qt5Core:Qt5Core.dll
 0001:000d25ce       ?setItemData@QAbstractProxyModel@@UEAA_NAEBVQModelIndex@@AEBV?$QMap@HVQVariant@@@@@Z 00000001400d35ce f   Qt5Core:Qt5Core.dll
 0001:000d25d4       ?itemData@QAbstractProxyModel@@UEBA?AV?$QMap@HVQVariant@@@@AEBVQModelIndex@@@Z 00000001400d35d4 f   Qt5Core:Qt5Core.dll
 0001:000d25da       ?revert@QAbstractProxyModel@@UEAAXXZ 00000001400d35da f   Qt5Core:Qt5Core.dll
 0001:000d25e0       ?submit@QAbstractProxyModel@@UEAA_NXZ 00000001400d35e0 f   Qt5Core:Qt5Core.dll
 0001:000d25e6       ?hasChildren@QAbstractListModel@@EEBA_NAEBVQModelIndex@@@Z 00000001400d35e6 f   Qt5Core:Qt5Core.dll
 0001:000d25ec       ?parent@QAbstractListModel@@EEBA?AVQModelIndex@@AEBV2@@Z 00000001400d35ec f   Qt5Core:Qt5Core.dll
 0001:000d25f2       ?flags@QAbstractListModel@@UEBA?AV?$QFlags@W4ItemFlag@Qt@@@@AEBVQModelIndex@@@Z 00000001400d35f2 f   Qt5Core:Qt5Core.dll
 0001:000d25f8       ?dropMimeData@QAbstractListModel@@UEAA_NPEBVQMimeData@@W4DropAction@Qt@@HHAEBVQModelIndex@@@Z 00000001400d35f8 f   Qt5Core:Qt5Core.dll
 0001:000d25fe       ?sibling@QAbstractListModel@@UEBA?AVQModelIndex@@HHAEBV2@@Z 00000001400d35fe f   Qt5Core:Qt5Core.dll
 0001:000d2604       ?index@QAbstractListModel@@UEBA?AVQModelIndex@@HHAEBV2@@Z 00000001400d3604 f   Qt5Core:Qt5Core.dll
 0001:000d260a       ??1QAbstractListModel@@UEAA@XZ 00000001400d360a f   Qt5Core:Qt5Core.dll
 0001:000d2610       ?revert@QAbstractItemModel@@UEAAXXZ 00000001400d3610 f   Qt5Core:Qt5Core.dll
 0001:000d2616       ?submit@QAbstractItemModel@@UEAA_NXZ 00000001400d3616 f   Qt5Core:Qt5Core.dll
 0001:000d261c       ?span@QAbstractItemModel@@UEBA?AVQSize@@AEBVQModelIndex@@@Z 00000001400d361c f   Qt5Core:Qt5Core.dll
 0001:000d2622       ?match@QAbstractItemModel@@UEBA?AV?$QList@VQModelIndex@@@@AEBVQModelIndex@@HAEBVQVariant@@HV?$QFlags@W4MatchFlag@Qt@@@@@Z 00000001400d3622 f   Qt5Core:Qt5Core.dll
 0001:000d2628       ?buddy@QAbstractItemModel@@UEBA?AVQModelIndex@@AEBV2@@Z 00000001400d3628 f   Qt5Core:Qt5Core.dll
 0001:000d262e       ?sort@QAbstractItemModel@@UEAAXHW4SortOrder@Qt@@@Z 00000001400d362e f   Qt5Core:Qt5Core.dll
 0001:000d2634       ?canFetchMore@QAbstractItemModel@@UEBA_NAEBVQModelIndex@@@Z 00000001400d3634 f   Qt5Core:Qt5Core.dll
 0001:000d263a       ?fetchMore@QAbstractItemModel@@UEAAXAEBVQModelIndex@@@Z 00000001400d363a f   Qt5Core:Qt5Core.dll
 0001:000d2640       ?removeColumns@QAbstractItemModel@@UEAA_NHHAEBVQModelIndex@@@Z 00000001400d3640 f   Qt5Core:Qt5Core.dll
 0001:000d2646       ?removeRows@QAbstractItemModel@@UEAA_NHHAEBVQModelIndex@@@Z 00000001400d3646 f   Qt5Core:Qt5Core.dll
 0001:000d264c       ?insertColumns@QAbstractItemModel@@UEAA_NHHAEBVQModelIndex@@@Z 00000001400d364c f   Qt5Core:Qt5Core.dll
 0001:000d2652       ?insertRows@QAbstractItemModel@@UEAA_NHHAEBVQModelIndex@@@Z 00000001400d3652 f   Qt5Core:Qt5Core.dll
 0001:000d2658       ?supportedDragActions@QAbstractItemModel@@UEBA?AV?$QFlags@W4DropAction@Qt@@@@XZ 00000001400d3658 f   Qt5Core:Qt5Core.dll
 0001:000d265e       ?supportedDropActions@QAbstractItemModel@@UEBA?AV?$QFlags@W4DropAction@Qt@@@@XZ 00000001400d365e f   Qt5Core:Qt5Core.dll
 0001:000d2664       ?canDropMimeData@QAbstractItemModel@@UEBA_NPEBVQMimeData@@W4DropAction@Qt@@HHAEBVQModelIndex@@@Z 00000001400d3664 f   Qt5Core:Qt5Core.dll
 0001:000d266a       ?mimeData@QAbstractItemModel@@UEBAPEAVQMimeData@@AEBV?$QList@VQModelIndex@@@@@Z 00000001400d366a f   Qt5Core:Qt5Core.dll
 0001:000d2670       ?mimeTypes@QAbstractItemModel@@UEBA?AVQStringList@@XZ 00000001400d3670 f   Qt5Core:Qt5Core.dll
 0001:000d2676       ?setItemData@QAbstractItemModel@@UEAA_NAEBVQModelIndex@@AEBV?$QMap@HVQVariant@@@@@Z 00000001400d3676 f   Qt5Core:Qt5Core.dll
 0001:000d267c       ?itemData@QAbstractItemModel@@UEBA?AV?$QMap@HVQVariant@@@@AEBVQModelIndex@@@Z 00000001400d367c f   Qt5Core:Qt5Core.dll
 0001:000d2682       ?setHeaderData@QAbstractItemModel@@UEAA_NHW4Orientation@Qt@@AEBVQVariant@@H@Z 00000001400d3682 f   Qt5Core:Qt5Core.dll
 0001:000d2688       ?setData@QAbstractItemModel@@UEAA_NAEBVQModelIndex@@AEBVQVariant@@H@Z 00000001400d3688 f   Qt5Core:Qt5Core.dll
 0001:000d268e       ?qt_metacall@QSortFilterProxyModel@@UEAAHW4Call@QMetaObject@@HPEAPEAX@Z 00000001400d368e f   Qt5Core:Qt5Core.dll
 0001:000d2694       ?qt_metacast@QSortFilterProxyModel@@UEAAPEAXPEBD@Z 00000001400d3694 f   Qt5Core:Qt5Core.dll
 0001:000d269a       ?metaObject@QSortFilterProxyModel@@UEBAPEBUQMetaObject@@XZ 00000001400d369a f   Qt5Core:Qt5Core.dll
 0001:000d26a0       ??1QItemSelection@@QEAA@XZ 00000001400d36a0 f   Qt5Core:Qt5Core.dll
 0001:000d26a6       ?dropMimeData@QAbstractItemModel@@UEAA_NPEBVQMimeData@@W4DropAction@Qt@@HHAEBVQModelIndex@@@Z 00000001400d36a6 f   Qt5Core:Qt5Core.dll
 0001:000d26ac       ?hasChildren@QAbstractItemModel@@UEBA_NAEBVQModelIndex@@@Z 00000001400d36ac f   Qt5Core:Qt5Core.dll
 0001:000d26b2       ?sibling@QAbstractItemModel@@UEBA?AVQModelIndex@@HHAEBV2@@Z 00000001400d36b2 f   Qt5Core:Qt5Core.dll
 0001:000d26b8       ??1QAbstractItemModel@@UEAA@XZ 00000001400d36b8 f   Qt5Core:Qt5Core.dll
 0001:000d26be       ??1QDataStream@@QEAA@XZ    00000001400d36be f   Qt5Core:Qt5Core.dll
 0001:000d26c4       ?open@QFile@@UEAA_NV?$QFlags@W4OpenModeFlag@QIODevice@@@@@Z 00000001400d36c4 f   Qt5Core:Qt5Core.dll
 0001:000d26ca       ??1QFile@@UEAA@XZ          00000001400d36ca f   Qt5Core:Qt5Core.dll
 0001:000d26d0       ??1QLocale@@QEAA@XZ        00000001400d36d0 f   Qt5Core:Qt5Core.dll
 0001:000d26d6       ??1QTextStream@@UEAA@XZ    00000001400d36d6 f   Qt5Core:Qt5Core.dll
 0001:000d26dc       ??1QTranslator@@UEAA@XZ    00000001400d36dc f   Qt5Core:Qt5Core.dll
 0001:000d26e2       ??1QFutureInterfaceBase@@UEAA@XZ 00000001400d36e2 f   Qt5Core:Qt5Core.dll
 0001:000d26e8       ?flags@QAbstractItemModel@@UEBA?AV?$QFlags@W4ItemFlag@Qt@@@@AEBVQModelIndex@@@Z 00000001400d36e8 f   Qt5Core:Qt5Core.dll
 0001:000d26ee       ?disconnectNotify@QFutureWatcherBase@@MEAAXAEBVQMetaMethod@@@Z 00000001400d36ee f   Qt5Core:Qt5Core.dll
 0001:000d26f4       ?connectNotify@QFutureWatcherBase@@MEAAXAEBVQMetaMethod@@@Z 00000001400d36f4 f   Qt5Core:Qt5Core.dll
 0001:000d26fa       ?event@QFutureWatcherBase@@UEAA_NPEAVQEvent@@@Z 00000001400d36fa f   Qt5Core:Qt5Core.dll
 0001:000d2700       ?qt_metacall@QFutureWatcherBase@@UEAAHW4Call@QMetaObject@@HPEAPEAX@Z 00000001400d3700 f   Qt5Core:Qt5Core.dll
 0001:000d2706       ?qt_metacast@QFutureWatcherBase@@UEAAPEAXPEBD@Z 00000001400d3706 f   Qt5Core:Qt5Core.dll
 0001:000d270c       ?metaObject@QFutureWatcherBase@@UEBAPEBUQMetaObject@@XZ 00000001400d370c f   Qt5Core:Qt5Core.dll
 0001:000d2712       ??1QFutureWatcherBase@@UEAA@XZ 00000001400d3712 f   Qt5Core:Qt5Core.dll
 0001:000d2718       ??1QMutexLocker@@QEAA@XZ   00000001400d3718 f   Qt5Core:Qt5Core.dll
 0001:000d271e       ??1?$QVector@VQPointF@@@@QEAA@XZ 00000001400d371e f   Qt5Core:Qt5Core.dll
 0001:000d2724       ?run@QThread@@MEAAXXZ      00000001400d3724 f   Qt5Core:Qt5Core.dll
 0001:000d272a       ?setPermissions@QFile@@UEAA_NV?$QFlags@W4Permission@QFileDevice@@@@@Z 00000001400d372a f   Qt5Core:Qt5Core.dll
 0001:000d2730       ?permissions@QFile@@UEBA?AV?$QFlags@W4Permission@QFileDevice@@@@XZ 00000001400d3730 f   Qt5Core:Qt5Core.dll
 0001:000d2736       ?resize@QFile@@UEAA_N_J@Z  00000001400d3736 f   Qt5Core:Qt5Core.dll
 0001:000d273c       ?size@QFile@@UEBA_JXZ      00000001400d373c f   Qt5Core:Qt5Core.dll
 0001:000d2742       ?fileName@QFile@@UEBA?AVQString@@XZ 00000001400d3742 f   Qt5Core:Qt5Core.dll
 0001:000d2748       ?qt_metacall@QFile@@UEAAHW4Call@QMetaObject@@HPEAPEAX@Z 00000001400d3748 f   Qt5Core:Qt5Core.dll
 0001:000d274e       ?qt_metacast@QFile@@UEAAPEAXPEBD@Z 00000001400d374e f   Qt5Core:Qt5Core.dll
 0001:000d2754       ?metaObject@QFile@@UEBAPEBUQMetaObject@@XZ 00000001400d3754 f   Qt5Core:Qt5Core.dll
 0001:000d275a       ?readLineData@QFileDevice@@MEAA_JPEAD_J@Z 00000001400d375a f   Qt5Core:Qt5Core.dll
 0001:000d2760       ?writeData@QFileDevice@@MEAA_JPEBD_J@Z 00000001400d3760 f   Qt5Core:Qt5Core.dll
 0001:000d2766       ?readData@QFileDevice@@MEAA_JPEAD_J@Z 00000001400d3766 f   Qt5Core:Qt5Core.dll
 0001:000d276c       ?atEnd@QFileDevice@@UEBA_NXZ 00000001400d376c f   Qt5Core:Qt5Core.dll
 0001:000d2772       ?seek@QFileDevice@@UEAA_N_J@Z 00000001400d3772 f   Qt5Core:Qt5Core.dll
 0001:000d2778       ?pos@QFileDevice@@UEBA_JXZ 00000001400d3778 f   Qt5Core:Qt5Core.dll
 0001:000d277e       ?isSequential@QFileDevice@@UEBA_NXZ 00000001400d377e f   Qt5Core:Qt5Core.dll
 0001:000d2784       ?close@QFileDevice@@UEAAXXZ 00000001400d3784 f   Qt5Core:Qt5Core.dll
 0001:000d278a       ?waitForBytesWritten@QIODevice@@UEAA_NH@Z 00000001400d378a f   Qt5Core:Qt5Core.dll
 0001:000d2790       ?waitForReadyRead@QIODevice@@UEAA_NH@Z 00000001400d3790 f   Qt5Core:Qt5Core.dll
 0001:000d2796       ?canReadLine@QIODevice@@UEBA_NXZ 00000001400d3796 f   Qt5Core:Qt5Core.dll
 0001:000d279c       ?bytesToWrite@QIODevice@@UEBA_JXZ 00000001400d379c f   Qt5Core:Qt5Core.dll
 0001:000d27a2       ?bytesAvailable@QIODevice@@UEBA_JXZ 00000001400d37a2 f   Qt5Core:Qt5Core.dll
 0001:000d27a8       ?reset@QIODevice@@UEAA_NXZ 00000001400d37a8 f   Qt5Core:Qt5Core.dll
 0001:000d27ae       ??1QRegExp@@QEAA@XZ        00000001400d37ae f   Qt5Core:Qt5Core.dll
 0001:000d27b4       ??1QStringRef@@QEAA@XZ     00000001400d37b4 f   Qt5Core:Qt5Core.dll
 0001:000d27ba       ?readLineData@QIODevice@@MEAA_JPEAD_J@Z 00000001400d37ba f   Qt5Core:Qt5Core.dll
 0001:000d27c0       ?atEnd@QIODevice@@UEBA_NXZ 00000001400d37c0 f   Qt5Core:Qt5Core.dll
 0001:000d27c6       ?seek@QIODevice@@UEAA_N_J@Z 00000001400d37c6 f   Qt5Core:Qt5Core.dll
 0001:000d27cc       ?size@QIODevice@@UEBA_JXZ  00000001400d37cc f   Qt5Core:Qt5Core.dll
 0001:000d27d2       ?pos@QIODevice@@UEBA_JXZ   00000001400d37d2 f   Qt5Core:Qt5Core.dll
 0001:000d27d8       ?open@QIODevice@@UEAA_NV?$QFlags@W4OpenModeFlag@QIODevice@@@@@Z 00000001400d37d8 f   Qt5Core:Qt5Core.dll
 0001:000d27de       ??1QSqlDatabase@@QEAA@XZ   00000001400d37de f   Qt5Sql:Qt5Sql.dll
 0001:000d27e4       ??1QSqlQuery@@QEAA@XZ      00000001400d37e4 f   Qt5Sql:Qt5Sql.dll
 0001:000d2800       __security_check_cookie    00000001400d3800 f   MSVCRT:amdsecgs.obj
 0001:000d2824       ??2@YAPEAX_K@Z             00000001400d3824 f   MSVCRT:new_scalar.obj
 0001:000d2860       ??3@YAXPEAX_K@Z            00000001400d3860 f   MSVCRT:delete_scalar_size.obj
 0001:000d2860       ??_V@YAXPEAX@Z             00000001400d3860 f   MSVCRT:delete_array.obj
 0001:000d2868       ??_U@YAPEAX_K@Z            00000001400d3868 f   MSVCRT:new_array.obj
 0001:000d2870       ??_Gtype_info@@UEAAPEAXI@Z 00000001400d3870 f i MSVCRT:std_type_info_static.obj
 0001:000d2870       ??_Etype_info@@UEAAPEAXI@Z 00000001400d3870 f i MSVCRT:std_type_info_static.obj
 0001:000d289c       ??3@YAXPEAX@Z              00000001400d389c f   MSVCRT:delete_scalar.obj
 0001:000d28a4       __raise_securityfailure    00000001400d38a4 f   MSVCRT:gs_report.obj
 0001:000d28d8       __report_gsfailure         00000001400d38d8 f   MSVCRT:gs_report.obj
 0001:000d2a20       ??_M@YAXPEAX_K1P6AX0@Z@Z   00000001400d3a20 f   MSVCRT:ehvecdtr.obj
 0001:000d2a8c       ?__ArrayUnwind@@YAXPEAX_K1P6AX0@Z@Z 00000001400d3a8c f   MSVCRT:ehvecdtr.obj
 0001:000d2af0       __scrt_acquire_startup_lock 00000001400d3af0 f   MSVCRT:utility.obj
 0001:000d2b2c       __scrt_initialize_crt      00000001400d3b2c f   MSVCRT:utility.obj
 0001:000d2b78       __scrt_initialize_onexit_tables 00000001400d3b78 f   MSVCRT:utility.obj
 0001:000d2c04       __scrt_is_nonwritable_in_current_image 00000001400d3c04 f   MSVCRT:utility.obj
 0001:000d2c9c       __scrt_release_startup_lock 00000001400d3c9c f   MSVCRT:utility.obj
 0001:000d2cc0       __scrt_uninitialize_crt    00000001400d3cc0 f   MSVCRT:utility.obj
 0001:000d2cec       _onexit                    00000001400d3cec f   MSVCRT:utility.obj
 0001:000d2d28       atexit                     00000001400d3d28 f   MSVCRT:utility.obj
 0001:000d2d40       ??_L@YAXPEAX_K1P6AX0@Z2@Z  00000001400d3d40 f   MSVCRT:ehvecctr.obj
 0001:000d2ea8       _Init_thread_abort         00000001400d3ea8 f   MSVCRT:thread_safe_statics.obj
 0001:000d2ed8       _Init_thread_footer        00000001400d3ed8 f   MSVCRT:thread_safe_statics.obj
 0001:000d2f38       _Init_thread_header        00000001400d3f38 f   MSVCRT:thread_safe_statics.obj
 0001:000d2fa0       _Init_thread_notify        00000001400d3fa0 f   MSVCRT:thread_safe_statics.obj
 0001:000d2fe4       _Init_thread_wait          00000001400d3fe4 f   MSVCRT:thread_safe_statics.obj
 0001:000d32a8       mainCRTStartup             00000001400d42a8 f   MSVCRT:exe_main.obj
 0001:000d32bc       ??0bad_alloc@std@@QEAA@XZ  00000001400d42bc f i MSVCRT:throw_bad_alloc.obj
 0001:000d32dc       ?__scrt_throw_std_bad_alloc@@YAXXZ 00000001400d42dc f   MSVCRT:throw_bad_alloc.obj
 0001:000d32fc       __isa_available_init       00000001400d42fc f   MSVCRT:cpu_disp.obj
 0001:000d34a0       _get_startup_argv_mode     00000001400d44a0 f   MSVCRT:argv_mode.obj
 0001:000d34a8       __scrt_is_ucrt_dll_in_use  00000001400d44a8 f   MSVCRT:ucrt_detection.obj
 0001:000d34b4       __crt_debugger_hook        00000001400d44b4 f   MSVCRT:utility_desktop.obj
 0001:000d34bc       __scrt_fastfail            00000001400d44bc f   MSVCRT:utility_desktop.obj
 0001:000d3608       __scrt_initialize_mta      00000001400d4608 f   MSVCRT:utility_desktop.obj
 0001:000d3610       __scrt_is_managed_app      00000001400d4610 f   MSVCRT:utility_desktop.obj
 0001:000d3664       __scrt_set_unhandled_exception_filter 00000001400d4664 f   MSVCRT:utility_desktop.obj
 0001:000d3674       __scrt_unhandled_exception_filter 00000001400d4674 f   MSVCRT:utility_desktop.obj
 0001:000d36d0       __security_init_cookie     00000001400d46d0 f   MSVCRT:gs_support.obj
 0001:000d377c       _get_startup_file_mode     00000001400d477c f   MSVCRT:file_mode.obj
 0001:000d3784       ?__scrt_initialize_type_info@@YAXXZ 00000001400d4784 f   MSVCRT:tncleanup.obj
 0001:000d3794       __local_stdio_scanf_options 00000001400d4794 f i MSVCRT:default_local_stdio_options.obj
 0001:000d379c       __scrt_initialize_default_local_stdio_options 00000001400d479c f   MSVCRT:default_local_stdio_options.obj
 0001:000d37b8       __scrt_is_user_matherr_present 00000001400d47b8 f   MSVCRT:matherr_detection.obj
 0001:000d37c4       __scrt_get_dyn_tls_init_callback 00000001400d47c4 f   MSVCRT:dyn_tls_init.obj
 0001:000d37cc       __scrt_get_dyn_tls_dtor_callback 00000001400d47cc f   MSVCRT:dyn_tls_dtor.obj
 0001:000d37d4       _RTC_Initialize            00000001400d47d4 f   MSVCRT:initsect.obj
 0001:000d3810       _RTC_Terminate             00000001400d4810 f   MSVCRT:initsect.obj
 0001:000d3850       __CxxFrameHandler4         00000001400d4850 f   vcruntime:VCRUNTIME140_1.dll
 0001:000d3856       __std_terminate            00000001400d4856 f   vcruntime:VCRUNTIME140.dll
 0001:000d385c       _purecall                  00000001400d485c f   vcruntime:VCRUNTIME140.dll
 0001:000d3862       __current_exception        00000001400d4862 f   vcruntime:VCRUNTIME140.dll
 0001:000d3868       __current_exception_context 00000001400d4868 f   vcruntime:VCRUNTIME140.dll
 0001:000d386e       __C_specific_handler       00000001400d486e f   vcruntime:VCRUNTIME140.dll
 0001:000d3874       _CxxThrowException         00000001400d4874 f   vcruntime:VCRUNTIME140.dll
 0001:000d387a       memset                     00000001400d487a f   vcruntime:VCRUNTIME140.dll
 0001:000d3880       free                       00000001400d4880 f   ucrt:api-ms-win-crt-heap-l1-1-0.dll
 0001:000d3886       malloc                     00000001400d4886 f   ucrt:api-ms-win-crt-heap-l1-1-0.dll
 0001:000d388c       exit                       00000001400d488c f   ucrt:api-ms-win-crt-runtime-l1-1-0.dll
 0001:000d3892       _callnewh                  00000001400d4892 f   ucrt:api-ms-win-crt-heap-l1-1-0.dll
 0001:000d3898       terminate                  00000001400d4898 f   ucrt:api-ms-win-crt-runtime-l1-1-0.dll
 0001:000d389e       _configure_narrow_argv     00000001400d489e f   ucrt:api-ms-win-crt-runtime-l1-1-0.dll
 0001:000d38a4       _initialize_narrow_environment 00000001400d48a4 f   ucrt:api-ms-win-crt-runtime-l1-1-0.dll
 0001:000d38aa       _initialize_onexit_table   00000001400d48aa f   ucrt:api-ms-win-crt-runtime-l1-1-0.dll
 0001:000d38b0       _register_onexit_function  00000001400d48b0 f   ucrt:api-ms-win-crt-runtime-l1-1-0.dll
 0001:000d38b6       _crt_atexit                00000001400d48b6 f   ucrt:api-ms-win-crt-runtime-l1-1-0.dll
 0001:000d38bc       _cexit                     00000001400d48bc f   ucrt:api-ms-win-crt-runtime-l1-1-0.dll
 0001:000d38c2       _seh_filter_exe            00000001400d48c2 f   ucrt:api-ms-win-crt-runtime-l1-1-0.dll
 0001:000d38c8       _set_app_type              00000001400d48c8 f   ucrt:api-ms-win-crt-runtime-l1-1-0.dll
 0001:000d38ce       __setusermatherr           00000001400d48ce f   ucrt:api-ms-win-crt-math-l1-1-0.dll
 0001:000d38d4       _get_initial_narrow_environment 00000001400d48d4 f   ucrt:api-ms-win-crt-runtime-l1-1-0.dll
 0001:000d38da       _initterm                  00000001400d48da f   ucrt:api-ms-win-crt-runtime-l1-1-0.dll
 0001:000d38e0       _initterm_e                00000001400d48e0 f   ucrt:api-ms-win-crt-runtime-l1-1-0.dll
 0001:000d38e6       _exit                      00000001400d48e6 f   ucrt:api-ms-win-crt-runtime-l1-1-0.dll
 0001:000d38ec       _set_fmode                 00000001400d48ec f   ucrt:api-ms-win-crt-stdio-l1-1-0.dll
 0001:000d38f2       __p___argc                 00000001400d48f2 f   ucrt:api-ms-win-crt-runtime-l1-1-0.dll
 0001:000d38f8       __p___argv                 00000001400d48f8 f   ucrt:api-ms-win-crt-runtime-l1-1-0.dll
 0001:000d38fe       _c_exit                    00000001400d48fe f   ucrt:api-ms-win-crt-runtime-l1-1-0.dll
 0001:000d3904       _register_thread_local_exe_atexit_callback 00000001400d4904 f   ucrt:api-ms-win-crt-runtime-l1-1-0.dll
 0001:000d390a       _configthreadlocale        00000001400d490a f   ucrt:api-ms-win-crt-locale-l1-1-0.dll
 0001:000d3910       _set_new_mode              00000001400d4910 f   ucrt:api-ms-win-crt-heap-l1-1-0.dll
 0001:000d3916       __p__commode               00000001400d4916 f   ucrt:api-ms-win-crt-stdio-l1-1-0.dll
 0001:000d391c       IsProcessorFeaturePresent  00000001400d491c f   kernel32:KERNEL32.dll
 0001:000d3924       __GSHandlerCheck           00000001400d4924 f   MSVCRT:gshandler.obj
 0001:000d3944       __GSHandlerCheckCommon     00000001400d4944 f   MSVCRT:gshandler.obj
 0001:000d39a0       __GSHandlerCheck_EH4       00000001400d49a0 f   MSVCRT:gshandlereh4.obj
 0001:000d3a30       _alloca_probe              00000001400d4a30 f   MSVCRT:chkstk.obj
 0001:000d3a30       __chkstk                   00000001400d4a30 f   MSVCRT:chkstk.obj
 0001:000d3a81       __RTDynamicCast            00000001400d4a81 f   vcruntime:VCRUNTIME140.dll
 0001:000d3a87       memcmp                     00000001400d4a87 f   vcruntime:VCRUNTIME140.dll
 0001:000d3a8d       memcpy                     00000001400d4a8d f   vcruntime:VCRUNTIME140.dll
 0001:000d3a93       memmove                    00000001400d4a93 f   vcruntime:VCRUNTIME140.dll
 0001:000d3a99       ceil                       00000001400d4a99 f   ucrt:api-ms-win-crt-math-l1-1-0.dll
 0001:000d3a9f       cos                        00000001400d4a9f f   ucrt:api-ms-win-crt-math-l1-1-0.dll
 0001:000d3aa5       floor                      00000001400d4aa5 f   ucrt:api-ms-win-crt-math-l1-1-0.dll
 0001:000d3aab       log                        00000001400d4aab f   ucrt:api-ms-win-crt-math-l1-1-0.dll
 0001:000d3ab1       log10                      00000001400d4ab1 f   ucrt:api-ms-win-crt-math-l1-1-0.dll
 0001:000d3ab7       pow                        00000001400d4ab7 f   ucrt:api-ms-win-crt-math-l1-1-0.dll
 0001:000d3abd       sin                        00000001400d4abd f   ucrt:api-ms-win-crt-math-l1-1-0.dll
 0001:000d3ac3       sqrt                       00000001400d4ac3 f   ucrt:api-ms-win-crt-math-l1-1-0.dll
 0001:000d3ac9       strcmp                     00000001400d4ac9 f   ucrt:api-ms-win-crt-string-l1-1-0.dll
 0001:000d3ae0       _guard_dispatch_icall_nop  00000001400d4ae0 f   MSVCRT:guard_dispatch.obj
 0001:000d3b00       _guard_xfg_dispatch_icall_nop 00000001400d4b00 f   MSVCRT:guard_xfg_dispatch.obj
 0001:000dea40       ??__Ff@?4??registerConverter@?$ValueTypeIsMetaType@V?$QVector@N@@$00@QtPrivate@@SA_NH@Z@YAXXZ 00000001400dfa40 f i moc_qcustomplot.obj
 0001:000dea70       ??__Ff@?4??registerConverter@?$ValueTypeIsMetaType@V?$QVector@VQString@@@@$00@QtPrivate@@SA_NH@Z@YAXXZ 00000001400dfa70 f i moc_qcustomplot.obj
 0001:000deaa0       ??__Ff@?4??registerConverter@?$ValueTypeIsMetaType@V?$QList@N@@$00@QtPrivate@@SA_NH@Z@YAXXZ 00000001400dfaa0 f i moc_qcustomplot.obj
 0001:000dead0       ??__Ff@?4??registerConverter@?$ValueTypeIsMetaType@V?$QList@PEAVQCPLayerable@@@@$00@QtPrivate@@SA_NH@Z@YAXXZ 00000001400dfad0 f i moc_qcustomplot.obj
 0002:00000000       __imp_SetInformationJobObject 00000001400e0000     kernel32:KERNEL32.dll
 0002:00000008       __imp_GetCurrentProcess    00000001400e0008     kernel32:KERNEL32.dll
 0002:00000010       __imp_WriteFile            00000001400e0010     kernel32:KERNEL32.dll
 0002:00000018       __imp_AssignProcessToJobObject 00000001400e0018     kernel32:KERNEL32.dll
 0002:00000020       __imp_TerminateProcess     00000001400e0020     kernel32:KERNEL32.dll
 0002:00000028       __imp_CreateJobObjectW     00000001400e0028     kernel32:KERNEL32.dll
 0002:00000030       __imp_CreatePipe           00000001400e0030     kernel32:KERNEL32.dll
 0002:00000038       __imp_InitializeSListHead  00000001400e0038     kernel32:KERNEL32.dll
 0002:00000040       __imp_WaitForSingleObject  00000001400e0040     kernel32:KERNEL32.dll
 0002:00000048       __imp_CreateFileW          00000001400e0048     kernel32:KERNEL32.dll
 0002:00000050       __imp_DuplicateHandle      00000001400e0050     kernel32:KERNEL32.dll
 0002:00000058       __imp_CloseHandle          00000001400e0058     kernel32:KERNEL32.dll
 0002:00000060       __imp_CreateProcessW       00000001400e0060     kernel32:KERNEL32.dll
 0002:00000068       __imp_GetExitCodeProcess   00000001400e0068     kernel32:KERNEL32.dll
 0002:00000070       __imp_UnmapViewOfFile      00000001400e0070     kernel32:KERNEL32.dll
 0002:00000078       __imp_GetSystemTimeAsFileTime 00000001400e0078     kernel32:KERNEL32.dll
 0002:00000080       __imp_GetCurrentThreadId   00000001400e0080     kernel32:KERNEL32.dll
 0002:00000088       __imp_GetCurrentProcessId  00000001400e0088     kernel32:KERNEL32.dll
 0002:00000090       __imp_QueryPerformanceCounter 00000001400e0090     kernel32:KERNEL32.dll
 0002:00000098       __imp_IsDebuggerPresent    00000001400e0098     kernel32:KERNEL32.dll
 0002:000000a0       __imp_GetProcAddress       00000001400e00a0     kernel32:KERNEL32.dll
 0002:000000a8       __imp_GetModuleHandleW     00000001400e00a8     kernel32:KERNEL32.dll
 0002:000000b0       __imp_CreateEventW         00000001400e00b0     kernel32:KERNEL32.dll
 0002:000000b8       __imp_WaitForSingleObjectEx 00000001400e00b8     kernel32:KERNEL32.dll
 0002:000000c0       __imp_ResetEvent           00000001400e00c0     kernel32:KERNEL32.dll
 0002:000000c8       __imp_SetEvent             00000001400e00c8     kernel32:KERNEL32.dll
 0002:000000d0       __imp_DeleteCriticalSection 00000001400e00d0     kernel32:KERNEL32.dll
 0002:000000d8       __imp_InitializeCriticalSectionAndSpinCount 00000001400e00d8     kernel32:KERNEL32.dll
 0002:000000e0       __imp_LeaveCriticalSection 00000001400e00e0     kernel32:KERNEL32.dll
 0002:000000e8       __imp_EnterCriticalSection 00000001400e00e8     kernel32:KERNEL32.dll
 0002:000000f0       __imp_IsProcessorFeaturePresent 00000001400e00f0     kernel32:KERNEL32.dll
 0002:000000f8       __imp_SetUnhandledExceptionFilter 00000001400e00f8     kernel32:KERNEL32.dll
 0002:00000100       __imp_UnhandledExceptionFilter 00000001400e0100     kernel32:KERNEL32.dll
 0002:00000108       __imp_RtlVirtualUnwind     00000001400e0108     kernel32:KERNEL32.dll
 0002:00000110       __imp_RtlLookupFunctionEntry 00000001400e0110     kernel32:KERNEL32.dll
 0002:00000118       __imp_RtlCaptureContext    00000001400e0118     kernel32:KERNEL32.dll
 0002:00000120       __imp_GetLastError         00000001400e0120     kernel32:KERNEL32.dll
 0002:00000128       __imp_ReadFile             00000001400e0128     kernel32:KERNEL32.dll
 0002:00000130       __imp_CreateFileA          00000001400e0130     kernel32:KERNEL32.dll
 0002:00000138       \177KERNEL32_NULL_THUNK_DATA 00000001400e0138     kernel32:KERNEL32.dll
 0002:00000140       __imp__Mtx_destroy_in_situ 00000001400e0140     msvcprt:MSVCP140.dll
 0002:00000148       __imp_?_Throw_C_error@std@@YAXH@Z 00000001400e0148     msvcprt:MSVCP140.dll
 0002:00000150       __imp_?_Xlength_error@std@@YAXPEBD@Z 00000001400e0150     msvcprt:MSVCP140.dll
 0002:00000158       __imp__Mtx_lock            00000001400e0158     msvcprt:MSVCP140.dll
 0002:00000160       __imp__Mtx_init_in_situ    00000001400e0160     msvcprt:MSVCP140.dll
 0002:00000168       __imp__Mtx_unlock          00000001400e0168     msvcprt:MSVCP140.dll
 0002:00000170       __imp_?_Random_device@std@@YAIXZ 00000001400e0170     msvcprt:MSVCP140.dll
 0002:00000178       \177MSVCP140_NULL_THUNK_DATA 00000001400e0178     msvcprt:MSVCP140.dll
 0002:00000180       __imp_??0BlockSizeManagerV2@QtConcurrent@@QEAA@H@Z 00000001400e0180     Qt5Concurrent:Qt5Concurrent.dll
 0002:00000188       __imp_?timeBeforeUser@BlockSizeManagerV2@QtConcurrent@@QEAAXXZ 00000001400e0188     Qt5Concurrent:Qt5Concurrent.dll
 0002:00000190       __imp_?timeAfterUser@BlockSizeManagerV2@QtConcurrent@@QEAAXXZ 00000001400e0190     Qt5Concurrent:Qt5Concurrent.dll
 0002:00000198       __imp_?blockSize@BlockSizeManagerV2@QtConcurrent@@QEAAHXZ 00000001400e0198     Qt5Concurrent:Qt5Concurrent.dll
 0002:000001a0       __imp_??0ThreadEngineBase@QtConcurrent@@QEAA@XZ 00000001400e01a0     Qt5Concurrent:Qt5Concurrent.dll
 0002:000001a8       __imp_??1ThreadEngineBase@QtConcurrent@@UEAA@XZ 00000001400e01a8     Qt5Concurrent:Qt5Concurrent.dll
 0002:000001b0       __imp_?startThread@ThreadEngineBase@QtConcurrent@@QEAAXXZ 00000001400e01b0     Qt5Concurrent:Qt5Concurrent.dll
 0002:000001b8       __imp_?isCanceled@ThreadEngineBase@QtConcurrent@@QEAA_NXZ 00000001400e01b8     Qt5Concurrent:Qt5Concurrent.dll
 0002:000001c0       __imp_?waitForResume@ThreadEngineBase@QtConcurrent@@QEAAXXZ 00000001400e01c0     Qt5Concurrent:Qt5Concurrent.dll
 0002:000001c8       __imp_?isProgressReportingEnabled@ThreadEngineBase@QtConcurrent@@QEAA_NXZ 00000001400e01c8     Qt5Concurrent:Qt5Concurrent.dll
 0002:000001d0       __imp_?setProgressValue@ThreadEngineBase@QtConcurrent@@QEAAXH@Z 00000001400e01d0     Qt5Concurrent:Qt5Concurrent.dll
 0002:000001d8       __imp_?setProgressRange@ThreadEngineBase@QtConcurrent@@QEAAXHH@Z 00000001400e01d8     Qt5Concurrent:Qt5Concurrent.dll
 0002:000001e0       __imp_?acquireBarrierSemaphore@ThreadEngineBase@QtConcurrent@@QEAAXXZ 00000001400e01e0     Qt5Concurrent:Qt5Concurrent.dll
 0002:000001e8       __imp_?run@ThreadEngineBase@QtConcurrent@@EEAAXXZ 00000001400e01e8     Qt5Concurrent:Qt5Concurrent.dll
 0002:000001f0       __imp_?shouldThrottleThread@ThreadEngineBase@QtConcurrent@@MEAA_NXZ 00000001400e01f0     Qt5Concurrent:Qt5Concurrent.dll
 0002:000001f8       __imp_?shouldStartThread@ThreadEngineBase@QtConcurrent@@MEAA_NXZ 00000001400e01f8     Qt5Concurrent:Qt5Concurrent.dll
 0002:00000200       __imp_?threadFunction@ThreadEngineBase@QtConcurrent@@MEAA?AW4ThreadFunctionResult@2@XZ 00000001400e0200     Qt5Concurrent:Qt5Concurrent.dll
 0002:00000208       __imp_?finish@ThreadEngineBase@QtConcurrent@@MEAAXXZ 00000001400e0208     Qt5Concurrent:Qt5Concurrent.dll
 0002:00000210       __imp_?start@ThreadEngineBase@QtConcurrent@@MEAAXXZ 00000001400e0210     Qt5Concurrent:Qt5Concurrent.dll
 0002:00000218       \177Qt5Concurrent_NULL_THUNK_DATA 00000001400e0218     Qt5Concurrent:Qt5Concurrent.dll
